
Simuring.elf:     file format elf32-avr

Sections:
Idx Name          Size      VMA       LMA       File off  Algn
  0 .data         00000000  00800200  000032f0  00003384  2**0
                  CONTENTS, ALLOC, LOAD, DATA
  1 .text         000032f0  00000000  00000000  00000094  2**1
                  CONTENTS, ALLOC, LOAD, READONLY, CODE
  2 .bss          00000036  00800200  00800200  00003384  2**0
                  ALLOC
  3 .stab         0000096c  00000000  00000000  00003384  2**2
                  CONTENTS, READONLY, DEBUGGING
  4 .stabstr      0000014d  00000000  00000000  00003cf0  2**0
                  CONTENTS, READONLY, DEBUGGING
  5 .debug_aranges 00000260  00000000  00000000  00003e40  2**3
                  CONTENTS, READONLY, DEBUGGING
  6 .debug_info   000071fa  00000000  00000000  000040a0  2**0
                  CONTENTS, READONLY, DEBUGGING
  7 .debug_abbrev 000016d2  00000000  00000000  0000b29a  2**0
                  CONTENTS, READONLY, DEBUGGING
  8 .debug_line   00001582  00000000  00000000  0000c96c  2**0
                  CONTENTS, READONLY, DEBUGGING
  9 .debug_frame  00001084  00000000  00000000  0000def0  2**2
                  CONTENTS, READONLY, DEBUGGING
 10 .debug_str    0000182e  00000000  00000000  0000ef74  2**0
                  CONTENTS, READONLY, DEBUGGING
 11 .debug_loc    000044da  00000000  00000000  000107a2  2**0
                  CONTENTS, READONLY, DEBUGGING
 12 .debug_ranges 000001d8  00000000  00000000  00014c7c  2**0
                  CONTENTS, READONLY, DEBUGGING

Disassembly of section .text:

00000000 <__vectors>:
       0:	0c 94 73 00 	jmp	0xe6	; 0xe6 <__ctors_end>
       4:	0c 94 a6 00 	jmp	0x14c	; 0x14c <__bad_interrupt>
       8:	0c 94 a6 00 	jmp	0x14c	; 0x14c <__bad_interrupt>
       c:	0c 94 fd 01 	jmp	0x3fa	; 0x3fa <__vector_3>
      10:	0c 94 28 02 	jmp	0x450	; 0x450 <__vector_4>
      14:	0c 94 a6 00 	jmp	0x14c	; 0x14c <__bad_interrupt>
      18:	0c 94 a6 00 	jmp	0x14c	; 0x14c <__bad_interrupt>
      1c:	0c 94 a6 00 	jmp	0x14c	; 0x14c <__bad_interrupt>
      20:	0c 94 a6 00 	jmp	0x14c	; 0x14c <__bad_interrupt>
      24:	0c 94 a6 00 	jmp	0x14c	; 0x14c <__bad_interrupt>
      28:	0c 94 a6 00 	jmp	0x14c	; 0x14c <__bad_interrupt>
      2c:	0c 94 a6 00 	jmp	0x14c	; 0x14c <__bad_interrupt>
      30:	0c 94 a6 00 	jmp	0x14c	; 0x14c <__bad_interrupt>
      34:	0c 94 a6 00 	jmp	0x14c	; 0x14c <__bad_interrupt>
      38:	0c 94 a6 00 	jmp	0x14c	; 0x14c <__bad_interrupt>
      3c:	0c 94 a9 02 	jmp	0x552	; 0x552 <__vector_15>
      40:	0c 94 a6 00 	jmp	0x14c	; 0x14c <__bad_interrupt>
      44:	0c 94 a6 00 	jmp	0x14c	; 0x14c <__bad_interrupt>
      48:	0c 94 a6 00 	jmp	0x14c	; 0x14c <__bad_interrupt>
      4c:	0c 94 a6 00 	jmp	0x14c	; 0x14c <__bad_interrupt>
      50:	0c 94 a6 00 	jmp	0x14c	; 0x14c <__bad_interrupt>
      54:	0c 94 a6 00 	jmp	0x14c	; 0x14c <__bad_interrupt>
      58:	0c 94 a6 00 	jmp	0x14c	; 0x14c <__bad_interrupt>
      5c:	0c 94 53 02 	jmp	0x4a6	; 0x4a6 <__vector_23>
      60:	0c 94 a6 00 	jmp	0x14c	; 0x14c <__bad_interrupt>
      64:	0c 94 d2 01 	jmp	0x3a4	; 0x3a4 <__vector_25>
      68:	0c 94 a6 00 	jmp	0x14c	; 0x14c <__bad_interrupt>
      6c:	0c 94 a6 00 	jmp	0x14c	; 0x14c <__bad_interrupt>
      70:	0c 94 a6 00 	jmp	0x14c	; 0x14c <__bad_interrupt>
      74:	0c 94 a6 00 	jmp	0x14c	; 0x14c <__bad_interrupt>
      78:	0c 94 a6 00 	jmp	0x14c	; 0x14c <__bad_interrupt>
      7c:	0c 94 a6 00 	jmp	0x14c	; 0x14c <__bad_interrupt>
      80:	0c 94 a6 00 	jmp	0x14c	; 0x14c <__bad_interrupt>
      84:	0c 94 a6 00 	jmp	0x14c	; 0x14c <__bad_interrupt>
      88:	0c 94 a6 00 	jmp	0x14c	; 0x14c <__bad_interrupt>
      8c:	0c 94 7e 02 	jmp	0x4fc	; 0x4fc <__vector_35>
      90:	0c 94 a6 00 	jmp	0x14c	; 0x14c <__bad_interrupt>
      94:	0c 94 a6 00 	jmp	0x14c	; 0x14c <__bad_interrupt>
      98:	0c 94 a6 00 	jmp	0x14c	; 0x14c <__bad_interrupt>
      9c:	0c 94 a6 00 	jmp	0x14c	; 0x14c <__bad_interrupt>
      a0:	0c 94 a6 00 	jmp	0x14c	; 0x14c <__bad_interrupt>
      a4:	0c 94 a6 00 	jmp	0x14c	; 0x14c <__bad_interrupt>
      a8:	0c 94 a6 00 	jmp	0x14c	; 0x14c <__bad_interrupt>
      ac:	0c 94 a6 00 	jmp	0x14c	; 0x14c <__bad_interrupt>
      b0:	0c 94 a6 00 	jmp	0x14c	; 0x14c <__bad_interrupt>
      b4:	0c 94 a6 00 	jmp	0x14c	; 0x14c <__bad_interrupt>
      b8:	0c 94 a6 00 	jmp	0x14c	; 0x14c <__bad_interrupt>
      bc:	0c 94 a6 00 	jmp	0x14c	; 0x14c <__bad_interrupt>
      c0:	0c 94 a6 00 	jmp	0x14c	; 0x14c <__bad_interrupt>
      c4:	0c 94 a6 00 	jmp	0x14c	; 0x14c <__bad_interrupt>
      c8:	0c 94 a6 00 	jmp	0x14c	; 0x14c <__bad_interrupt>
      cc:	0c 94 a6 00 	jmp	0x14c	; 0x14c <__bad_interrupt>
      d0:	0c 94 a6 00 	jmp	0x14c	; 0x14c <__bad_interrupt>
      d4:	0c 94 a6 00 	jmp	0x14c	; 0x14c <__bad_interrupt>
      d8:	0c 94 a6 00 	jmp	0x14c	; 0x14c <__bad_interrupt>
      dc:	0c 94 a6 00 	jmp	0x14c	; 0x14c <__bad_interrupt>
      e0:	0c 94 a6 00 	jmp	0x14c	; 0x14c <__bad_interrupt>

000000e4 <__ctors_start>:
      e4:	d4 02       	muls	r29, r20

000000e6 <__ctors_end>:
      e6:	11 24       	eor	r1, r1
      e8:	1f be       	out	0x3f, r1	; 63
      ea:	cf ef       	ldi	r28, 0xFF	; 255
      ec:	d1 e2       	ldi	r29, 0x21	; 33
      ee:	de bf       	out	0x3e, r29	; 62
      f0:	cd bf       	out	0x3d, r28	; 61
      f2:	00 e0       	ldi	r16, 0x00	; 0
      f4:	0c bf       	out	0x3c, r16	; 60

000000f6 <__do_copy_data>:
      f6:	12 e0       	ldi	r17, 0x02	; 2
      f8:	a0 e0       	ldi	r26, 0x00	; 0
      fa:	b2 e0       	ldi	r27, 0x02	; 2
      fc:	e0 ef       	ldi	r30, 0xF0	; 240
      fe:	f2 e3       	ldi	r31, 0x32	; 50
     100:	00 e0       	ldi	r16, 0x00	; 0
     102:	0b bf       	out	0x3b, r16	; 59
     104:	02 c0       	rjmp	.+4      	; 0x10a <__do_copy_data+0x14>
     106:	07 90       	elpm	r0, Z+
     108:	0d 92       	st	X+, r0
     10a:	a0 30       	cpi	r26, 0x00	; 0
     10c:	b1 07       	cpc	r27, r17
     10e:	d9 f7       	brne	.-10     	; 0x106 <__do_copy_data+0x10>
     110:	1b be       	out	0x3b, r1	; 59

00000112 <__do_clear_bss>:
     112:	12 e0       	ldi	r17, 0x02	; 2
     114:	a0 e0       	ldi	r26, 0x00	; 0
     116:	b2 e0       	ldi	r27, 0x02	; 2
     118:	01 c0       	rjmp	.+2      	; 0x11c <.do_clear_bss_start>

0000011a <.do_clear_bss_loop>:
     11a:	1d 92       	st	X+, r1

0000011c <.do_clear_bss_start>:
     11c:	a6 33       	cpi	r26, 0x36	; 54
     11e:	b1 07       	cpc	r27, r17
     120:	e1 f7       	brne	.-8      	; 0x11a <.do_clear_bss_loop>

00000122 <__do_global_ctors>:
     122:	10 e0       	ldi	r17, 0x00	; 0
     124:	c6 ee       	ldi	r28, 0xE6	; 230
     126:	d0 e0       	ldi	r29, 0x00	; 0
     128:	00 e0       	ldi	r16, 0x00	; 0
     12a:	06 c0       	rjmp	.+12     	; 0x138 <__do_global_ctors+0x16>
     12c:	22 97       	sbiw	r28, 0x02	; 2
     12e:	01 09       	sbc	r16, r1
     130:	fe 01       	movw	r30, r28
     132:	0b bf       	out	0x3b, r16	; 59
     134:	0e 94 2d 19 	call	0x325a	; 0x325a <__tablejump_elpm__>
     138:	c4 3e       	cpi	r28, 0xE4	; 228
     13a:	d1 07       	cpc	r29, r17
     13c:	80 e0       	ldi	r24, 0x00	; 0
     13e:	08 07       	cpc	r16, r24
     140:	a9 f7       	brne	.-22     	; 0x12c <__do_global_ctors+0xa>
     142:	1b be       	out	0x3b, r1	; 59
     144:	0e 94 f2 00 	call	0x1e4	; 0x1e4 <main>
     148:	0c 94 76 19 	jmp	0x32ec	; 0x32ec <_exit>

0000014c <__bad_interrupt>:
     14c:	0c 94 00 00 	jmp	0	; 0x0 <__vectors>

00000150 <_ZN3i2cC1Ebi>:
// DESCR. : constructor that initiates the i2c module as master with
// a chosen clock frequency of 100 kHz or 400 kHz.
//=============================================================
i2c::i2c(bool isMaster, int clock)
{
	if(isMaster == true)
     150:	66 23       	and	r22, r22
     152:	f1 f0       	breq	.+60     	; 0x190 <_ZN3i2cC1Ebi+0x40>
	{
		if(clock == 400)
     154:	81 e0       	ldi	r24, 0x01	; 1
     156:	40 39       	cpi	r20, 0x90	; 144
     158:	58 07       	cpc	r21, r24
     15a:	39 f4       	brne	.+14     	; 0x16a <_ZN3i2cC1Ebi+0x1a>
		{
			TWSR = 0b00000001; // set prescaler
     15c:	81 e0       	ldi	r24, 0x01	; 1
     15e:	80 93 b9 00 	sts	0x00B9, r24
			TWBR = 0x03; // sets SCL to 400 kHz
     162:	83 e0       	ldi	r24, 0x03	; 3
     164:	80 93 b8 00 	sts	0x00B8, r24
     168:	10 c0       	rjmp	.+32     	; 0x18a <_ZN3i2cC1Ebi+0x3a>
		}
		else if(clock == 100){
     16a:	44 36       	cpi	r20, 0x64	; 100
     16c:	51 05       	cpc	r21, r1
     16e:	39 f4       	brne	.+14     	; 0x17e <_ZN3i2cC1Ebi+0x2e>
			TWSR = 0b00000001; // set prescaler
     170:	81 e0       	ldi	r24, 0x01	; 1
     172:	80 93 b9 00 	sts	0x00B9, r24
			TWBR = 0x12; // sets SCL to 100 kHz
     176:	82 e1       	ldi	r24, 0x12	; 18
     178:	80 93 b8 00 	sts	0x00B8, r24
     17c:	06 c0       	rjmp	.+12     	; 0x18a <_ZN3i2cC1Ebi+0x3a>
		}
		else
		{
			TWSR = 0b00000011; // set prescaler
     17e:	83 e0       	ldi	r24, 0x03	; 3
     180:	80 93 b9 00 	sts	0x00B9, r24
			TWBR = 0x14; // sets SCL to 6,211 kHz
     184:	84 e1       	ldi	r24, 0x14	; 20
     186:	80 93 b8 00 	sts	0x00B8, r24
		}
		TWCR = 0x04; // enable the TWI module in mega2560.
     18a:	84 e0       	ldi	r24, 0x04	; 4
     18c:	80 93 bc 00 	sts	0x00BC, r24
     190:	08 95       	ret

00000192 <_ZN3i2c5startEv>:
// METHOD : start
// DESCR. : sends the start command on the i2c interface.
//=============================================================
void i2c::start()
{
	TWCR = (1 << TWINT) | (1 << TWSTA) | (1 << TWEN);
     192:	84 ea       	ldi	r24, 0xA4	; 164
     194:	80 93 bc 00 	sts	0x00BC, r24
	while (!(TWCR & (1<<TWINT)));
     198:	ec eb       	ldi	r30, 0xBC	; 188
     19a:	f0 e0       	ldi	r31, 0x00	; 0
     19c:	80 81       	ld	r24, Z
     19e:	88 23       	and	r24, r24
     1a0:	ec f7       	brge	.-6      	; 0x19c <_ZN3i2c5startEv+0xa>
}
     1a2:	08 95       	ret

000001a4 <_ZN3i2c4stopEv>:
// METHOD : stop
// DESCR. : sends the stop command on the i2c interface.
//=============================================================
void i2c::stop()
{
	TWCR = (1 << TWINT) | (1 << TWEN ) | (1<<TWSTO);
     1a4:	84 e9       	ldi	r24, 0x94	; 148
     1a6:	80 93 bc 00 	sts	0x00BC, r24
};
     1aa:	08 95       	ret

000001ac <_ZN3i2c5writeEh>:
// METHOD : write
// DESCR. : writes a single byte of data to the i2c interface.
//=============================================================
void i2c::write(unsigned char data)
{
	TWDR = data;
     1ac:	60 93 bb 00 	sts	0x00BB, r22
	TWCR = (1<< TWINT) | (1<<TWEN);
     1b0:	84 e8       	ldi	r24, 0x84	; 132
     1b2:	80 93 bc 00 	sts	0x00BC, r24
	while (!(TWCR & (1<<TWINT)));
     1b6:	ec eb       	ldi	r30, 0xBC	; 188
     1b8:	f0 e0       	ldi	r31, 0x00	; 0
     1ba:	80 81       	ld	r24, Z
     1bc:	88 23       	and	r24, r24
     1be:	ec f7       	brge	.-6      	; 0x1ba <_ZN3i2c5writeEh+0xe>
	
};
     1c0:	08 95       	ret

000001c2 <_ZN3i2c4readEb>:
// DESCR. : reads 1 byte of data from the i2c interface
// and transmits the ack, if it is not the last byte to be read.
//=============================================================
unsigned char i2c::read(bool isLast)
{
	if ( isLast == 0)
     1c2:	66 23       	and	r22, r22
     1c4:	21 f4       	brne	.+8      	; 0x1ce <_ZN3i2c4readEb+0xc>
		TWCR = (1<<TWINT) | (1<<TWEN) | (1<<TWEA);
     1c6:	84 ec       	ldi	r24, 0xC4	; 196
     1c8:	80 93 bc 00 	sts	0x00BC, r24
     1cc:	03 c0       	rjmp	.+6      	; 0x1d4 <_ZN3i2c4readEb+0x12>
	else
		TWCR = (1<<TWINT) | (1<<TWEN);
     1ce:	84 e8       	ldi	r24, 0x84	; 132
     1d0:	80 93 bc 00 	sts	0x00BC, r24
	while ((TWCR & (1 <<TWINT)) == 0);
     1d4:	ec eb       	ldi	r30, 0xBC	; 188
     1d6:	f0 e0       	ldi	r31, 0x00	; 0
     1d8:	80 81       	ld	r24, Z
     1da:	88 23       	and	r24, r24
     1dc:	ec f7       	brge	.-6      	; 0x1d8 <_ZN3i2c4readEb+0x16>
	return TWDR;
     1de:	80 91 bb 00 	lds	r24, 0x00BB
     1e2:	08 95       	ret

000001e4 <main>:
int unitCount;
unsigned char day;


int main()
{
     1e4:	cf 93       	push	r28
     1e6:	df 93       	push	r29
     1e8:	cd b7       	in	r28, 0x3d	; 61
     1ea:	de b7       	in	r29, 0x3e	; 62
     1ec:	c6 50       	subi	r28, 0x06	; 6
     1ee:	d4 40       	sbci	r29, 0x04	; 4
     1f0:	0f b6       	in	r0, 0x3f	; 63
     1f2:	f8 94       	cli
     1f4:	de bf       	out	0x3e, r29	; 62
     1f6:	0f be       	out	0x3f, r0	; 63
     1f8:	cd bf       	out	0x3d, r28	; 61
	
	sei();
     1fa:	78 94       	sei
	SD_obj.init();
     1fc:	82 e3       	ldi	r24, 0x32	; 50
     1fe:	92 e0       	ldi	r25, 0x02	; 2
     200:	0e 94 70 08 	call	0x10e0	; 0x10e0 <_ZN6sdCard4initEv>
	
	//Bruges som test program.
	RTC_obj.setDate(22, 06, 16, 3);
     204:	0f 2e       	mov	r0, r31
     206:	f0 e3       	ldi	r31, 0x30	; 48
     208:	ef 2e       	mov	r14, r31
     20a:	f2 e0       	ldi	r31, 0x02	; 2
     20c:	ff 2e       	mov	r15, r31
     20e:	f0 2d       	mov	r31, r0
     210:	c7 01       	movw	r24, r14
     212:	66 e1       	ldi	r22, 0x16	; 22
     214:	46 e0       	ldi	r20, 0x06	; 6
     216:	20 e1       	ldi	r18, 0x10	; 16
     218:	03 e0       	ldi	r16, 0x03	; 3
     21a:	0e 94 58 06 	call	0xcb0	; 0xcb0 <_ZN3rtc7setDateEhhhh>
	RTC_obj.setTime(12, 00, 00);
     21e:	c7 01       	movw	r24, r14
     220:	6c e0       	ldi	r22, 0x0C	; 12
     222:	40 e0       	ldi	r20, 0x00	; 0
     224:	20 e0       	ldi	r18, 0x00	; 0
     226:	0e 94 9b 06 	call	0xd36	; 0xd36 <_ZN3rtc7setTimeEhhh>
	DDRF = 0xFF;
     22a:	8f ef       	ldi	r24, 0xFF	; 255
     22c:	80 bb       	out	0x10, r24	; 16
		
		
			//If PC is not connected.
			case false:
		
				unsigned char Array[512] = {0x00};
     22e:	9e 01       	movw	r18, r28
     230:	2f 5f       	subi	r18, 0xFF	; 255
     232:	3d 4f       	sbci	r19, 0xFD	; 253
     234:	cf 5f       	subi	r28, 0xFF	; 255
     236:	db 4f       	sbci	r29, 0xFB	; 251
     238:	39 83       	std	Y+1, r19	; 0x01
     23a:	28 83       	st	Y, r18
     23c:	c1 50       	subi	r28, 0x01	; 1
     23e:	d4 40       	sbci	r29, 0x04	; 4
				unsigned char schedule[512] = {0x00};
     240:	ce 01       	movw	r24, r28
     242:	01 96       	adiw	r24, 0x01	; 1
     244:	cd 5f       	subi	r28, 0xFD	; 253
     246:	db 4f       	sbci	r29, 0xFB	; 251
     248:	99 83       	std	Y+1, r25	; 0x01
     24a:	88 83       	st	Y, r24
     24c:	c3 50       	subi	r28, 0x03	; 3
     24e:	d4 40       	sbci	r29, 0x04	; 4
bool handling;
int unitCount;
unsigned char day;


int main()
     250:	0f 2e       	mov	r0, r31
     252:	f1 e0       	ldi	r31, 0x01	; 1
     254:	2f 2e       	mov	r2, r31
     256:	f4 e0       	ldi	r31, 0x04	; 4
     258:	3f 2e       	mov	r3, r31
     25a:	f0 2d       	mov	r31, r0
     25c:	2c 0e       	add	r2, r28
     25e:	3d 1e       	adc	r3, r29
     260:	0f 2e       	mov	r0, r31
     262:	f4 e0       	ldi	r31, 0x04	; 4
     264:	8f 2e       	mov	r8, r31
     266:	f2 e0       	ldi	r31, 0x02	; 2
     268:	9f 2e       	mov	r9, r31
     26a:	f0 2d       	mov	r31, r0
     26c:	8c 0e       	add	r8, r28
     26e:	9d 1e       	adc	r9, r29
				//Search through the array for unitID압 
				for (int i = 0; i <= 511; i++)
				{
					if (Array[i] % 2 != 0)
					{
						handler_obj.getTimeTable(day, Array[i - 1], schedule);
     270:	cb 5f       	subi	r28, 0xFB	; 251
     272:	db 4f       	sbci	r29, 0xFB	; 251
     274:	88 83       	st	Y, r24
     276:	c5 50       	subi	r28, 0x05	; 5
     278:	d4 40       	sbci	r29, 0x04	; 4
     27a:	ca 5f       	subi	r28, 0xFA	; 250
     27c:	db 4f       	sbci	r29, 0xFB	; 251
     27e:	98 83       	st	Y, r25
     280:	c6 50       	subi	r28, 0x06	; 6
     282:	d4 40       	sbci	r29, 0x04	; 4
					
						
						for (int j = 5; j<= 511; j += 4)
						{
							if (schedule[j] == RTC_obj.getHours())
     284:	de 2c       	mov	r13, r14
     286:	cf 2c       	mov	r12, r15
	
	while (1)
	{

		//State-Machine implementation
		switch (PCIF_obj.PCconnectionStatus)
     288:	e4 e0       	ldi	r30, 0x04	; 4
     28a:	f2 e0       	ldi	r31, 0x02	; 2
     28c:	80 81       	ld	r24, Z
     28e:	81 30       	cpi	r24, 0x01	; 1
     290:	21 f4       	brne	.+8      	; 0x29a <main+0xb6>
		{
		
			//If PC is connected.
			case true:
				PCIF_obj.returnStatus();
     292:	cf 01       	movw	r24, r30
     294:	0e 94 eb 05 	call	0xbd6	; 0xbd6 <_ZN11PCinterface12returnStatusEv>
				break;
     298:	f7 cf       	rjmp	.-18     	; 0x288 <main+0xa4>
		
		
			//If PC is not connected.
			case false:
		
				unsigned char Array[512] = {0x00};
     29a:	80 e0       	ldi	r24, 0x00	; 0
     29c:	92 e0       	ldi	r25, 0x02	; 2
     29e:	cf 5f       	subi	r28, 0xFF	; 255
     2a0:	db 4f       	sbci	r29, 0xFB	; 251
     2a2:	e8 81       	ld	r30, Y
     2a4:	f9 81       	ldd	r31, Y+1	; 0x01
     2a6:	c1 50       	subi	r28, 0x01	; 1
     2a8:	d4 40       	sbci	r29, 0x04	; 4
     2aa:	9c 01       	movw	r18, r24
     2ac:	11 92       	st	Z+, r1
     2ae:	21 50       	subi	r18, 0x01	; 1
     2b0:	30 40       	sbci	r19, 0x00	; 0
     2b2:	e1 f7       	brne	.-8      	; 0x2ac <main+0xc8>
				unsigned char schedule[512] = {0x00};
     2b4:	cd 5f       	subi	r28, 0xFD	; 253
     2b6:	db 4f       	sbci	r29, 0xFB	; 251
     2b8:	e8 81       	ld	r30, Y
     2ba:	f9 81       	ldd	r31, Y+1	; 0x01
     2bc:	c3 50       	subi	r28, 0x03	; 3
     2be:	d4 40       	sbci	r29, 0x04	; 4
     2c0:	9c 01       	movw	r18, r24
     2c2:	11 92       	st	Z+, r1
     2c4:	21 50       	subi	r18, 0x01	; 1
     2c6:	30 40       	sbci	r19, 0x00	; 0
     2c8:	e1 f7       	brne	.-8      	; 0x2c2 <main+0xde>
		
				unitCount = handler_obj.getUnitCount();
     2ca:	8d e2       	ldi	r24, 0x2D	; 45
     2cc:	92 e0       	ldi	r25, 0x02	; 2
     2ce:	0e 94 79 13 	call	0x26f2	; 0x26f2 <_ZN11UnitHandler12getUnitCountEv>
     2d2:	80 93 01 02 	sts	0x0201, r24
     2d6:	10 92 02 02 	sts	0x0202, r1
				day = RTC_obj.getDayOfWeek();
     2da:	80 e3       	ldi	r24, 0x30	; 48
     2dc:	92 e0       	ldi	r25, 0x02	; 2
     2de:	0e 94 21 06 	call	0xc42	; 0xc42 <_ZN3rtc12getDayOfWeekEv>
     2e2:	80 93 00 02 	sts	0x0200, r24
			
				
				//Get list of units
				handler_obj.getUnitList(Array);
     2e6:	8d e2       	ldi	r24, 0x2D	; 45
     2e8:	92 e0       	ldi	r25, 0x02	; 2
     2ea:	be 01       	movw	r22, r28
     2ec:	6f 5f       	subi	r22, 0xFF	; 255
     2ee:	7d 4f       	sbci	r23, 0xFD	; 253
     2f0:	0e 94 2b 0c 	call	0x1856	; 0x1856 <_ZN11UnitHandler11getUnitListEPh>
     2f4:	0f 2e       	mov	r0, r31
     2f6:	f1 e0       	ldi	r31, 0x01	; 1
     2f8:	6f 2e       	mov	r6, r31
     2fa:	f2 e0       	ldi	r31, 0x02	; 2
     2fc:	7f 2e       	mov	r7, r31
     2fe:	f0 2d       	mov	r31, r0
     300:	6c 0e       	add	r6, r28
     302:	7d 1e       	adc	r7, r29
							
							
									//Bruges til test...
									if (handling == true)
									{
										PORTF = 0xFF;
     304:	44 24       	eor	r4, r4
     306:	4a 94       	dec	r4
							{
							
								if (schedule[j + 1] == RTC_obj.getMinuts())
								{
							
									handling = schedule[j+2];
     308:	55 24       	eor	r5, r5
     30a:	53 94       	inc	r5
				handler_obj.getUnitList(Array);
			
				//Search through the array for unitID압 
				for (int i = 0; i <= 511; i++)
				{
					if (Array[i] % 2 != 0)
     30c:	f3 01       	movw	r30, r6
     30e:	81 91       	ld	r24, Z+
     310:	3f 01       	movw	r6, r30
     312:	80 ff       	sbrs	r24, 0
     314:	42 c0       	rjmp	.+132    	; 0x39a <main+0x1b6>
bool handling;
int unitCount;
unsigned char day;


int main()
     316:	32 97       	sbiw	r30, 0x02	; 2
				//Search through the array for unitID압 
				for (int i = 0; i <= 511; i++)
				{
					if (Array[i] % 2 != 0)
					{
						handler_obj.getTimeTable(day, Array[i - 1], schedule);
     318:	8d e2       	ldi	r24, 0x2D	; 45
     31a:	92 e0       	ldi	r25, 0x02	; 2
     31c:	60 91 00 02 	lds	r22, 0x0200
     320:	40 81       	ld	r20, Z
     322:	cb 5f       	subi	r28, 0xFB	; 251
     324:	db 4f       	sbci	r29, 0xFB	; 251
     326:	28 81       	ld	r18, Y
     328:	c5 50       	subi	r28, 0x05	; 5
     32a:	d4 40       	sbci	r29, 0x04	; 4
     32c:	ca 5f       	subi	r28, 0xFA	; 250
     32e:	db 4f       	sbci	r29, 0xFB	; 251
     330:	38 81       	ld	r19, Y
     332:	c6 50       	subi	r28, 0x06	; 6
     334:	d4 40       	sbci	r29, 0x04	; 4
     336:	0e 94 e2 11 	call	0x23c4	; 0x23c4 <_ZN11UnitHandler12getTimeTableEhhPh>
     33a:	ee 24       	eor	r14, r14
     33c:	ff 24       	eor	r15, r15
     33e:	68 94       	set
     340:	e3 f8       	bld	r14, 3
     342:	ec 0e       	add	r14, r28
     344:	fd 1e       	adc	r15, r29
bool handling;
int unitCount;
unsigned char day;


int main()
     346:	f7 01       	movw	r30, r14
     348:	32 97       	sbiw	r30, 0x02	; 2
						handler_obj.getTimeTable(day, Array[i - 1], schedule);
					
						
						for (int j = 5; j<= 511; j += 4)
						{
							if (schedule[j] == RTC_obj.getHours())
     34a:	00 81       	ld	r16, Z
     34c:	10 e0       	ldi	r17, 0x00	; 0
     34e:	8d 2d       	mov	r24, r13
     350:	9c 2d       	mov	r25, r12
     352:	0e 94 e6 07 	call	0xfcc	; 0xfcc <_ZN3rtc8getHoursEv>
     356:	08 17       	cp	r16, r24
     358:	19 07       	cpc	r17, r25
     35a:	c1 f4       	brne	.+48     	; 0x38c <main+0x1a8>
bool handling;
int unitCount;
unsigned char day;


int main()
     35c:	f7 01       	movw	r30, r14
     35e:	31 97       	sbiw	r30, 0x01	; 1
						for (int j = 5; j<= 511; j += 4)
						{
							if (schedule[j] == RTC_obj.getHours())
							{
							
								if (schedule[j + 1] == RTC_obj.getMinuts())
     360:	00 81       	ld	r16, Z
     362:	10 e0       	ldi	r17, 0x00	; 0
     364:	8d 2d       	mov	r24, r13
     366:	9c 2d       	mov	r25, r12
     368:	0e 94 b3 07 	call	0xf66	; 0xf66 <_ZN3rtc9getMinutsEv>
     36c:	08 17       	cp	r16, r24
     36e:	19 07       	cpc	r17, r25
     370:	69 f4       	brne	.+26     	; 0x38c <main+0x1a8>
								{
							
									handling = schedule[j+2];
     372:	85 2d       	mov	r24, r5
     374:	f7 01       	movw	r30, r14
     376:	90 81       	ld	r25, Z
     378:	99 23       	and	r25, r25
     37a:	09 f4       	brne	.+2      	; 0x37e <main+0x19a>
     37c:	80 e0       	ldi	r24, 0x00	; 0
     37e:	80 93 03 02 	sts	0x0203, r24
									
							
							
							
									//Bruges til test...
									if (handling == true)
     382:	88 23       	and	r24, r24
     384:	11 f0       	breq	.+4      	; 0x38a <main+0x1a6>
									{
										PORTF = 0xFF;
     386:	41 ba       	out	0x11, r4	; 17
     388:	01 c0       	rjmp	.+2      	; 0x38c <main+0x1a8>
									}
									else
									{
										PORTF = 0x00;
     38a:	11 ba       	out	0x11, r1	; 17
     38c:	24 e0       	ldi	r18, 0x04	; 4
     38e:	30 e0       	ldi	r19, 0x00	; 0
     390:	e2 0e       	add	r14, r18
     392:	f3 1e       	adc	r15, r19
					if (Array[i] % 2 != 0)
					{
						handler_obj.getTimeTable(day, Array[i - 1], schedule);
					
						
						for (int j = 5; j<= 511; j += 4)
     394:	e8 14       	cp	r14, r8
     396:	f9 04       	cpc	r15, r9
     398:	b1 f6       	brne	.-84     	; 0x346 <main+0x162>
				
				//Get list of units
				handler_obj.getUnitList(Array);
			
				//Search through the array for unitID압 
				for (int i = 0; i <= 511; i++)
     39a:	62 14       	cp	r6, r2
     39c:	73 04       	cpc	r7, r3
     39e:	09 f0       	breq	.+2      	; 0x3a2 <main+0x1be>
     3a0:	b5 cf       	rjmp	.-150    	; 0x30c <main+0x128>
     3a2:	72 cf       	rjmp	.-284    	; 0x288 <main+0xa4>

000003a4 <__vector_25>:




ISR (USART0_RX_vect) // interrupt based uart
{
     3a4:	1f 92       	push	r1
     3a6:	0f 92       	push	r0
     3a8:	0f b6       	in	r0, 0x3f	; 63
     3aa:	0f 92       	push	r0
     3ac:	0b b6       	in	r0, 0x3b	; 59
     3ae:	0f 92       	push	r0
     3b0:	11 24       	eor	r1, r1
     3b2:	2f 93       	push	r18
     3b4:	3f 93       	push	r19
     3b6:	4f 93       	push	r20
     3b8:	5f 93       	push	r21
     3ba:	6f 93       	push	r22
     3bc:	7f 93       	push	r23
     3be:	8f 93       	push	r24
     3c0:	9f 93       	push	r25
     3c2:	af 93       	push	r26
     3c4:	bf 93       	push	r27
     3c6:	ef 93       	push	r30
     3c8:	ff 93       	push	r31
	PCIF_obj.handleCMD();
     3ca:	84 e0       	ldi	r24, 0x04	; 4
     3cc:	92 e0       	ldi	r25, 0x02	; 2
     3ce:	0e 94 af 03 	call	0x75e	; 0x75e <_ZN11PCinterface9handleCMDEv>
	sei();
     3d2:	78 94       	sei
}
     3d4:	ff 91       	pop	r31
     3d6:	ef 91       	pop	r30
     3d8:	bf 91       	pop	r27
     3da:	af 91       	pop	r26
     3dc:	9f 91       	pop	r25
     3de:	8f 91       	pop	r24
     3e0:	7f 91       	pop	r23
     3e2:	6f 91       	pop	r22
     3e4:	5f 91       	pop	r21
     3e6:	4f 91       	pop	r20
     3e8:	3f 91       	pop	r19
     3ea:	2f 91       	pop	r18
     3ec:	0f 90       	pop	r0
     3ee:	0b be       	out	0x3b, r0	; 59
     3f0:	0f 90       	pop	r0
     3f2:	0f be       	out	0x3f, r0	; 63
     3f4:	0f 90       	pop	r0
     3f6:	1f 90       	pop	r1
     3f8:	18 95       	reti

000003fa <__vector_3>:

// interrupts used by x10.h
ISR(INT2_vect) // used for X10.h
{
     3fa:	1f 92       	push	r1
     3fc:	0f 92       	push	r0
     3fe:	0f b6       	in	r0, 0x3f	; 63
     400:	0f 92       	push	r0
     402:	0b b6       	in	r0, 0x3b	; 59
     404:	0f 92       	push	r0
     406:	11 24       	eor	r1, r1
     408:	2f 93       	push	r18
     40a:	3f 93       	push	r19
     40c:	4f 93       	push	r20
     40e:	5f 93       	push	r21
     410:	6f 93       	push	r22
     412:	7f 93       	push	r23
     414:	8f 93       	push	r24
     416:	9f 93       	push	r25
     418:	af 93       	push	r26
     41a:	bf 93       	push	r27
     41c:	ef 93       	push	r30
     41e:	ff 93       	push	r31
	X10_obj.reciveSendHighInterupt();
     420:	82 e1       	ldi	r24, 0x12	; 18
     422:	92 e0       	ldi	r25, 0x02	; 2
     424:	0e 94 c4 14 	call	0x2988	; 0x2988 <_ZN3X1022reciveSendHighInteruptEv>
	sei();
     428:	78 94       	sei
}
     42a:	ff 91       	pop	r31
     42c:	ef 91       	pop	r30
     42e:	bf 91       	pop	r27
     430:	af 91       	pop	r26
     432:	9f 91       	pop	r25
     434:	8f 91       	pop	r24
     436:	7f 91       	pop	r23
     438:	6f 91       	pop	r22
     43a:	5f 91       	pop	r21
     43c:	4f 91       	pop	r20
     43e:	3f 91       	pop	r19
     440:	2f 91       	pop	r18
     442:	0f 90       	pop	r0
     444:	0b be       	out	0x3b, r0	; 59
     446:	0f 90       	pop	r0
     448:	0f be       	out	0x3f, r0	; 63
     44a:	0f 90       	pop	r0
     44c:	1f 90       	pop	r1
     44e:	18 95       	reti

00000450 <__vector_4>:
ISR(INT3_vect) // used for x10.h
{
     450:	1f 92       	push	r1
     452:	0f 92       	push	r0
     454:	0f b6       	in	r0, 0x3f	; 63
     456:	0f 92       	push	r0
     458:	0b b6       	in	r0, 0x3b	; 59
     45a:	0f 92       	push	r0
     45c:	11 24       	eor	r1, r1
     45e:	2f 93       	push	r18
     460:	3f 93       	push	r19
     462:	4f 93       	push	r20
     464:	5f 93       	push	r21
     466:	6f 93       	push	r22
     468:	7f 93       	push	r23
     46a:	8f 93       	push	r24
     46c:	9f 93       	push	r25
     46e:	af 93       	push	r26
     470:	bf 93       	push	r27
     472:	ef 93       	push	r30
     474:	ff 93       	push	r31
	X10_obj.reciveSendLowInterupt();
     476:	82 e1       	ldi	r24, 0x12	; 18
     478:	92 e0       	ldi	r25, 0x02	; 2
     47a:	0e 94 de 14 	call	0x29bc	; 0x29bc <_ZN3X1021reciveSendLowInteruptEv>
	sei();
     47e:	78 94       	sei
}
     480:	ff 91       	pop	r31
     482:	ef 91       	pop	r30
     484:	bf 91       	pop	r27
     486:	af 91       	pop	r26
     488:	9f 91       	pop	r25
     48a:	8f 91       	pop	r24
     48c:	7f 91       	pop	r23
     48e:	6f 91       	pop	r22
     490:	5f 91       	pop	r21
     492:	4f 91       	pop	r20
     494:	3f 91       	pop	r19
     496:	2f 91       	pop	r18
     498:	0f 90       	pop	r0
     49a:	0b be       	out	0x3b, r0	; 59
     49c:	0f 90       	pop	r0
     49e:	0f be       	out	0x3f, r0	; 63
     4a0:	0f 90       	pop	r0
     4a2:	1f 90       	pop	r1
     4a4:	18 95       	reti

000004a6 <__vector_23>:
ISR(TIMER0_OVF_vect)
{
     4a6:	1f 92       	push	r1
     4a8:	0f 92       	push	r0
     4aa:	0f b6       	in	r0, 0x3f	; 63
     4ac:	0f 92       	push	r0
     4ae:	0b b6       	in	r0, 0x3b	; 59
     4b0:	0f 92       	push	r0
     4b2:	11 24       	eor	r1, r1
     4b4:	2f 93       	push	r18
     4b6:	3f 93       	push	r19
     4b8:	4f 93       	push	r20
     4ba:	5f 93       	push	r21
     4bc:	6f 93       	push	r22
     4be:	7f 93       	push	r23
     4c0:	8f 93       	push	r24
     4c2:	9f 93       	push	r25
     4c4:	af 93       	push	r26
     4c6:	bf 93       	push	r27
     4c8:	ef 93       	push	r30
     4ca:	ff 93       	push	r31
	X10_obj.stop120Interupt();
     4cc:	82 e1       	ldi	r24, 0x12	; 18
     4ce:	92 e0       	ldi	r25, 0x02	; 2
     4d0:	0e 94 f8 14 	call	0x29f0	; 0x29f0 <_ZN3X1015stop120InteruptEv>
	sei();
     4d4:	78 94       	sei
}
     4d6:	ff 91       	pop	r31
     4d8:	ef 91       	pop	r30
     4da:	bf 91       	pop	r27
     4dc:	af 91       	pop	r26
     4de:	9f 91       	pop	r25
     4e0:	8f 91       	pop	r24
     4e2:	7f 91       	pop	r23
     4e4:	6f 91       	pop	r22
     4e6:	5f 91       	pop	r21
     4e8:	4f 91       	pop	r20
     4ea:	3f 91       	pop	r19
     4ec:	2f 91       	pop	r18
     4ee:	0f 90       	pop	r0
     4f0:	0b be       	out	0x3b, r0	; 59
     4f2:	0f 90       	pop	r0
     4f4:	0f be       	out	0x3f, r0	; 63
     4f6:	0f 90       	pop	r0
     4f8:	1f 90       	pop	r1
     4fa:	18 95       	reti

000004fc <__vector_35>:
ISR(TIMER3_OVF_vect)
{
     4fc:	1f 92       	push	r1
     4fe:	0f 92       	push	r0
     500:	0f b6       	in	r0, 0x3f	; 63
     502:	0f 92       	push	r0
     504:	0b b6       	in	r0, 0x3b	; 59
     506:	0f 92       	push	r0
     508:	11 24       	eor	r1, r1
     50a:	2f 93       	push	r18
     50c:	3f 93       	push	r19
     50e:	4f 93       	push	r20
     510:	5f 93       	push	r21
     512:	6f 93       	push	r22
     514:	7f 93       	push	r23
     516:	8f 93       	push	r24
     518:	9f 93       	push	r25
     51a:	af 93       	push	r26
     51c:	bf 93       	push	r27
     51e:	ef 93       	push	r30
     520:	ff 93       	push	r31
	X10_obj.resetReciverInterupt();
     522:	82 e1       	ldi	r24, 0x12	; 18
     524:	92 e0       	ldi	r25, 0x02	; 2
     526:	0e 94 fc 14 	call	0x29f8	; 0x29f8 <_ZN3X1020resetReciverInteruptEv>
	sei();
     52a:	78 94       	sei
}
     52c:	ff 91       	pop	r31
     52e:	ef 91       	pop	r30
     530:	bf 91       	pop	r27
     532:	af 91       	pop	r26
     534:	9f 91       	pop	r25
     536:	8f 91       	pop	r24
     538:	7f 91       	pop	r23
     53a:	6f 91       	pop	r22
     53c:	5f 91       	pop	r21
     53e:	4f 91       	pop	r20
     540:	3f 91       	pop	r19
     542:	2f 91       	pop	r18
     544:	0f 90       	pop	r0
     546:	0b be       	out	0x3b, r0	; 59
     548:	0f 90       	pop	r0
     54a:	0f be       	out	0x3f, r0	; 63
     54c:	0f 90       	pop	r0
     54e:	1f 90       	pop	r1
     550:	18 95       	reti

00000552 <__vector_15>:
ISR(TIMER2_OVF_vect)
{
     552:	1f 92       	push	r1
     554:	0f 92       	push	r0
     556:	0f b6       	in	r0, 0x3f	; 63
     558:	0f 92       	push	r0
     55a:	0b b6       	in	r0, 0x3b	; 59
     55c:	0f 92       	push	r0
     55e:	11 24       	eor	r1, r1
     560:	2f 93       	push	r18
     562:	3f 93       	push	r19
     564:	4f 93       	push	r20
     566:	5f 93       	push	r21
     568:	6f 93       	push	r22
     56a:	7f 93       	push	r23
     56c:	8f 93       	push	r24
     56e:	9f 93       	push	r25
     570:	af 93       	push	r26
     572:	bf 93       	push	r27
     574:	ef 93       	push	r30
     576:	ff 93       	push	r31
	X10_obj.inputCompleteInterupt();
     578:	82 e1       	ldi	r24, 0x12	; 18
     57a:	92 e0       	ldi	r25, 0x02	; 2
     57c:	0e 94 01 15 	call	0x2a02	; 0x2a02 <_ZN3X1021inputCompleteInteruptEv>
	sei();
     580:	78 94       	sei
}
     582:	ff 91       	pop	r31
     584:	ef 91       	pop	r30
     586:	bf 91       	pop	r27
     588:	af 91       	pop	r26
     58a:	9f 91       	pop	r25
     58c:	8f 91       	pop	r24
     58e:	7f 91       	pop	r23
     590:	6f 91       	pop	r22
     592:	5f 91       	pop	r21
     594:	4f 91       	pop	r20
     596:	3f 91       	pop	r19
     598:	2f 91       	pop	r18
     59a:	0f 90       	pop	r0
     59c:	0b be       	out	0x3b, r0	; 59
     59e:	0f 90       	pop	r0
     5a0:	0f be       	out	0x3f, r0	; 63
     5a2:	0f 90       	pop	r0
     5a4:	1f 90       	pop	r1
     5a6:	18 95       	reti

000005a8 <_GLOBAL__sub_I_uart_obj>:
     5a8:	cf 92       	push	r12
     5aa:	df 92       	push	r13
     5ac:	ef 92       	push	r14
     5ae:	ff 92       	push	r15
     5b0:	0f 93       	push	r16
     5b2:	1f 93       	push	r17
     5b4:	cf 93       	push	r28
     5b6:	df 93       	push	r29
#include "PCinterface/PCinterface.h"
#include "RTC/rtc.h"
#include "X10/X10.h"


UART uart_obj(57600, 8, 'E');
     5b8:	0f 2e       	mov	r0, r31
     5ba:	f5 e3       	ldi	r31, 0x35	; 53
     5bc:	cf 2e       	mov	r12, r31
     5be:	f2 e0       	ldi	r31, 0x02	; 2
     5c0:	df 2e       	mov	r13, r31
     5c2:	f0 2d       	mov	r31, r0
     5c4:	c6 01       	movw	r24, r12
     5c6:	40 e0       	ldi	r20, 0x00	; 0
     5c8:	51 ee       	ldi	r21, 0xE1	; 225
     5ca:	60 e0       	ldi	r22, 0x00	; 0
     5cc:	70 e0       	ldi	r23, 0x00	; 0
     5ce:	28 e0       	ldi	r18, 0x08	; 8
     5d0:	05 e4       	ldi	r16, 0x45	; 69
     5d2:	0e 94 84 0b 	call	0x1708	; 0x1708 <_ZN4UARTC1Emhc>
sdCard SD_obj(4000);
     5d6:	02 e3       	ldi	r16, 0x32	; 50
     5d8:	12 e0       	ldi	r17, 0x02	; 2
     5da:	c8 01       	movw	r24, r16
     5dc:	60 ea       	ldi	r22, 0xA0	; 160
     5de:	7f e0       	ldi	r23, 0x0F	; 15
     5e0:	0e 94 1b 08 	call	0x1036	; 0x1036 <_ZN6sdCardC1Ei>
rtc RTC_obj(0xD0, 400);
     5e4:	0f 2e       	mov	r0, r31
     5e6:	f0 e3       	ldi	r31, 0x30	; 48
     5e8:	ef 2e       	mov	r14, r31
     5ea:	f2 e0       	ldi	r31, 0x02	; 2
     5ec:	ff 2e       	mov	r15, r31
     5ee:	f0 2d       	mov	r31, r0
     5f0:	c7 01       	movw	r24, r14
     5f2:	60 ed       	ldi	r22, 0xD0	; 208
     5f4:	40 e9       	ldi	r20, 0x90	; 144
     5f6:	51 e0       	ldi	r21, 0x01	; 1
     5f8:	0e 94 13 06 	call	0xc26	; 0xc26 <_ZN3rtcC1Ehi>
UnitHandler handler_obj(&SD_obj);
     5fc:	cd e2       	ldi	r28, 0x2D	; 45
     5fe:	d2 e0       	ldi	r29, 0x02	; 2
     600:	ce 01       	movw	r24, r28
     602:	b8 01       	movw	r22, r16
     604:	0e 94 26 0c 	call	0x184c	; 0x184c <_ZN11UnitHandlerC1EP6sdCard>
X10 X10_obj(0x00, 0x00);
     608:	02 e1       	ldi	r16, 0x12	; 18
     60a:	12 e0       	ldi	r17, 0x02	; 2
     60c:	c8 01       	movw	r24, r16
     60e:	60 e0       	ldi	r22, 0x00	; 0
     610:	40 e0       	ldi	r20, 0x00	; 0
     612:	0e 94 7c 13 	call	0x26f8	; 0x26f8 <_ZN3X10C1Ehh>
PCinterface PCIF_obj(&handler_obj ,&uart_obj, &RTC_obj, &X10_obj);
     616:	84 e0       	ldi	r24, 0x04	; 4
     618:	92 e0       	ldi	r25, 0x02	; 2
     61a:	be 01       	movw	r22, r28
     61c:	a6 01       	movw	r20, r12
     61e:	97 01       	movw	r18, r14
     620:	0e 94 1b 03 	call	0x636	; 0x636 <_ZN11PCinterfaceC1EP11UnitHandlerP4UARTP3rtcP3X10>
}
ISR(TIMER2_OVF_vect)
{
	X10_obj.inputCompleteInterupt();
	sei();
}
     624:	df 91       	pop	r29
     626:	cf 91       	pop	r28
     628:	1f 91       	pop	r17
     62a:	0f 91       	pop	r16
     62c:	ff 90       	pop	r15
     62e:	ef 90       	pop	r14
     630:	df 90       	pop	r13
     632:	cf 90       	pop	r12
     634:	08 95       	ret

00000636 <_ZN11PCinterfaceC1EP11UnitHandlerP4UARTP3rtcP3X10>:
//=============================================================
// METHOD : PCinterface
// DESCR. : constructor, initalizes the pc interface, takes 3 object pointers 
// to the drivers needed.
//=============================================================
 PCinterface::PCinterface( UnitHandler *Handler_obj, UART *uart_obj, rtc *rtc_obj, X10 *x10_obj )
     636:	0f 93       	push	r16
     638:	1f 93       	push	r17
     63a:	fc 01       	movw	r30, r24
{
	uartPointer = uart_obj;
     63c:	56 83       	std	Z+6, r21	; 0x06
     63e:	45 83       	std	Z+5, r20	; 0x05
	rtc_obj_pointer = rtc_obj;
     640:	32 83       	std	Z+2, r19	; 0x02
     642:	21 83       	std	Z+1, r18	; 0x01
	UnitHandlerPointer = Handler_obj;
     644:	74 83       	std	Z+4, r23	; 0x04
     646:	63 83       	std	Z+3, r22	; 0x03
	x10Pointer = x10_obj;
     648:	10 87       	std	Z+8, r17	; 0x08
     64a:	07 83       	std	Z+7, r16	; 0x07
	unitsSent = 0;
     64c:	15 86       	std	Z+13, r1	; 0x0d
	nextunit = 0;
     64e:	14 86       	std	Z+12, r1	; 0x0c
}
     650:	1f 91       	pop	r17
     652:	0f 91       	pop	r16
     654:	08 95       	ret

00000656 <_ZN11PCinterface7isStartEPh>:
//=============================================================
// METHOD : isStart
// DESCR. : tests for the start command on the uart connection
//=============================================================
bool PCinterface::isStart( unsigned char bytes[] )
{
     656:	0f 93       	push	r16
     658:	1f 93       	push	r17
     65a:	cf 93       	push	r28
     65c:	df 93       	push	r29
     65e:	ec 01       	movw	r28, r24
     660:	8b 01       	movw	r16, r22
	bytes[0] = uartPointer->readChar();
     662:	8d 81       	ldd	r24, Y+5	; 0x05
     664:	9e 81       	ldd	r25, Y+6	; 0x06
     666:	0e 94 db 0b 	call	0x17b6	; 0x17b6 <_ZN4UART8readCharEv>
     66a:	f8 01       	movw	r30, r16
     66c:	80 83       	st	Z, r24
	bytes[1] = uartPointer->readChar();
     66e:	8d 81       	ldd	r24, Y+5	; 0x05
     670:	9e 81       	ldd	r25, Y+6	; 0x06
     672:	0e 94 db 0b 	call	0x17b6	; 0x17b6 <_ZN4UART8readCharEv>
     676:	f8 01       	movw	r30, r16
     678:	81 83       	std	Z+1, r24	; 0x01
	
	if (bytes[0] == 0xF0 && bytes[1] == 0xF0){
     67a:	90 81       	ld	r25, Z
     67c:	90 3f       	cpi	r25, 0xF0	; 240
     67e:	29 f4       	brne	.+10     	; 0x68a <_ZN11PCinterface7isStartEPh+0x34>

//=============================================================
// METHOD : isStart
// DESCR. : tests for the start command on the uart connection
//=============================================================
bool PCinterface::isStart( unsigned char bytes[] )
     680:	91 e0       	ldi	r25, 0x01	; 1
     682:	80 3f       	cpi	r24, 0xF0	; 240
     684:	19 f0       	breq	.+6      	; 0x68c <_ZN11PCinterface7isStartEPh+0x36>
     686:	90 e0       	ldi	r25, 0x00	; 0
     688:	01 c0       	rjmp	.+2      	; 0x68c <_ZN11PCinterface7isStartEPh+0x36>
	if (bytes[0] == 0xF0 && bytes[1] == 0xF0){
		return true;
	} 
	else
	{
		return false;
     68a:	90 e0       	ldi	r25, 0x00	; 0
	}
}
     68c:	89 2f       	mov	r24, r25
     68e:	df 91       	pop	r29
     690:	cf 91       	pop	r28
     692:	1f 91       	pop	r17
     694:	0f 91       	pop	r16
     696:	08 95       	ret

00000698 <_ZN11PCinterface6getCmdEPh>:
// METHOD : getCmd
// DESCR. : gets the command recieved from the PC and returns it.
//=============================================================

unsigned char PCinterface::getCmd(unsigned char bytes[2])
{
     698:	cf 93       	push	r28
     69a:	df 93       	push	r29
     69c:	ec 01       	movw	r28, r24
	
	if(isStart(bytes))
     69e:	0e 94 2b 03 	call	0x656	; 0x656 <_ZN11PCinterface7isStartEPh>
     6a2:	88 23       	and	r24, r24
     6a4:	49 f0       	breq	.+18     	; 0x6b8 <_ZN11PCinterface6getCmdEPh+0x20>
	{
		unsigned char cmd = uartPointer->readChar();
     6a6:	8d 81       	ldd	r24, Y+5	; 0x05
     6a8:	9e 81       	ldd	r25, Y+6	; 0x06
     6aa:	0e 94 db 0b 	call	0x17b6	; 0x17b6 <_ZN4UART8readCharEv>
		if(cmd > 0 && cmd < 0x0B){
     6ae:	98 2f       	mov	r25, r24
     6b0:	91 50       	subi	r25, 0x01	; 1
     6b2:	9a 30       	cpi	r25, 0x0A	; 10
     6b4:	18 f0       	brcs	.+6      	; 0x6bc <_ZN11PCinterface6getCmdEPh+0x24>
     6b6:	01 c0       	rjmp	.+2      	; 0x6ba <_ZN11PCinterface6getCmdEPh+0x22>
     6b8:	01 c0       	rjmp	.+2      	; 0x6bc <_ZN11PCinterface6getCmdEPh+0x24>
			//uartPointer->sendChar(0x0F);
		} 
		else
		{
			return 0;
     6ba:	80 e0       	ldi	r24, 0x00	; 0
		}
		return cmd;
	}
}
     6bc:	df 91       	pop	r29
     6be:	cf 91       	pop	r28
     6c0:	08 95       	ret

000006c2 <_ZN11PCinterface7getDataEPh>:
// DESCR. : recieves data on UART following a commmand, fills it
// into the array recieved and returns the
// number of data bytes added to the array.
//=============================================================
unsigned int PCinterface::getData( unsigned char data[] ) // array must be 512 bytes.
{
     6c2:	bf 92       	push	r11
     6c4:	cf 92       	push	r12
     6c6:	df 92       	push	r13
     6c8:	ef 92       	push	r14
     6ca:	ff 92       	push	r15
     6cc:	0f 93       	push	r16
     6ce:	1f 93       	push	r17
     6d0:	cf 93       	push	r28
     6d2:	df 93       	push	r29
     6d4:	6c 01       	movw	r12, r24
     6d6:	7b 01       	movw	r14, r22
	for (int i = 0; i < 512; i++){
     6d8:	fb 01       	movw	r30, r22
     6da:	80 e0       	ldi	r24, 0x00	; 0
     6dc:	90 e0       	ldi	r25, 0x00	; 0
		data[i] = 0x00;
     6de:	11 92       	st	Z+, r1
// into the array recieved and returns the
// number of data bytes added to the array.
//=============================================================
unsigned int PCinterface::getData( unsigned char data[] ) // array must be 512 bytes.
{
	for (int i = 0; i < 512; i++){
     6e0:	01 96       	adiw	r24, 0x01	; 1
     6e2:	22 e0       	ldi	r18, 0x02	; 2
     6e4:	80 30       	cpi	r24, 0x00	; 0
     6e6:	92 07       	cpc	r25, r18
     6e8:	d1 f7       	brne	.-12     	; 0x6de <_ZN11PCinterface7getDataEPh+0x1c>
     6ea:	c0 e0       	ldi	r28, 0x00	; 0
     6ec:	d0 e0       	ldi	r29, 0x00	; 0
     6ee:	00 e0       	ldi	r16, 0x00	; 0
     6f0:	10 e0       	ldi	r17, 0x00	; 0
			if(byte2 == 0x0F){
				return databytes;
			} 
			else 
			{
				data[i] = byte;
     6f2:	0f 2e       	mov	r0, r31
     6f4:	ff e0       	ldi	r31, 0x0F	; 15
     6f6:	bf 2e       	mov	r11, r31
     6f8:	f0 2d       	mov	r31, r0
	}
	unsigned int databytes = 0;
	unsigned char byte = 0;
	unsigned char byte2 = 0;
	for( int i = 0; i<512; i++){
		byte = uartPointer->readChar();	
     6fa:	f6 01       	movw	r30, r12
     6fc:	85 81       	ldd	r24, Z+5	; 0x05
     6fe:	96 81       	ldd	r25, Z+6	; 0x06
     700:	0e 94 db 0b 	call	0x17b6	; 0x17b6 <_ZN4UART8readCharEv>
		//uartPointer->sendChar(0x0F); // transmit ACK;
		if(byte == 0x0F)
     704:	8f 30       	cpi	r24, 0x0F	; 15
     706:	b1 f4       	brne	.+44     	; 0x734 <_ZN11PCinterface7getDataEPh+0x72>
		{	
			byte2 = uartPointer->readChar();
     708:	f6 01       	movw	r30, r12
     70a:	85 81       	ldd	r24, Z+5	; 0x05
     70c:	96 81       	ldd	r25, Z+6	; 0x06
     70e:	0e 94 db 0b 	call	0x17b6	; 0x17b6 <_ZN4UART8readCharEv>
			//uartPointer->sendChar(0x0F); // transmit ACK;
			if(byte2 == 0x0F){
     712:	8f 30       	cpi	r24, 0x0F	; 15
     714:	19 f4       	brne	.+6      	; 0x71c <_ZN11PCinterface7getDataEPh+0x5a>
				return databytes;
     716:	80 2f       	mov	r24, r16
     718:	91 2f       	mov	r25, r17
     71a:	17 c0       	rjmp	.+46     	; 0x74a <_ZN11PCinterface7getDataEPh+0x88>
			} 
			else 
			{
				data[i] = byte;
     71c:	f7 01       	movw	r30, r14
     71e:	ec 0f       	add	r30, r28
     720:	fd 1f       	adc	r31, r29
     722:	b0 82       	st	Z, r11
				databytes++;
				i++;
     724:	21 96       	adiw	r28, 0x01	; 1
				data[i] = byte2;
     726:	f7 01       	movw	r30, r14
     728:	ec 0f       	add	r30, r28
     72a:	fd 1f       	adc	r31, r29
     72c:	80 83       	st	Z, r24
				databytes++;
     72e:	0e 5f       	subi	r16, 0xFE	; 254
     730:	1f 4f       	sbci	r17, 0xFF	; 255
     732:	06 c0       	rjmp	.+12     	; 0x740 <_ZN11PCinterface7getDataEPh+0x7e>
			}
		}
		else 
		{
			data[i] = byte;
     734:	f7 01       	movw	r30, r14
     736:	ec 0f       	add	r30, r28
     738:	fd 1f       	adc	r31, r29
     73a:	80 83       	st	Z, r24
			databytes++;
     73c:	0f 5f       	subi	r16, 0xFF	; 255
     73e:	1f 4f       	sbci	r17, 0xFF	; 255
		data[i] = 0x00;
	}
	unsigned int databytes = 0;
	unsigned char byte = 0;
	unsigned char byte2 = 0;
	for( int i = 0; i<512; i++){
     740:	21 96       	adiw	r28, 0x01	; 1
     742:	f2 e0       	ldi	r31, 0x02	; 2
     744:	c0 30       	cpi	r28, 0x00	; 0
     746:	df 07       	cpc	r29, r31
     748:	c4 f2       	brlt	.-80     	; 0x6fa <_ZN11PCinterface7getDataEPh+0x38>
		{
			data[i] = byte;
			databytes++;
		}
	}
}
     74a:	df 91       	pop	r29
     74c:	cf 91       	pop	r28
     74e:	1f 91       	pop	r17
     750:	0f 91       	pop	r16
     752:	ff 90       	pop	r15
     754:	ef 90       	pop	r14
     756:	df 90       	pop	r13
     758:	cf 90       	pop	r12
     75a:	bf 90       	pop	r11
     75c:	08 95       	ret

0000075e <_ZN11PCinterface9handleCMDEv>:
//=============================================================
// METHOD : handleCMD
// DESCR. : The function doing all the hard work ;)
//=============================================================
bool PCinterface::handleCMD()
{
     75e:	5f 92       	push	r5
     760:	6f 92       	push	r6
     762:	7f 92       	push	r7
     764:	8f 92       	push	r8
     766:	9f 92       	push	r9
     768:	af 92       	push	r10
     76a:	bf 92       	push	r11
     76c:	cf 92       	push	r12
     76e:	df 92       	push	r13
     770:	ef 92       	push	r14
     772:	ff 92       	push	r15
     774:	0f 93       	push	r16
     776:	1f 93       	push	r17
     778:	cf 93       	push	r28
     77a:	df 93       	push	r29
     77c:	cd b7       	in	r28, 0x3d	; 61
     77e:	de b7       	in	r29, 0x3e	; 62
     780:	c2 50       	subi	r28, 0x02	; 2
     782:	d6 40       	sbci	r29, 0x06	; 6
     784:	0f b6       	in	r0, 0x3f	; 63
     786:	f8 94       	cli
     788:	de bf       	out	0x3e, r29	; 62
     78a:	0f be       	out	0x3f, r0	; 63
     78c:	cd bf       	out	0x3d, r28	; 61
     78e:	6c 01       	movw	r12, r24
	DDRA = 0x00000000;
     790:	11 b8       	out	0x01, r1	; 1
     792:	8e 01       	movw	r16, r28
     794:	0d 5f       	subi	r16, 0xFD	; 253
     796:	1b 4f       	sbci	r17, 0xFB	; 251

//=============================================================
// METHOD : handleCMD
// DESCR. : The function doing all the hard work ;)
//=============================================================
bool PCinterface::handleCMD()
     798:	0f 2e       	mov	r0, r31
     79a:	f3 e0       	ldi	r31, 0x03	; 3
     79c:	ef 2e       	mov	r14, r31
     79e:	f6 e0       	ldi	r31, 0x06	; 6
     7a0:	ff 2e       	mov	r15, r31
     7a2:	f0 2d       	mov	r31, r0
     7a4:	ec 0e       	add	r14, r28
     7a6:	fd 1e       	adc	r15, r29
     7a8:	f8 01       	movw	r30, r16
{
	DDRA = 0x00000000;
	unsigned char datablock[512];
	for ( int i = 0; i<512; i++) {
		datablock[i] = 0x00;
     7aa:	11 92       	st	Z+, r1
//=============================================================
bool PCinterface::handleCMD()
{
	DDRA = 0x00000000;
	unsigned char datablock[512];
	for ( int i = 0; i<512; i++) {
     7ac:	ee 15       	cp	r30, r14
     7ae:	ff 05       	cpc	r31, r15
     7b0:	e1 f7       	brne	.-8      	; 0x7aa <_ZN11PCinterface9handleCMDEv+0x4c>
		datablock[i] = 0x00;
	}
	unsigned char unitListArray[512];
	unsigned char cmdarray[2];
	unsigned char cmd = getCmd(cmdarray);
     7b2:	c6 01       	movw	r24, r12
     7b4:	be 01       	movw	r22, r28
     7b6:	6f 5f       	subi	r22, 0xFF	; 255
     7b8:	7f 4f       	sbci	r23, 0xFF	; 255
     7ba:	0e 94 4c 03 	call	0x698	; 0x698 <_ZN11PCinterface6getCmdEPh>
	unsigned long blockAdress;
	unsigned char unitID = 0x00; // til at gemme unit Id
	unsigned char my_unit_count = 0;
	bool unitstatus = false; // variable for storing unit status
	int numberoffields = 0;
	switch(cmd)
     7be:	86 30       	cpi	r24, 0x06	; 6
     7c0:	09 f4       	brne	.+2      	; 0x7c4 <_ZN11PCinterface9handleCMDEv+0x66>
     7c2:	58 c0       	rjmp	.+176    	; 0x874 <_ZN11PCinterface9handleCMDEv+0x116>
     7c4:	87 30       	cpi	r24, 0x07	; 7
     7c6:	70 f4       	brcc	.+28     	; 0x7e4 <_ZN11PCinterface9handleCMDEv+0x86>
     7c8:	82 30       	cpi	r24, 0x02	; 2
     7ca:	11 f1       	breq	.+68     	; 0x810 <_ZN11PCinterface9handleCMDEv+0xb2>
     7cc:	83 30       	cpi	r24, 0x03	; 3
     7ce:	20 f4       	brcc	.+8      	; 0x7d8 <_ZN11PCinterface9handleCMDEv+0x7a>
     7d0:	81 30       	cpi	r24, 0x01	; 1
     7d2:	09 f0       	breq	.+2      	; 0x7d6 <_ZN11PCinterface9handleCMDEv+0x78>
     7d4:	e9 c1       	rjmp	.+978    	; 0xba8 <_ZN11PCinterface9handleCMDEv+0x44a>
     7d6:	13 c0       	rjmp	.+38     	; 0x7fe <_ZN11PCinterface9handleCMDEv+0xa0>
     7d8:	83 30       	cpi	r24, 0x03	; 3
     7da:	11 f1       	breq	.+68     	; 0x820 <_ZN11PCinterface9handleCMDEv+0xc2>
     7dc:	85 30       	cpi	r24, 0x05	; 5
     7de:	09 f0       	breq	.+2      	; 0x7e2 <_ZN11PCinterface9handleCMDEv+0x84>
     7e0:	e3 c1       	rjmp	.+966    	; 0xba8 <_ZN11PCinterface9handleCMDEv+0x44a>
     7e2:	2e c0       	rjmp	.+92     	; 0x840 <_ZN11PCinterface9handleCMDEv+0xe2>
     7e4:	88 30       	cpi	r24, 0x08	; 8
     7e6:	09 f4       	brne	.+2      	; 0x7ea <_ZN11PCinterface9handleCMDEv+0x8c>
     7e8:	0f c1       	rjmp	.+542    	; 0xa08 <_ZN11PCinterface9handleCMDEv+0x2aa>
     7ea:	88 30       	cpi	r24, 0x08	; 8
     7ec:	08 f4       	brcc	.+2      	; 0x7f0 <_ZN11PCinterface9handleCMDEv+0x92>
     7ee:	d4 c0       	rjmp	.+424    	; 0x998 <_ZN11PCinterface9handleCMDEv+0x23a>
     7f0:	89 30       	cpi	r24, 0x09	; 9
     7f2:	09 f4       	brne	.+2      	; 0x7f6 <_ZN11PCinterface9handleCMDEv+0x98>
     7f4:	3d c1       	rjmp	.+634    	; 0xa70 <_ZN11PCinterface9handleCMDEv+0x312>
     7f6:	8a 30       	cpi	r24, 0x0A	; 10
     7f8:	09 f0       	breq	.+2      	; 0x7fc <_ZN11PCinterface9handleCMDEv+0x9e>
     7fa:	d6 c1       	rjmp	.+940    	; 0xba8 <_ZN11PCinterface9handleCMDEv+0x44a>
     7fc:	77 c1       	rjmp	.+750    	; 0xaec <_ZN11PCinterface9handleCMDEv+0x38e>
	{
		case 1: // PC tilsluttet 0 bytes data;
					// s麓 register i main ( PC bit high)
					PCconnectionStatus = true; // set Connection status flag
     7fe:	81 e0       	ldi	r24, 0x01	; 1
     800:	f6 01       	movw	r30, r12
     802:	80 83       	st	Z, r24
					uartPointer->sendChar(0x0F); // reply to PC
     804:	85 81       	ldd	r24, Z+5	; 0x05
     806:	96 81       	ldd	r25, Z+6	; 0x06
     808:	6f e0       	ldi	r22, 0x0F	; 15
     80a:	0e 94 e3 0b 	call	0x17c6	; 0x17c6 <_ZN4UART8sendCharEc>
					break;
     80e:	cc c1       	rjmp	.+920    	; 0xba8 <_ZN11PCinterface9handleCMDEv+0x44a>
		case 2: // PC frakoblet 0 bytes data;
					// s麓 register i main ( PC bit low)
					PCconnectionStatus = false; // set Connection status flag to false
     810:	f6 01       	movw	r30, r12
     812:	10 82       	st	Z, r1
					uartPointer->sendChar(0x0F); // reply to PC
     814:	85 81       	ldd	r24, Z+5	; 0x05
     816:	96 81       	ldd	r25, Z+6	; 0x06
     818:	6f e0       	ldi	r22, 0x0F	; 15
     81a:	0e 94 e3 0b 	call	0x17c6	; 0x17c6 <_ZN4UART8sendCharEc>
					break;
     81e:	c4 c1       	rjmp	.+904    	; 0xba8 <_ZN11PCinterface9handleCMDEv+0x44a>
		case 3: // tjek kode 0 bytes data;
				// tjek kode pin ( low = korrekt kode) og returner til PC hvad resultatet er.
					if( (PINA & 0b00000001) == 0) { // PORTA 0
     820:	00 99       	sbic	0x00, 0	; 0
     822:	07 c0       	rjmp	.+14     	; 0x832 <_ZN11PCinterface9handleCMDEv+0xd4>
						uartPointer->sendChar(0x01);	
     824:	f6 01       	movw	r30, r12
     826:	85 81       	ldd	r24, Z+5	; 0x05
     828:	96 81       	ldd	r25, Z+6	; 0x06
     82a:	61 e0       	ldi	r22, 0x01	; 1
     82c:	0e 94 e3 0b 	call	0x17c6	; 0x17c6 <_ZN4UART8sendCharEc>
     830:	bb c1       	rjmp	.+886    	; 0xba8 <_ZN11PCinterface9handleCMDEv+0x44a>
					} else {
						uartPointer->sendChar(0x00);
     832:	f6 01       	movw	r30, r12
     834:	85 81       	ldd	r24, Z+5	; 0x05
     836:	96 81       	ldd	r25, Z+6	; 0x06
     838:	60 e0       	ldi	r22, 0x00	; 0
     83a:	0e 94 e3 0b 	call	0x17c6	; 0x17c6 <_ZN4UART8sendCharEc>
     83e:	b4 c1       	rjmp	.+872    	; 0xba8 <_ZN11PCinterface9handleCMDEv+0x44a>
					break;
		case 4: // anmod om fejl log // ej implementeret
					// ignorer
					break;
		case 5: // Anmod om enhedsstatus 1 byte: enhedsadresse;
					if(getData(datablock) == 1){ // try to read a data part of uart communication
     840:	c6 01       	movw	r24, r12
     842:	be 01       	movw	r22, r28
     844:	6d 5f       	subi	r22, 0xFD	; 253
     846:	7b 4f       	sbci	r23, 0xFB	; 251
     848:	0e 94 61 03 	call	0x6c2	; 0x6c2 <_ZN11PCinterface7getDataEPh>
     84c:	81 30       	cpi	r24, 0x01	; 1
     84e:	91 05       	cpc	r25, r1
     850:	51 f4       	brne	.+20     	; 0x866 <_ZN11PCinterface9handleCMDEv+0x108>
						unitAdress = datablock[0];
     852:	cd 5f       	subi	r28, 0xFD	; 253
     854:	db 4f       	sbci	r29, 0xFB	; 251
     856:	88 81       	ld	r24, Y
     858:	c3 50       	subi	r28, 0x03	; 3
     85a:	d4 40       	sbci	r29, 0x04	; 4
     85c:	f6 01       	movw	r30, r12
     85e:	82 87       	std	Z+10, r24	; 0x0a
						needRunGetStatus = true;
     860:	81 e0       	ldi	r24, 0x01	; 1
     862:	81 87       	std	Z+9, r24	; 0x09
     864:	a1 c1       	rjmp	.+834    	; 0xba8 <_ZN11PCinterface9handleCMDEv+0x44a>
					}
					else {
						uartPointer->sendChar(0x00); // in case no data is read. should have some kind of better  error handling here.
     866:	f6 01       	movw	r30, r12
     868:	85 81       	ldd	r24, Z+5	; 0x05
     86a:	96 81       	ldd	r25, Z+6	; 0x06
     86c:	60 e0       	ldi	r22, 0x00	; 0
     86e:	0e 94 e3 0b 	call	0x17c6	; 0x17c6 <_ZN4UART8sendCharEc>
     872:	9a c1       	rjmp	.+820    	; 0xba8 <_ZN11PCinterface9handleCMDEv+0x44a>
					}
					break; // ikke implementeret i pc software endnnu
		case 6:  // Hent Enhed Returner enhedsinfo for n鹿te enhed i r魯ket, start enhed 1.
					//N枓 ikke flere enheder:
					//Err cmd.
					my_unit_count = UnitHandlerPointer->getUnitCount(); // get number of units added to the system.
     874:	f6 01       	movw	r30, r12
     876:	83 81       	ldd	r24, Z+3	; 0x03
     878:	94 81       	ldd	r25, Z+4	; 0x04
     87a:	0e 94 79 13 	call	0x26f2	; 0x26f2 <_ZN11UnitHandler12getUnitCountEv>
					if(my_unit_count == 0) // hvis der ikke er nogen enheder tilf泫et systemet.
     87e:	88 23       	and	r24, r24
     880:	89 f4       	brne	.+34     	; 0x8a4 <_ZN11PCinterface9handleCMDEv+0x146>
					{
						datablock[4] = 0x00; // set to zero since this is what the pc uses to check if theres no units.
     882:	c9 5f       	subi	r28, 0xF9	; 249
     884:	db 4f       	sbci	r29, 0xFB	; 251
     886:	18 82       	st	Y, r1
     888:	c7 50       	subi	r28, 0x07	; 7
     88a:	d4 40       	sbci	r29, 0x04	; 4
						for(int i = 0; i<512; i++)
						{
							
							uartPointer->sendChar(datablock[i]);
     88c:	f8 01       	movw	r30, r16
     88e:	61 91       	ld	r22, Z+
     890:	8f 01       	movw	r16, r30
     892:	f6 01       	movw	r30, r12
     894:	85 81       	ldd	r24, Z+5	; 0x05
     896:	96 81       	ldd	r25, Z+6	; 0x06
     898:	0e 94 e3 0b 	call	0x17c6	; 0x17c6 <_ZN4UART8sendCharEc>
					//Err cmd.
					my_unit_count = UnitHandlerPointer->getUnitCount(); // get number of units added to the system.
					if(my_unit_count == 0) // hvis der ikke er nogen enheder tilf泫et systemet.
					{
						datablock[4] = 0x00; // set to zero since this is what the pc uses to check if theres no units.
						for(int i = 0; i<512; i++)
     89c:	e0 16       	cp	r14, r16
     89e:	f1 06       	cpc	r15, r17
     8a0:	a9 f7       	brne	.-22     	; 0x88c <_ZN11PCinterface9handleCMDEv+0x12e>
     8a2:	82 c1       	rjmp	.+772    	; 0xba8 <_ZN11PCinterface9handleCMDEv+0x44a>
							uartPointer->sendChar(datablock[i]);
						}					
					} 
					else 
					{// hent antal af enheder
						this->nextunit++;
     8a4:	f6 01       	movw	r30, r12
     8a6:	94 85       	ldd	r25, Z+12	; 0x0c
     8a8:	9f 5f       	subi	r25, 0xFF	; 255
     8aa:	94 87       	std	Z+12, r25	; 0x0c
						if(this->unitsSent <= my_unit_count){
     8ac:	25 85       	ldd	r18, Z+13	; 0x0d
     8ae:	82 17       	cp	r24, r18
     8b0:	08 f4       	brcc	.+2      	; 0x8b4 <_ZN11PCinterface9handleCMDEv+0x156>
     8b2:	63 c0       	rjmp	.+198    	; 0x97a <_ZN11PCinterface9handleCMDEv+0x21c>
							for ( int i = this->nextunit; i <= 255; i++){ // handle each unit ;)
     8b4:	89 2f       	mov	r24, r25
     8b6:	90 e0       	ldi	r25, 0x00	; 0

//=============================================================
// METHOD : handleCMD
// DESCR. : The function doing all the hard work ;)
//=============================================================
bool PCinterface::handleCMD()
     8b8:	4c 01       	movw	r8, r24
     8ba:	08 94       	sec
     8bc:	81 1c       	adc	r8, r1
     8be:	91 1c       	adc	r9, r1
	}
	unsigned char unitListArray[512];
	unsigned char cmdarray[2];
	unsigned char cmd = getCmd(cmdarray);
	unsigned long blockAdress;
	unsigned char unitID = 0x00; // til at gemme unit Id
     8c0:	55 24       	eor	r5, r5
					{// hent antal af enheder
						this->nextunit++;
						if(this->unitsSent <= my_unit_count){
							for ( int i = this->nextunit; i <= 255; i++){ // handle each unit ;)
								UnitHandlerPointer->getUnitList(unitListArray); // get unit list
								for(int j = 0; j<512; j++){ 
     8c2:	66 24       	eor	r6, r6
     8c4:	77 24       	eor	r7, r7

//=============================================================
// METHOD : handleCMD
// DESCR. : The function doing all the hard work ;)
//=============================================================
bool PCinterface::handleCMD()
     8c6:	54 01       	movw	r10, r8
     8c8:	08 94       	sec
     8ca:	a1 08       	sbc	r10, r1
     8cc:	b1 08       	sbc	r11, r1
					else 
					{// hent antal af enheder
						this->nextunit++;
						if(this->unitsSent <= my_unit_count){
							for ( int i = this->nextunit; i <= 255; i++){ // handle each unit ;)
								UnitHandlerPointer->getUnitList(unitListArray); // get unit list
     8ce:	f6 01       	movw	r30, r12
     8d0:	83 81       	ldd	r24, Z+3	; 0x03
     8d2:	94 81       	ldd	r25, Z+4	; 0x04
     8d4:	be 01       	movw	r22, r28
     8d6:	6d 5f       	subi	r22, 0xFD	; 253
     8d8:	7d 4f       	sbci	r23, 0xFD	; 253
     8da:	0e 94 2b 0c 	call	0x1856	; 0x1856 <_ZN11UnitHandler11getUnitListEPh>
								for(int j = 0; j<512; j++){ 
     8de:	93 01       	movw	r18, r6
     8e0:	16 c0       	rjmp	.+44     	; 0x90e <_ZN11PCinterface9handleCMDEv+0x1b0>
									if(j%2 != 0){
     8e2:	20 ff       	sbrs	r18, 0
     8e4:	14 c0       	rjmp	.+40     	; 0x90e <_ZN11PCinterface9handleCMDEv+0x1b0>

//=============================================================
// METHOD : handleCMD
// DESCR. : The function doing all the hard work ;)
//=============================================================
bool PCinterface::handleCMD()
     8e6:	e3 e0       	ldi	r30, 0x03	; 3
     8e8:	f2 e0       	ldi	r31, 0x02	; 2
     8ea:	ec 0f       	add	r30, r28
     8ec:	fd 1f       	adc	r31, r29
     8ee:	e2 0f       	add	r30, r18
     8f0:	f3 1f       	adc	r31, r19
						if(this->unitsSent <= my_unit_count){
							for ( int i = this->nextunit; i <= 255; i++){ // handle each unit ;)
								UnitHandlerPointer->getUnitList(unitListArray); // get unit list
								for(int j = 0; j<512; j++){ 
									if(j%2 != 0){
										if(unitListArray[j] == i){
     8f2:	80 81       	ld	r24, Z
     8f4:	90 e0       	ldi	r25, 0x00	; 0
     8f6:	8a 15       	cp	r24, r10
     8f8:	9b 05       	cpc	r25, r11
     8fa:	49 f4       	brne	.+18     	; 0x90e <_ZN11PCinterface9handleCMDEv+0x1b0>
											unsigned char id = j - 1;
     8fc:	21 50       	subi	r18, 0x01	; 1
											unitID = unitListArray[id];
     8fe:	e3 e0       	ldi	r30, 0x03	; 3
     900:	f2 e0       	ldi	r31, 0x02	; 2
     902:	ec 0f       	add	r30, r28
     904:	fd 1f       	adc	r31, r29
     906:	e2 0f       	add	r30, r18
     908:	f1 1d       	adc	r31, r1
     90a:	50 80       	ld	r5, Z
											break;
     90c:	06 c0       	rjmp	.+12     	; 0x91a <_ZN11PCinterface9handleCMDEv+0x1bc>
					{// hent antal af enheder
						this->nextunit++;
						if(this->unitsSent <= my_unit_count){
							for ( int i = this->nextunit; i <= 255; i++){ // handle each unit ;)
								UnitHandlerPointer->getUnitList(unitListArray); // get unit list
								for(int j = 0; j<512; j++){ 
     90e:	2f 5f       	subi	r18, 0xFF	; 255
     910:	3f 4f       	sbci	r19, 0xFF	; 255
     912:	f2 e0       	ldi	r31, 0x02	; 2
     914:	20 30       	cpi	r18, 0x00	; 0
     916:	3f 07       	cpc	r19, r31
     918:	21 f7       	brne	.-56     	; 0x8e2 <_ZN11PCinterface9handleCMDEv+0x184>
											unitID = unitListArray[id];
											break;
										}
									}
								}
								if(unitID >= this->nextunit){
     91a:	f6 01       	movw	r30, r12
     91c:	84 85       	ldd	r24, Z+12	; 0x0c
     91e:	58 16       	cp	r5, r24
     920:	40 f4       	brcc	.+16     	; 0x932 <_ZN11PCinterface9handleCMDEv+0x1d4>
     922:	08 94       	sec
     924:	81 1c       	adc	r8, r1
     926:	91 1c       	adc	r9, r1
					} 
					else 
					{// hent antal af enheder
						this->nextunit++;
						if(this->unitsSent <= my_unit_count){
							for ( int i = this->nextunit; i <= 255; i++){ // handle each unit ;)
     928:	f1 e0       	ldi	r31, 0x01	; 1
     92a:	8f 16       	cp	r8, r31
     92c:	f1 e0       	ldi	r31, 0x01	; 1
     92e:	9f 06       	cpc	r9, r31
     930:	51 f6       	brne	.-108    	; 0x8c6 <_ZN11PCinterface9handleCMDEv+0x168>
	}
	unsigned char unitListArray[512];
	unsigned char cmdarray[2];
	unsigned char cmd = getCmd(cmdarray);
	unsigned long blockAdress;
	unsigned char unitID = 0x00; // til at gemme unit Id
     932:	aa 24       	eor	r10, r10
     934:	a3 94       	inc	r10
									break;
								}
							}						
							for ( int h = 1; h < 8; h++ )
							{
								UnitHandlerPointer->getTimeTable(h, unitID, datablock); // read unit timetable for 1 day.
     936:	80 2e       	mov	r8, r16
     938:	61 2e       	mov	r6, r17
     93a:	f6 01       	movw	r30, r12
     93c:	83 81       	ldd	r24, Z+3	; 0x03
     93e:	94 81       	ldd	r25, Z+4	; 0x04
     940:	6a 2d       	mov	r22, r10
     942:	45 2d       	mov	r20, r5
     944:	9e 01       	movw	r18, r28
     946:	2d 5f       	subi	r18, 0xFD	; 253
     948:	3b 4f       	sbci	r19, 0xFB	; 251
     94a:	0e 94 e2 11 	call	0x23c4	; 0x23c4 <_ZN11UnitHandler12getTimeTableEhhPh>
     94e:	08 2d       	mov	r16, r8
     950:	16 2d       	mov	r17, r6
								for ( int t = 0; t < 512; t++){
									uartPointer->sendChar(datablock[t]); // send 1 block of data.
     952:	f8 01       	movw	r30, r16
     954:	61 91       	ld	r22, Z+
     956:	8f 01       	movw	r16, r30
     958:	f6 01       	movw	r30, r12
     95a:	85 81       	ldd	r24, Z+5	; 0x05
     95c:	96 81       	ldd	r25, Z+6	; 0x06
     95e:	0e 94 e3 0b 	call	0x17c6	; 0x17c6 <_ZN4UART8sendCharEc>
								}
							}						
							for ( int h = 1; h < 8; h++ )
							{
								UnitHandlerPointer->getTimeTable(h, unitID, datablock); // read unit timetable for 1 day.
								for ( int t = 0; t < 512; t++){
     962:	e0 16       	cp	r14, r16
     964:	f1 06       	cpc	r15, r17
     966:	a9 f7       	brne	.-22     	; 0x952 <_ZN11PCinterface9handleCMDEv+0x1f4>
     968:	a3 94       	inc	r10
								}
								if(unitID >= this->nextunit){
									break;
								}
							}						
							for ( int h = 1; h < 8; h++ )
     96a:	f8 e0       	ldi	r31, 0x08	; 8
     96c:	af 16       	cp	r10, r31
     96e:	29 f7       	brne	.-54     	; 0x93a <_ZN11PCinterface9handleCMDEv+0x1dc>
								UnitHandlerPointer->getTimeTable(h, unitID, datablock); // read unit timetable for 1 day.
								for ( int t = 0; t < 512; t++){
									uartPointer->sendChar(datablock[t]); // send 1 block of data.
								}
							}
						this->unitsSent++;
     970:	f6 01       	movw	r30, r12
     972:	85 85       	ldd	r24, Z+13	; 0x0d
     974:	8f 5f       	subi	r24, 0xFF	; 255
     976:	85 87       	std	Z+13, r24	; 0x0d
     978:	17 c1       	rjmp	.+558    	; 0xba8 <_ZN11PCinterface9handleCMDEv+0x44a>
						}					
					} 
					else 
					{// hent antal af enheder
						this->nextunit++;
						if(this->unitsSent <= my_unit_count){
     97a:	04 e0       	ldi	r16, 0x04	; 4
     97c:	10 e0       	ldi	r17, 0x00	; 0
						}
						else
						{
							// If no more data
							for(int i = 0; i<4; i++){
								uartPointer->sendChar(0xFA);
     97e:	f6 01       	movw	r30, r12
     980:	85 81       	ldd	r24, Z+5	; 0x05
     982:	96 81       	ldd	r25, Z+6	; 0x06
     984:	6a ef       	ldi	r22, 0xFA	; 250
     986:	0e 94 e3 0b 	call	0x17c6	; 0x17c6 <_ZN4UART8sendCharEc>
								this->nextunit = 0;
     98a:	f6 01       	movw	r30, r12
     98c:	14 86       	std	Z+12, r1	; 0x0c
								this->unitsSent = 0;
     98e:	15 86       	std	Z+13, r1	; 0x0d
     990:	01 50       	subi	r16, 0x01	; 1
     992:	10 40       	sbci	r17, 0x00	; 0
						this->unitsSent++;
						}
						else
						{
							// If no more data
							for(int i = 0; i<4; i++){
     994:	a1 f7       	brne	.-24     	; 0x97e <_ZN11PCinterface9handleCMDEv+0x220>
     996:	08 c1       	rjmp	.+528    	; 0xba8 <_ZN11PCinterface9handleCMDEv+0x44a>
							}
						}
					}
				break;
		case 7: // Enhedsinfo fra PC til styreboks 4 til 512 bytes; ack for hver byte efter cmd
			if(getData(datablock) == 2) // get two bytes of data
     998:	c6 01       	movw	r24, r12
     99a:	be 01       	movw	r22, r28
     99c:	6d 5f       	subi	r22, 0xFD	; 253
     99e:	7b 4f       	sbci	r23, 0xFB	; 251
     9a0:	0e 94 61 03 	call	0x6c2	; 0x6c2 <_ZN11PCinterface7getDataEPh>
     9a4:	82 30       	cpi	r24, 0x02	; 2
     9a6:	91 05       	cpc	r25, r1
     9a8:	19 f5       	brne	.+70     	; 0x9f0 <_ZN11PCinterface9handleCMDEv+0x292>
			{
				if(datablock[1] == 0x00)
     9aa:	cc 5f       	subi	r28, 0xFC	; 252
     9ac:	db 4f       	sbci	r29, 0xFB	; 251
     9ae:	48 81       	ld	r20, Y
     9b0:	c4 50       	subi	r28, 0x04	; 4
     9b2:	d4 40       	sbci	r29, 0x04	; 4
     9b4:	44 23       	and	r20, r20
     9b6:	59 f4       	brne	.+22     	; 0x9ce <_ZN11PCinterface9handleCMDEv+0x270>
				{
					UnitHandlerPointer->AddUnit(datablock[0]);	
     9b8:	f6 01       	movw	r30, r12
     9ba:	83 81       	ldd	r24, Z+3	; 0x03
     9bc:	94 81       	ldd	r25, Z+4	; 0x04
     9be:	cd 5f       	subi	r28, 0xFD	; 253
     9c0:	db 4f       	sbci	r29, 0xFB	; 251
     9c2:	68 81       	ld	r22, Y
     9c4:	c3 50       	subi	r28, 0x03	; 3
     9c6:	d4 40       	sbci	r29, 0x04	; 4
     9c8:	0e 94 0f 0f 	call	0x1e1e	; 0x1e1e <_ZN11UnitHandler7AddUnitEhh>
     9cc:	0a c0       	rjmp	.+20     	; 0x9e2 <_ZN11PCinterface9handleCMDEv+0x284>
				} 
				else
				{
					UnitHandlerPointer->AddUnit(datablock[0], datablock[1]);
     9ce:	f6 01       	movw	r30, r12
     9d0:	83 81       	ldd	r24, Z+3	; 0x03
     9d2:	94 81       	ldd	r25, Z+4	; 0x04
     9d4:	cd 5f       	subi	r28, 0xFD	; 253
     9d6:	db 4f       	sbci	r29, 0xFB	; 251
     9d8:	68 81       	ld	r22, Y
     9da:	c3 50       	subi	r28, 0x03	; 3
     9dc:	d4 40       	sbci	r29, 0x04	; 4
     9de:	0e 94 0f 0f 	call	0x1e1e	; 0x1e1e <_ZN11UnitHandler7AddUnitEhh>
				}
				uartPointer->sendChar(0x0F);
     9e2:	f6 01       	movw	r30, r12
     9e4:	85 81       	ldd	r24, Z+5	; 0x05
     9e6:	96 81       	ldd	r25, Z+6	; 0x06
     9e8:	6f e0       	ldi	r22, 0x0F	; 15
     9ea:	0e 94 e3 0b 	call	0x17c6	; 0x17c6 <_ZN4UART8sendCharEc>
     9ee:	dc c0       	rjmp	.+440    	; 0xba8 <_ZN11PCinterface9handleCMDEv+0x44a>
							}
						}
					}
				break;
		case 7: // Enhedsinfo fra PC til styreboks 4 til 512 bytes; ack for hver byte efter cmd
			if(getData(datablock) == 2) // get two bytes of data
     9f0:	04 e0       	ldi	r16, 0x04	; 4
     9f2:	10 e0       	ldi	r17, 0x00	; 0
				}
				uartPointer->sendChar(0x0F);
			}
			else {
				for(int i = 0; i<4; i++){
					uartPointer->sendChar(0xFA);
     9f4:	f6 01       	movw	r30, r12
     9f6:	85 81       	ldd	r24, Z+5	; 0x05
     9f8:	96 81       	ldd	r25, Z+6	; 0x06
     9fa:	6a ef       	ldi	r22, 0xFA	; 250
     9fc:	0e 94 e3 0b 	call	0x17c6	; 0x17c6 <_ZN4UART8sendCharEc>
     a00:	01 50       	subi	r16, 0x01	; 1
     a02:	10 40       	sbci	r17, 0x00	; 0
					UnitHandlerPointer->AddUnit(datablock[0], datablock[1]);
				}
				uartPointer->sendChar(0x0F);
			}
			else {
				for(int i = 0; i<4; i++){
     a04:	b9 f7       	brne	.-18     	; 0x9f4 <_ZN11PCinterface9handleCMDEv+0x296>
     a06:	d0 c0       	rjmp	.+416    	; 0xba8 <_ZN11PCinterface9handleCMDEv+0x44a>
					uartPointer->sendChar(0xFA);
				}
			}		
		break;
		case 8: // slet enhed 1 byte;
			if(getData(datablock) == 1){
     a08:	c6 01       	movw	r24, r12
     a0a:	be 01       	movw	r22, r28
     a0c:	6d 5f       	subi	r22, 0xFD	; 253
     a0e:	7b 4f       	sbci	r23, 0xFB	; 251
     a10:	0e 94 61 03 	call	0x6c2	; 0x6c2 <_ZN11PCinterface7getDataEPh>
     a14:	81 30       	cpi	r24, 0x01	; 1
     a16:	91 05       	cpc	r25, r1
     a18:	f9 f4       	brne	.+62     	; 0xa58 <_ZN11PCinterface9handleCMDEv+0x2fa>
				if(UnitHandlerPointer->RemoveUnit(datablock[0]))
     a1a:	f6 01       	movw	r30, r12
     a1c:	83 81       	ldd	r24, Z+3	; 0x03
     a1e:	94 81       	ldd	r25, Z+4	; 0x04
     a20:	cd 5f       	subi	r28, 0xFD	; 253
     a22:	db 4f       	sbci	r29, 0xFB	; 251
     a24:	68 81       	ld	r22, Y
     a26:	c3 50       	subi	r28, 0x03	; 3
     a28:	d4 40       	sbci	r29, 0x04	; 4
     a2a:	0e 94 9a 0d 	call	0x1b34	; 0x1b34 <_ZN11UnitHandler10RemoveUnitEh>
     a2e:	88 23       	and	r24, r24
     a30:	39 f0       	breq	.+14     	; 0xa40 <_ZN11PCinterface9handleCMDEv+0x2e2>
				{
					uartPointer->sendChar(0x0F);	
     a32:	f6 01       	movw	r30, r12
     a34:	85 81       	ldd	r24, Z+5	; 0x05
     a36:	96 81       	ldd	r25, Z+6	; 0x06
     a38:	6f e0       	ldi	r22, 0x0F	; 15
     a3a:	0e 94 e3 0b 	call	0x17c6	; 0x17c6 <_ZN4UART8sendCharEc>
     a3e:	b4 c0       	rjmp	.+360    	; 0xba8 <_ZN11PCinterface9handleCMDEv+0x44a>
				}
			}		
		break;
		case 8: // slet enhed 1 byte;
			if(getData(datablock) == 1){
				if(UnitHandlerPointer->RemoveUnit(datablock[0]))
     a40:	04 e0       	ldi	r16, 0x04	; 4
     a42:	10 e0       	ldi	r17, 0x00	; 0
					uartPointer->sendChar(0x0F);	
				}
				else
				{
					for(int i = 0; i<4; i++){
						uartPointer->sendChar(0xFA);
     a44:	f6 01       	movw	r30, r12
     a46:	85 81       	ldd	r24, Z+5	; 0x05
     a48:	96 81       	ldd	r25, Z+6	; 0x06
     a4a:	6a ef       	ldi	r22, 0xFA	; 250
     a4c:	0e 94 e3 0b 	call	0x17c6	; 0x17c6 <_ZN4UART8sendCharEc>
     a50:	01 50       	subi	r16, 0x01	; 1
     a52:	10 40       	sbci	r17, 0x00	; 0
				{
					uartPointer->sendChar(0x0F);	
				}
				else
				{
					for(int i = 0; i<4; i++){
     a54:	b9 f7       	brne	.-18     	; 0xa44 <_ZN11PCinterface9handleCMDEv+0x2e6>
     a56:	a8 c0       	rjmp	.+336    	; 0xba8 <_ZN11PCinterface9handleCMDEv+0x44a>
					uartPointer->sendChar(0xFA);
				}
			}		
		break;
		case 8: // slet enhed 1 byte;
			if(getData(datablock) == 1){
     a58:	04 e0       	ldi	r16, 0x04	; 4
     a5a:	10 e0       	ldi	r17, 0x00	; 0
				}
			}
			else
			{
				for(int i = 0; i<4; i++){
					uartPointer->sendChar(0xFA);
     a5c:	f6 01       	movw	r30, r12
     a5e:	85 81       	ldd	r24, Z+5	; 0x05
     a60:	96 81       	ldd	r25, Z+6	; 0x06
     a62:	6a ef       	ldi	r22, 0xFA	; 250
     a64:	0e 94 e3 0b 	call	0x17c6	; 0x17c6 <_ZN4UART8sendCharEc>
     a68:	01 50       	subi	r16, 0x01	; 1
     a6a:	10 40       	sbci	r17, 0x00	; 0
					}
				}
			}
			else
			{
				for(int i = 0; i<4; i++){
     a6c:	b9 f7       	brne	.-18     	; 0xa5c <_ZN11PCinterface9handleCMDEv+0x2fe>
     a6e:	9c c0       	rjmp	.+312    	; 0xba8 <_ZN11PCinterface9handleCMDEv+0x44a>
					uartPointer->sendChar(0xFA);
				}
			}
			break;
		case 9: // Edit Unit
				if(getData(datablock) == 3)
     a70:	c6 01       	movw	r24, r12
     a72:	be 01       	movw	r22, r28
     a74:	6d 5f       	subi	r22, 0xFD	; 253
     a76:	7b 4f       	sbci	r23, 0xFB	; 251
     a78:	0e 94 61 03 	call	0x6c2	; 0x6c2 <_ZN11PCinterface7getDataEPh>
     a7c:	83 30       	cpi	r24, 0x03	; 3
     a7e:	91 05       	cpc	r25, r1
     a80:	49 f5       	brne	.+82     	; 0xad4 <_ZN11PCinterface9handleCMDEv+0x376>
				{
					if(UnitHandlerPointer->editUnit(datablock[0], datablock[1], datablock[2]))
     a82:	f6 01       	movw	r30, r12
     a84:	83 81       	ldd	r24, Z+3	; 0x03
     a86:	94 81       	ldd	r25, Z+4	; 0x04
     a88:	cd 5f       	subi	r28, 0xFD	; 253
     a8a:	db 4f       	sbci	r29, 0xFB	; 251
     a8c:	68 81       	ld	r22, Y
     a8e:	c3 50       	subi	r28, 0x03	; 3
     a90:	d4 40       	sbci	r29, 0x04	; 4
     a92:	cc 5f       	subi	r28, 0xFC	; 252
     a94:	db 4f       	sbci	r29, 0xFB	; 251
     a96:	48 81       	ld	r20, Y
     a98:	c4 50       	subi	r28, 0x04	; 4
     a9a:	d4 40       	sbci	r29, 0x04	; 4
     a9c:	cb 5f       	subi	r28, 0xFB	; 251
     a9e:	db 4f       	sbci	r29, 0xFB	; 251
     aa0:	28 81       	ld	r18, Y
     aa2:	c5 50       	subi	r28, 0x05	; 5
     aa4:	d4 40       	sbci	r29, 0x04	; 4
     aa6:	0e 94 6b 12 	call	0x24d6	; 0x24d6 <_ZN11UnitHandler8editUnitEhhh>
     aaa:	88 23       	and	r24, r24
     aac:	39 f0       	breq	.+14     	; 0xabc <_ZN11PCinterface9handleCMDEv+0x35e>
					{
						uartPointer->sendChar(0xF0);	
     aae:	f6 01       	movw	r30, r12
     ab0:	85 81       	ldd	r24, Z+5	; 0x05
     ab2:	96 81       	ldd	r25, Z+6	; 0x06
     ab4:	60 ef       	ldi	r22, 0xF0	; 240
     ab6:	0e 94 e3 0b 	call	0x17c6	; 0x17c6 <_ZN4UART8sendCharEc>
     aba:	76 c0       	rjmp	.+236    	; 0xba8 <_ZN11PCinterface9handleCMDEv+0x44a>
			}
			break;
		case 9: // Edit Unit
				if(getData(datablock) == 3)
				{
					if(UnitHandlerPointer->editUnit(datablock[0], datablock[1], datablock[2]))
     abc:	04 e0       	ldi	r16, 0x04	; 4
     abe:	10 e0       	ldi	r17, 0x00	; 0
						uartPointer->sendChar(0xF0);	
					}
					else
					{
						for(int i = 0; i<4; i++){
							uartPointer->sendChar(0xFA);
     ac0:	f6 01       	movw	r30, r12
     ac2:	85 81       	ldd	r24, Z+5	; 0x05
     ac4:	96 81       	ldd	r25, Z+6	; 0x06
     ac6:	6a ef       	ldi	r22, 0xFA	; 250
     ac8:	0e 94 e3 0b 	call	0x17c6	; 0x17c6 <_ZN4UART8sendCharEc>
     acc:	01 50       	subi	r16, 0x01	; 1
     ace:	10 40       	sbci	r17, 0x00	; 0
					{
						uartPointer->sendChar(0xF0);	
					}
					else
					{
						for(int i = 0; i<4; i++){
     ad0:	b9 f7       	brne	.-18     	; 0xac0 <_ZN11PCinterface9handleCMDEv+0x362>
     ad2:	6a c0       	rjmp	.+212    	; 0xba8 <_ZN11PCinterface9handleCMDEv+0x44a>
					uartPointer->sendChar(0xFA);
				}
			}
			break;
		case 9: // Edit Unit
				if(getData(datablock) == 3)
     ad4:	04 e0       	ldi	r16, 0x04	; 4
     ad6:	10 e0       	ldi	r17, 0x00	; 0
					}
				}		
				else
				{
					for(int i = 0; i<4; i++){
						uartPointer->sendChar(0xFA);
     ad8:	f6 01       	movw	r30, r12
     ada:	85 81       	ldd	r24, Z+5	; 0x05
     adc:	96 81       	ldd	r25, Z+6	; 0x06
     ade:	6a ef       	ldi	r22, 0xFA	; 250
     ae0:	0e 94 e3 0b 	call	0x17c6	; 0x17c6 <_ZN4UART8sendCharEc>
     ae4:	01 50       	subi	r16, 0x01	; 1
     ae6:	10 40       	sbci	r17, 0x00	; 0
						}
					}
				}		
				else
				{
					for(int i = 0; i<4; i++){
     ae8:	b9 f7       	brne	.-18     	; 0xad8 <_ZN11PCinterface9handleCMDEv+0x37a>
     aea:	5e c0       	rjmp	.+188    	; 0xba8 <_ZN11PCinterface9handleCMDEv+0x44a>
						uartPointer->sendChar(0xFA);
					}	
				}								 
				break;
		case 10: // update tidsplan 512 bytes;
			uartPointer->sendChar(0x0F);
     aec:	f6 01       	movw	r30, r12
     aee:	85 81       	ldd	r24, Z+5	; 0x05
     af0:	96 81       	ldd	r25, Z+6	; 0x06
     af2:	6f e0       	ldi	r22, 0x0F	; 15
     af4:	0e 94 e3 0b 	call	0x17c6	; 0x17c6 <_ZN4UART8sendCharEc>
			numberoffields = getData(datablock);
     af8:	c6 01       	movw	r24, r12
     afa:	be 01       	movw	r22, r28
     afc:	6d 5f       	subi	r22, 0xFD	; 253
     afe:	7b 4f       	sbci	r23, 0xFB	; 251
     b00:	0e 94 61 03 	call	0x6c2	; 0x6c2 <_ZN11PCinterface7getDataEPh>
     b04:	28 2f       	mov	r18, r24
     b06:	39 2f       	mov	r19, r25
			if(numberoffields > 3)
     b08:	24 30       	cpi	r18, 0x04	; 4
     b0a:	31 05       	cpc	r19, r1
     b0c:	0c f4       	brge	.+2      	; 0xb10 <_ZN11PCinterface9handleCMDEv+0x3b2>
     b0e:	41 c0       	rjmp	.+130    	; 0xb92 <_ZN11PCinterface9handleCMDEv+0x434>
     b10:	fe 01       	movw	r30, r28
     b12:	33 96       	adiw	r30, 0x03	; 3

//=============================================================
// METHOD : handleCMD
// DESCR. : The function doing all the hard work ;)
//=============================================================
bool PCinterface::handleCMD()
     b14:	ce 01       	movw	r24, r28
     b16:	8d 5f       	subi	r24, 0xFD	; 253
     b18:	9d 4f       	sbci	r25, 0xFD	; 253
			numberoffields = getData(datablock);
			if(numberoffields > 3)
			{
				unsigned char tempArray[512];
				for( int q = 0; q < 512; q++){
					tempArray[q] = 0x00;
     b1a:	11 92       	st	Z+, r1
			uartPointer->sendChar(0x0F);
			numberoffields = getData(datablock);
			if(numberoffields > 3)
			{
				unsigned char tempArray[512];
				for( int q = 0; q < 512; q++){
     b1c:	e8 17       	cp	r30, r24
     b1e:	f9 07       	cpc	r31, r25
     b20:	e1 f7       	brne	.-8      	; 0xb1a <_ZN11PCinterface9handleCMDEv+0x3bc>
					tempArray[q] = 0x00;
				}
				unsigned char offset = 0;
				for( int i = 0; i < numberoffields; i++ ){
     b22:	12 16       	cp	r1, r18
     b24:	13 06       	cpc	r1, r19
     b26:	bc f4       	brge	.+46     	; 0xb56 <_ZN11PCinterface9handleCMDEv+0x3f8>
     b28:	80 e0       	ldi	r24, 0x00	; 0
     b2a:	90 e0       	ldi	r25, 0x00	; 0
					
					if(i > 0){
     b2c:	18 16       	cp	r1, r24
     b2e:	19 06       	cpc	r1, r25
     b30:	1c f4       	brge	.+6      	; 0xb38 <_ZN11PCinterface9handleCMDEv+0x3da>

//=============================================================
// METHOD : handleCMD
// DESCR. : The function doing all the hard work ;)
//=============================================================
bool PCinterface::handleCMD()
     b32:	58 2f       	mov	r21, r24
     b34:	5f 5f       	subi	r21, 0xFF	; 255
     b36:	01 c0       	rjmp	.+2      	; 0xb3a <_ZN11PCinterface9handleCMDEv+0x3dc>
				for( int i = 0; i < numberoffields; i++ ){
					
					if(i > 0){
						offset = i+1;
					} else {
						offset = i;
     b38:	58 2f       	mov	r21, r24
					}
					tempArray[offset] = datablock[i];
     b3a:	f8 01       	movw	r30, r16
     b3c:	41 91       	ld	r20, Z+
     b3e:	8f 01       	movw	r16, r30
     b40:	e3 e0       	ldi	r30, 0x03	; 3
     b42:	f0 e0       	ldi	r31, 0x00	; 0
     b44:	ec 0f       	add	r30, r28
     b46:	fd 1f       	adc	r31, r29
     b48:	e5 0f       	add	r30, r21
     b4a:	f1 1d       	adc	r31, r1
     b4c:	40 83       	st	Z, r20
				unsigned char tempArray[512];
				for( int q = 0; q < 512; q++){
					tempArray[q] = 0x00;
				}
				unsigned char offset = 0;
				for( int i = 0; i < numberoffields; i++ ){
     b4e:	01 96       	adiw	r24, 0x01	; 1
     b50:	28 17       	cp	r18, r24
     b52:	39 07       	cpc	r19, r25
     b54:	59 f7       	brne	.-42     	; 0xb2c <_ZN11PCinterface9handleCMDEv+0x3ce>
					} else {
						offset = i;
					}
					tempArray[offset] = datablock[i];
				}
				if(UnitHandlerPointer->UpdateTime(tempArray[0], tempArray))
     b56:	f6 01       	movw	r30, r12
     b58:	83 81       	ldd	r24, Z+3	; 0x03
     b5a:	94 81       	ldd	r25, Z+4	; 0x04
     b5c:	6b 81       	ldd	r22, Y+3	; 0x03
     b5e:	ae 01       	movw	r20, r28
     b60:	4d 5f       	subi	r20, 0xFD	; 253
     b62:	5f 4f       	sbci	r21, 0xFF	; 255
     b64:	0e 94 56 11 	call	0x22ac	; 0x22ac <_ZN11UnitHandler10UpdateTimeEhPh>
     b68:	88 23       	and	r24, r24
     b6a:	39 f0       	breq	.+14     	; 0xb7a <_ZN11PCinterface9handleCMDEv+0x41c>
				{
					uartPointer->sendChar(0x0F);
     b6c:	f6 01       	movw	r30, r12
     b6e:	85 81       	ldd	r24, Z+5	; 0x05
     b70:	96 81       	ldd	r25, Z+6	; 0x06
     b72:	6f e0       	ldi	r22, 0x0F	; 15
     b74:	0e 94 e3 0b 	call	0x17c6	; 0x17c6 <_ZN4UART8sendCharEc>
     b78:	17 c0       	rjmp	.+46     	; 0xba8 <_ZN11PCinterface9handleCMDEv+0x44a>
					} else {
						offset = i;
					}
					tempArray[offset] = datablock[i];
				}
				if(UnitHandlerPointer->UpdateTime(tempArray[0], tempArray))
     b7a:	04 e0       	ldi	r16, 0x04	; 4
     b7c:	10 e0       	ldi	r17, 0x00	; 0
					uartPointer->sendChar(0x0F);
				}
				else
				{
					for(int i = 0; i<4; i++){
						uartPointer->sendChar(0xFB);
     b7e:	f6 01       	movw	r30, r12
     b80:	85 81       	ldd	r24, Z+5	; 0x05
     b82:	96 81       	ldd	r25, Z+6	; 0x06
     b84:	6b ef       	ldi	r22, 0xFB	; 251
     b86:	0e 94 e3 0b 	call	0x17c6	; 0x17c6 <_ZN4UART8sendCharEc>
     b8a:	01 50       	subi	r16, 0x01	; 1
     b8c:	10 40       	sbci	r17, 0x00	; 0
				{
					uartPointer->sendChar(0x0F);
				}
				else
				{
					for(int i = 0; i<4; i++){
     b8e:	b9 f7       	brne	.-18     	; 0xb7e <_ZN11PCinterface9handleCMDEv+0x420>
     b90:	0b c0       	rjmp	.+22     	; 0xba8 <_ZN11PCinterface9handleCMDEv+0x44a>
				}								 
				break;
		case 10: // update tidsplan 512 bytes;
			uartPointer->sendChar(0x0F);
			numberoffields = getData(datablock);
			if(numberoffields > 3)
     b92:	04 e0       	ldi	r16, 0x04	; 4
     b94:	10 e0       	ldi	r17, 0x00	; 0
					}
				}
			}
			else {
				for(int i = 0; i<4; i++){
					uartPointer->sendChar(0xFA);
     b96:	f6 01       	movw	r30, r12
     b98:	85 81       	ldd	r24, Z+5	; 0x05
     b9a:	96 81       	ldd	r25, Z+6	; 0x06
     b9c:	6a ef       	ldi	r22, 0xFA	; 250
     b9e:	0e 94 e3 0b 	call	0x17c6	; 0x17c6 <_ZN4UART8sendCharEc>
     ba2:	01 50       	subi	r16, 0x01	; 1
     ba4:	10 40       	sbci	r17, 0x00	; 0
						uartPointer->sendChar(0xFB);
					}
				}
			}
			else {
				for(int i = 0; i<4; i++){
     ba6:	b9 f7       	brne	.-18     	; 0xb96 <_ZN11PCinterface9handleCMDEv+0x438>
			break;
		case 11: // Set time 7 bytees;
			// ikke implementereret i pc software.
			break;
	}
}
     ba8:	ce 5f       	subi	r28, 0xFE	; 254
     baa:	d9 4f       	sbci	r29, 0xF9	; 249
     bac:	0f b6       	in	r0, 0x3f	; 63
     bae:	f8 94       	cli
     bb0:	de bf       	out	0x3e, r29	; 62
     bb2:	0f be       	out	0x3f, r0	; 63
     bb4:	cd bf       	out	0x3d, r28	; 61
     bb6:	df 91       	pop	r29
     bb8:	cf 91       	pop	r28
     bba:	1f 91       	pop	r17
     bbc:	0f 91       	pop	r16
     bbe:	ff 90       	pop	r15
     bc0:	ef 90       	pop	r14
     bc2:	df 90       	pop	r13
     bc4:	cf 90       	pop	r12
     bc6:	bf 90       	pop	r11
     bc8:	af 90       	pop	r10
     bca:	9f 90       	pop	r9
     bcc:	8f 90       	pop	r8
     bce:	7f 90       	pop	r7
     bd0:	6f 90       	pop	r6
     bd2:	5f 90       	pop	r5
     bd4:	08 95       	ret

00000bd6 <_ZN11PCinterface12returnStatusEv>:

void PCinterface::returnStatus(){
     bd6:	cf 93       	push	r28
     bd8:	df 93       	push	r29
     bda:	ec 01       	movw	r28, r24
	if(needRunGetStatus){
     bdc:	89 85       	ldd	r24, Y+9	; 0x09
     bde:	88 23       	and	r24, r24
     be0:	f9 f0       	breq	.+62     	; 0xc20 <_ZN11PCinterface12returnStatusEv+0x4a>
		if(x10Pointer->getUnitStatus(unitAdress, currentUnitStatus)) // get status from unit and store it into unitstatus
     be2:	ae 01       	movw	r20, r28
     be4:	45 5f       	subi	r20, 0xF5	; 245
     be6:	5f 4f       	sbci	r21, 0xFF	; 255
     be8:	8f 81       	ldd	r24, Y+7	; 0x07
     bea:	98 85       	ldd	r25, Y+8	; 0x08
     bec:	6a 85       	ldd	r22, Y+10	; 0x0a
     bee:	0e 94 94 13 	call	0x2728	; 0x2728 <_ZN3X1013getUnitStatusEhRb>
     bf2:	88 23       	and	r24, r24
     bf4:	79 f0       	breq	.+30     	; 0xc14 <_ZN11PCinterface12returnStatusEv+0x3e>
		{
			if(currentUnitStatus == true)
     bf6:	8b 85       	ldd	r24, Y+11	; 0x0b
     bf8:	88 23       	and	r24, r24
     bfa:	31 f0       	breq	.+12     	; 0xc08 <_ZN11PCinterface12returnStatusEv+0x32>
			{ // return true response
				uartPointer->sendChar(0x01);
     bfc:	8d 81       	ldd	r24, Y+5	; 0x05
     bfe:	9e 81       	ldd	r25, Y+6	; 0x06
     c00:	61 e0       	ldi	r22, 0x01	; 1
     c02:	0e 94 e3 0b 	call	0x17c6	; 0x17c6 <_ZN4UART8sendCharEc>
     c06:	0b c0       	rjmp	.+22     	; 0xc1e <_ZN11PCinterface12returnStatusEv+0x48>
			}
			else // handles false
			{
				uartPointer->sendChar(0x00);
     c08:	8d 81       	ldd	r24, Y+5	; 0x05
     c0a:	9e 81       	ldd	r25, Y+6	; 0x06
     c0c:	60 e0       	ldi	r22, 0x00	; 0
     c0e:	0e 94 e3 0b 	call	0x17c6	; 0x17c6 <_ZN4UART8sendCharEc>
     c12:	05 c0       	rjmp	.+10     	; 0xc1e <_ZN11PCinterface12returnStatusEv+0x48>
		}
		else 
		{
		// location for adding error handling
		// currently just sets status to false
			uartPointer->sendChar(0xFA);
     c14:	8d 81       	ldd	r24, Y+5	; 0x05
     c16:	9e 81       	ldd	r25, Y+6	; 0x06
     c18:	6a ef       	ldi	r22, 0xFA	; 250
     c1a:	0e 94 e3 0b 	call	0x17c6	; 0x17c6 <_ZN4UART8sendCharEc>
		}
		needRunGetStatus = false;
     c1e:	19 86       	std	Y+9, r1	; 0x09
	}
     c20:	df 91       	pop	r29
     c22:	cf 91       	pop	r28
     c24:	08 95       	ret

00000c26 <_ZN3rtcC1Ehi>:
// METHOD : rtc
// DESCR. : constructor that initiates the rtc module and sets the adress to adress,
// as well as initializing the i2c to a requested frequency which must be either 100 
// or 400 kHz
//=============================================================
rtc::rtc(unsigned char adress, int clock) : i2c_obj(1, clock)
     c26:	1f 93       	push	r17
     c28:	cf 93       	push	r28
     c2a:	df 93       	push	r29
     c2c:	ec 01       	movw	r28, r24
     c2e:	16 2f       	mov	r17, r22
     c30:	01 96       	adiw	r24, 0x01	; 1
     c32:	61 e0       	ldi	r22, 0x01	; 1
     c34:	0e 94 a8 00 	call	0x150	; 0x150 <_ZN3i2cC1Ebi>
{
	 this->adress = adress;
     c38:	18 83       	st	Y, r17
}
     c3a:	df 91       	pop	r29
     c3c:	cf 91       	pop	r28
     c3e:	1f 91       	pop	r17
     c40:	08 95       	ret

00000c42 <_ZN3rtc12getDayOfWeekEv>:
//=============================================================
// METHOD : getDayOfWeek
// DESCR. : returns current Day of the week from the RTC module
//=============================================================
int rtc::getDayOfWeek()
{
     c42:	0f 93       	push	r16
     c44:	1f 93       	push	r17
     c46:	cf 93       	push	r28
     c48:	df 93       	push	r29
     c4a:	8c 01       	movw	r16, r24
	i2c_obj.start();
     c4c:	ec 01       	movw	r28, r24
     c4e:	21 96       	adiw	r28, 0x01	; 1
     c50:	ce 01       	movw	r24, r28
     c52:	0e 94 c9 00 	call	0x192	; 0x192 <_ZN3i2c5startEv>
	i2c_obj.write(this->adress & 0xFE);
     c56:	f8 01       	movw	r30, r16
     c58:	60 81       	ld	r22, Z
     c5a:	6e 7f       	andi	r22, 0xFE	; 254
     c5c:	ce 01       	movw	r24, r28
     c5e:	0e 94 d6 00 	call	0x1ac	; 0x1ac <_ZN3i2c5writeEh>
	i2c_obj.write(0x03);
     c62:	ce 01       	movw	r24, r28
     c64:	63 e0       	ldi	r22, 0x03	; 3
     c66:	0e 94 d6 00 	call	0x1ac	; 0x1ac <_ZN3i2c5writeEh>
	i2c_obj.stop();
     c6a:	ce 01       	movw	r24, r28
     c6c:	0e 94 d2 00 	call	0x1a4	; 0x1a4 <_ZN3i2c4stopEv>
		
	i2c_obj.start();
     c70:	ce 01       	movw	r24, r28
     c72:	0e 94 c9 00 	call	0x192	; 0x192 <_ZN3i2c5startEv>
	i2c_obj.write(this->adress | 0x01);
     c76:	f8 01       	movw	r30, r16
     c78:	60 81       	ld	r22, Z
     c7a:	61 60       	ori	r22, 0x01	; 1
     c7c:	ce 01       	movw	r24, r28
     c7e:	0e 94 d6 00 	call	0x1ac	; 0x1ac <_ZN3i2c5writeEh>
	unsigned char currentDay = i2c_obj.read(1);
     c82:	ce 01       	movw	r24, r28
     c84:	61 e0       	ldi	r22, 0x01	; 1
     c86:	0e 94 e1 00 	call	0x1c2	; 0x1c2 <_ZN3i2c4readEb>
     c8a:	08 2f       	mov	r16, r24
	i2c_obj.stop();
     c8c:	ce 01       	movw	r24, r28
     c8e:	0e 94 d2 00 	call	0x1a4	; 0x1a4 <_ZN3i2c4stopEv>
		
	return currentDay;
}
     c92:	80 2f       	mov	r24, r16
     c94:	90 e0       	ldi	r25, 0x00	; 0
     c96:	df 91       	pop	r29
     c98:	cf 91       	pop	r28
     c9a:	1f 91       	pop	r17
     c9c:	0f 91       	pop	r16
     c9e:	08 95       	ret

00000ca0 <_ZN3rtc8intToBCDEh>:
//=============================================================
// METHOD : intToBCD
// DESCR. : converts an 8 bit unsigned value to the binary coded decimal format
//=============================================================
unsigned char rtc::intToBCD( unsigned char val )
{
     ca0:	86 2f       	mov	r24, r22
	unsigned char tens = val/10 << 4; // divide by 10 bitshift for places.
     ca2:	6a e0       	ldi	r22, 0x0A	; 10
     ca4:	0e 94 ff 18 	call	0x31fe	; 0x31fe <__udivmodqi4>
     ca8:	82 95       	swap	r24
     caa:	80 7f       	andi	r24, 0xF0	; 240
	unsigned char ones = val % 10; // get the reminder of a devision by 10
	return tens + ones; // add the numbers to gain the BCD value
}
     cac:	89 0f       	add	r24, r25
     cae:	08 95       	ret

00000cb0 <_ZN3rtc7setDateEhhhh>:
//=============================================================
// METHOD : setTime
// DESCR. : sets up the RTC to the date info passed through as parameters.
//=============================================================
void rtc::setDate( unsigned char date, unsigned char month, unsigned char year, unsigned char dayOfWeek )
{
     cb0:	cf 92       	push	r12
     cb2:	df 92       	push	r13
     cb4:	ef 92       	push	r14
     cb6:	ff 92       	push	r15
     cb8:	0f 93       	push	r16
     cba:	1f 93       	push	r17
     cbc:	cf 93       	push	r28
     cbe:	df 93       	push	r29
     cc0:	7c 01       	movw	r14, r24
     cc2:	16 2f       	mov	r17, r22
     cc4:	d4 2e       	mov	r13, r20
     cc6:	c2 2e       	mov	r12, r18
	i2c_obj.start();
     cc8:	ec 01       	movw	r28, r24
     cca:	21 96       	adiw	r28, 0x01	; 1
     ccc:	ce 01       	movw	r24, r28
     cce:	0e 94 c9 00 	call	0x192	; 0x192 <_ZN3i2c5startEv>
	i2c_obj.write(this->adress & 0xFE); // masking adress to set the direction bit to 0
     cd2:	f7 01       	movw	r30, r14
     cd4:	60 81       	ld	r22, Z
     cd6:	6e 7f       	andi	r22, 0xFE	; 254
     cd8:	ce 01       	movw	r24, r28
     cda:	0e 94 d6 00 	call	0x1ac	; 0x1ac <_ZN3i2c5writeEh>
	i2c_obj.write(0x03);
     cde:	ce 01       	movw	r24, r28
     ce0:	63 e0       	ldi	r22, 0x03	; 3
     ce2:	0e 94 d6 00 	call	0x1ac	; 0x1ac <_ZN3i2c5writeEh>
	i2c_obj.write(dayOfWeek);
     ce6:	ce 01       	movw	r24, r28
     ce8:	60 2f       	mov	r22, r16
     cea:	0e 94 d6 00 	call	0x1ac	; 0x1ac <_ZN3i2c5writeEh>
	i2c_obj.write(this->intToBCD(date));
     cee:	c7 01       	movw	r24, r14
     cf0:	61 2f       	mov	r22, r17
     cf2:	0e 94 50 06 	call	0xca0	; 0xca0 <_ZN3rtc8intToBCDEh>
     cf6:	68 2f       	mov	r22, r24
     cf8:	ce 01       	movw	r24, r28
     cfa:	0e 94 d6 00 	call	0x1ac	; 0x1ac <_ZN3i2c5writeEh>
	i2c_obj.write(this->intToBCD(month));
     cfe:	c7 01       	movw	r24, r14
     d00:	6d 2d       	mov	r22, r13
     d02:	0e 94 50 06 	call	0xca0	; 0xca0 <_ZN3rtc8intToBCDEh>
     d06:	68 2f       	mov	r22, r24
     d08:	ce 01       	movw	r24, r28
     d0a:	0e 94 d6 00 	call	0x1ac	; 0x1ac <_ZN3i2c5writeEh>
	i2c_obj.write(this->intToBCD(year));
     d0e:	c7 01       	movw	r24, r14
     d10:	6c 2d       	mov	r22, r12
     d12:	0e 94 50 06 	call	0xca0	; 0xca0 <_ZN3rtc8intToBCDEh>
     d16:	68 2f       	mov	r22, r24
     d18:	ce 01       	movw	r24, r28
     d1a:	0e 94 d6 00 	call	0x1ac	; 0x1ac <_ZN3i2c5writeEh>
	i2c_obj.stop();
     d1e:	ce 01       	movw	r24, r28
     d20:	0e 94 d2 00 	call	0x1a4	; 0x1a4 <_ZN3i2c4stopEv>
}
     d24:	df 91       	pop	r29
     d26:	cf 91       	pop	r28
     d28:	1f 91       	pop	r17
     d2a:	0f 91       	pop	r16
     d2c:	ff 90       	pop	r15
     d2e:	ef 90       	pop	r14
     d30:	df 90       	pop	r13
     d32:	cf 90       	pop	r12
     d34:	08 95       	ret

00000d36 <_ZN3rtc7setTimeEhhh>:
//=============================================================
// METHOD : setTime
// DESCR. : sets up the RTC to the time passed through as parameters
//=============================================================
void rtc::setTime( unsigned char hours, unsigned char minuts, unsigned char seconds )
{
     d36:	df 92       	push	r13
     d38:	ef 92       	push	r14
     d3a:	ff 92       	push	r15
     d3c:	0f 93       	push	r16
     d3e:	1f 93       	push	r17
     d40:	cf 93       	push	r28
     d42:	df 93       	push	r29
     d44:	8c 01       	movw	r16, r24
     d46:	f6 2e       	mov	r15, r22
     d48:	d4 2e       	mov	r13, r20
     d4a:	e2 2e       	mov	r14, r18
	// to write set the direction bit to 0 
	// module adress is hard coded to 1101000 + direction bit
	i2c_obj.start();
     d4c:	ec 01       	movw	r28, r24
     d4e:	21 96       	adiw	r28, 0x01	; 1
     d50:	ce 01       	movw	r24, r28
     d52:	0e 94 c9 00 	call	0x192	; 0x192 <_ZN3i2c5startEv>
	i2c_obj.write(this->adress & 0xFE); // masking adress to set the direction bit to 0
     d56:	f8 01       	movw	r30, r16
     d58:	60 81       	ld	r22, Z
     d5a:	6e 7f       	andi	r22, 0xFE	; 254
     d5c:	ce 01       	movw	r24, r28
     d5e:	0e 94 d6 00 	call	0x1ac	; 0x1ac <_ZN3i2c5writeEh>
	i2c_obj.write(0x00);
     d62:	ce 01       	movw	r24, r28
     d64:	60 e0       	ldi	r22, 0x00	; 0
     d66:	0e 94 d6 00 	call	0x1ac	; 0x1ac <_ZN3i2c5writeEh>
	i2c_obj.write(this->intToBCD(seconds));
     d6a:	c8 01       	movw	r24, r16
     d6c:	6e 2d       	mov	r22, r14
     d6e:	0e 94 50 06 	call	0xca0	; 0xca0 <_ZN3rtc8intToBCDEh>
     d72:	68 2f       	mov	r22, r24
     d74:	ce 01       	movw	r24, r28
     d76:	0e 94 d6 00 	call	0x1ac	; 0x1ac <_ZN3i2c5writeEh>
	i2c_obj.write(this->intToBCD(minuts));
     d7a:	c8 01       	movw	r24, r16
     d7c:	6d 2d       	mov	r22, r13
     d7e:	0e 94 50 06 	call	0xca0	; 0xca0 <_ZN3rtc8intToBCDEh>
     d82:	68 2f       	mov	r22, r24
     d84:	ce 01       	movw	r24, r28
     d86:	0e 94 d6 00 	call	0x1ac	; 0x1ac <_ZN3i2c5writeEh>
	i2c_obj.write((this->intToBCD(hours) | 0x40)); // masking to set the clock to 24 hours.
     d8a:	c8 01       	movw	r24, r16
     d8c:	6f 2d       	mov	r22, r15
     d8e:	0e 94 50 06 	call	0xca0	; 0xca0 <_ZN3rtc8intToBCDEh>
     d92:	68 2f       	mov	r22, r24
     d94:	60 64       	ori	r22, 0x40	; 64
     d96:	ce 01       	movw	r24, r28
     d98:	0e 94 d6 00 	call	0x1ac	; 0x1ac <_ZN3i2c5writeEh>
	i2c_obj.stop();
     d9c:	ce 01       	movw	r24, r28
     d9e:	0e 94 d2 00 	call	0x1a4	; 0x1a4 <_ZN3i2c4stopEv>
}
     da2:	df 91       	pop	r29
     da4:	cf 91       	pop	r28
     da6:	1f 91       	pop	r17
     da8:	0f 91       	pop	r16
     daa:	ff 90       	pop	r15
     dac:	ef 90       	pop	r14
     dae:	df 90       	pop	r13
     db0:	08 95       	ret

00000db2 <_ZN3rtc8bcdToIntEh>:
// METHOD : bcdToInt
// DESCR. : converts from 8 bit binary coded decimal to int.
//=============================================================
int rtc::bcdToInt( unsigned char BCDval )
{
	unsigned char ones = (BCDval & 0x0F); // mask out the tens
     db2:	26 2f       	mov	r18, r22
     db4:	2f 70       	andi	r18, 0x0F	; 15
	unsigned char tens = ((BCDval & 0xF0) >> 4)*10; // mask out the ones and bitshift 4 places and multiplicate by 10
     db6:	62 95       	swap	r22
     db8:	6f 70       	andi	r22, 0x0F	; 15
     dba:	66 0f       	add	r22, r22
     dbc:	86 2f       	mov	r24, r22
     dbe:	88 0f       	add	r24, r24
     dc0:	88 0f       	add	r24, r24
     dc2:	68 0f       	add	r22, r24
	return ones + tens; // add the numbers to get the integer value.
     dc4:	86 2f       	mov	r24, r22
     dc6:	90 e0       	ldi	r25, 0x00	; 0
     dc8:	82 0f       	add	r24, r18
     dca:	91 1d       	adc	r25, r1
}
     dcc:	08 95       	ret

00000dce <_ZN3rtc7getYearEv>:
//=============================================================
// METHOD : getYear
// DESCR. : returns current Year from the RTC module
//=============================================================
int rtc::getYear()
{
     dce:	ff 92       	push	r15
     dd0:	0f 93       	push	r16
     dd2:	1f 93       	push	r17
     dd4:	cf 93       	push	r28
     dd6:	df 93       	push	r29
     dd8:	8c 01       	movw	r16, r24
	i2c_obj.start();
     dda:	ec 01       	movw	r28, r24
     ddc:	21 96       	adiw	r28, 0x01	; 1
     dde:	ce 01       	movw	r24, r28
     de0:	0e 94 c9 00 	call	0x192	; 0x192 <_ZN3i2c5startEv>
	i2c_obj.write(this->adress & 0xFE);
     de4:	f8 01       	movw	r30, r16
     de6:	60 81       	ld	r22, Z
     de8:	6e 7f       	andi	r22, 0xFE	; 254
     dea:	ce 01       	movw	r24, r28
     dec:	0e 94 d6 00 	call	0x1ac	; 0x1ac <_ZN3i2c5writeEh>
	i2c_obj.write(0x06);
     df0:	ce 01       	movw	r24, r28
     df2:	66 e0       	ldi	r22, 0x06	; 6
     df4:	0e 94 d6 00 	call	0x1ac	; 0x1ac <_ZN3i2c5writeEh>
	i2c_obj.stop();
     df8:	ce 01       	movw	r24, r28
     dfa:	0e 94 d2 00 	call	0x1a4	; 0x1a4 <_ZN3i2c4stopEv>
		
	i2c_obj.start();
     dfe:	ce 01       	movw	r24, r28
     e00:	0e 94 c9 00 	call	0x192	; 0x192 <_ZN3i2c5startEv>
	i2c_obj.write(this->adress | 0x01);
     e04:	f8 01       	movw	r30, r16
     e06:	60 81       	ld	r22, Z
     e08:	61 60       	ori	r22, 0x01	; 1
     e0a:	ce 01       	movw	r24, r28
     e0c:	0e 94 d6 00 	call	0x1ac	; 0x1ac <_ZN3i2c5writeEh>
	unsigned char currentYear = i2c_obj.read(1);
     e10:	ce 01       	movw	r24, r28
     e12:	61 e0       	ldi	r22, 0x01	; 1
     e14:	0e 94 e1 00 	call	0x1c2	; 0x1c2 <_ZN3i2c4readEb>
     e18:	f8 2e       	mov	r15, r24
	i2c_obj.stop();
     e1a:	ce 01       	movw	r24, r28
     e1c:	0e 94 d2 00 	call	0x1a4	; 0x1a4 <_ZN3i2c4stopEv>
		
	return bcdToInt(currentYear);
     e20:	c8 01       	movw	r24, r16
     e22:	6f 2d       	mov	r22, r15
     e24:	0e 94 d9 06 	call	0xdb2	; 0xdb2 <_ZN3rtc8bcdToIntEh>
}
     e28:	df 91       	pop	r29
     e2a:	cf 91       	pop	r28
     e2c:	1f 91       	pop	r17
     e2e:	0f 91       	pop	r16
     e30:	ff 90       	pop	r15
     e32:	08 95       	ret

00000e34 <_ZN3rtc8getMonthEv>:
//=============================================================
// METHOD : getMonth
// DESCR. : returns current month from the RTC module
//=============================================================
int rtc::getMonth()
{
     e34:	ff 92       	push	r15
     e36:	0f 93       	push	r16
     e38:	1f 93       	push	r17
     e3a:	cf 93       	push	r28
     e3c:	df 93       	push	r29
     e3e:	8c 01       	movw	r16, r24
	i2c_obj.start();
     e40:	ec 01       	movw	r28, r24
     e42:	21 96       	adiw	r28, 0x01	; 1
     e44:	ce 01       	movw	r24, r28
     e46:	0e 94 c9 00 	call	0x192	; 0x192 <_ZN3i2c5startEv>
	i2c_obj.write(this->adress & 0xFE);
     e4a:	f8 01       	movw	r30, r16
     e4c:	60 81       	ld	r22, Z
     e4e:	6e 7f       	andi	r22, 0xFE	; 254
     e50:	ce 01       	movw	r24, r28
     e52:	0e 94 d6 00 	call	0x1ac	; 0x1ac <_ZN3i2c5writeEh>
	i2c_obj.write(0x05);
     e56:	ce 01       	movw	r24, r28
     e58:	65 e0       	ldi	r22, 0x05	; 5
     e5a:	0e 94 d6 00 	call	0x1ac	; 0x1ac <_ZN3i2c5writeEh>
	i2c_obj.stop();
     e5e:	ce 01       	movw	r24, r28
     e60:	0e 94 d2 00 	call	0x1a4	; 0x1a4 <_ZN3i2c4stopEv>
		
	i2c_obj.start();
     e64:	ce 01       	movw	r24, r28
     e66:	0e 94 c9 00 	call	0x192	; 0x192 <_ZN3i2c5startEv>
	i2c_obj.write(this->adress | 0x01);
     e6a:	f8 01       	movw	r30, r16
     e6c:	60 81       	ld	r22, Z
     e6e:	61 60       	ori	r22, 0x01	; 1
     e70:	ce 01       	movw	r24, r28
     e72:	0e 94 d6 00 	call	0x1ac	; 0x1ac <_ZN3i2c5writeEh>
	unsigned char currentMonth = i2c_obj.read(1);
     e76:	ce 01       	movw	r24, r28
     e78:	61 e0       	ldi	r22, 0x01	; 1
     e7a:	0e 94 e1 00 	call	0x1c2	; 0x1c2 <_ZN3i2c4readEb>
     e7e:	f8 2e       	mov	r15, r24
	i2c_obj.stop();
     e80:	ce 01       	movw	r24, r28
     e82:	0e 94 d2 00 	call	0x1a4	; 0x1a4 <_ZN3i2c4stopEv>
		
	return bcdToInt(currentMonth);
     e86:	c8 01       	movw	r24, r16
     e88:	6f 2d       	mov	r22, r15
     e8a:	0e 94 d9 06 	call	0xdb2	; 0xdb2 <_ZN3rtc8bcdToIntEh>
}
     e8e:	df 91       	pop	r29
     e90:	cf 91       	pop	r28
     e92:	1f 91       	pop	r17
     e94:	0f 91       	pop	r16
     e96:	ff 90       	pop	r15
     e98:	08 95       	ret

00000e9a <_ZN3rtc7getDateEv>:
//=============================================================
// METHOD : getDate
// DESCR. : returns current minuts from the RTC module
//=============================================================
int rtc::getDate()
{
     e9a:	ff 92       	push	r15
     e9c:	0f 93       	push	r16
     e9e:	1f 93       	push	r17
     ea0:	cf 93       	push	r28
     ea2:	df 93       	push	r29
     ea4:	8c 01       	movw	r16, r24
	i2c_obj.start();
     ea6:	ec 01       	movw	r28, r24
     ea8:	21 96       	adiw	r28, 0x01	; 1
     eaa:	ce 01       	movw	r24, r28
     eac:	0e 94 c9 00 	call	0x192	; 0x192 <_ZN3i2c5startEv>
	i2c_obj.write(this->adress & 0xFE);
     eb0:	f8 01       	movw	r30, r16
     eb2:	60 81       	ld	r22, Z
     eb4:	6e 7f       	andi	r22, 0xFE	; 254
     eb6:	ce 01       	movw	r24, r28
     eb8:	0e 94 d6 00 	call	0x1ac	; 0x1ac <_ZN3i2c5writeEh>
	i2c_obj.write(0x04);
     ebc:	ce 01       	movw	r24, r28
     ebe:	64 e0       	ldi	r22, 0x04	; 4
     ec0:	0e 94 d6 00 	call	0x1ac	; 0x1ac <_ZN3i2c5writeEh>
	i2c_obj.stop();
     ec4:	ce 01       	movw	r24, r28
     ec6:	0e 94 d2 00 	call	0x1a4	; 0x1a4 <_ZN3i2c4stopEv>
		
	i2c_obj.start();
     eca:	ce 01       	movw	r24, r28
     ecc:	0e 94 c9 00 	call	0x192	; 0x192 <_ZN3i2c5startEv>
	i2c_obj.write(this->adress | 0x01);
     ed0:	f8 01       	movw	r30, r16
     ed2:	60 81       	ld	r22, Z
     ed4:	61 60       	ori	r22, 0x01	; 1
     ed6:	ce 01       	movw	r24, r28
     ed8:	0e 94 d6 00 	call	0x1ac	; 0x1ac <_ZN3i2c5writeEh>
	unsigned char currentDate = i2c_obj.read(1);
     edc:	ce 01       	movw	r24, r28
     ede:	61 e0       	ldi	r22, 0x01	; 1
     ee0:	0e 94 e1 00 	call	0x1c2	; 0x1c2 <_ZN3i2c4readEb>
     ee4:	f8 2e       	mov	r15, r24
	i2c_obj.stop();
     ee6:	ce 01       	movw	r24, r28
     ee8:	0e 94 d2 00 	call	0x1a4	; 0x1a4 <_ZN3i2c4stopEv>
		
	return bcdToInt(currentDate);
     eec:	c8 01       	movw	r24, r16
     eee:	6f 2d       	mov	r22, r15
     ef0:	0e 94 d9 06 	call	0xdb2	; 0xdb2 <_ZN3rtc8bcdToIntEh>
}
     ef4:	df 91       	pop	r29
     ef6:	cf 91       	pop	r28
     ef8:	1f 91       	pop	r17
     efa:	0f 91       	pop	r16
     efc:	ff 90       	pop	r15
     efe:	08 95       	ret

00000f00 <_ZN3rtc10GetSecondsEv>:
//=============================================================
// METHOD : getSeconds
// DESCR. : returns current seconds from the RTC module
//=============================================================
int rtc::GetSeconds()
{
     f00:	ff 92       	push	r15
     f02:	0f 93       	push	r16
     f04:	1f 93       	push	r17
     f06:	cf 93       	push	r28
     f08:	df 93       	push	r29
     f0a:	8c 01       	movw	r16, r24
	i2c_obj.start();
     f0c:	ec 01       	movw	r28, r24
     f0e:	21 96       	adiw	r28, 0x01	; 1
     f10:	ce 01       	movw	r24, r28
     f12:	0e 94 c9 00 	call	0x192	; 0x192 <_ZN3i2c5startEv>
	i2c_obj.write(this->adress & 0xFE);
     f16:	f8 01       	movw	r30, r16
     f18:	60 81       	ld	r22, Z
     f1a:	6e 7f       	andi	r22, 0xFE	; 254
     f1c:	ce 01       	movw	r24, r28
     f1e:	0e 94 d6 00 	call	0x1ac	; 0x1ac <_ZN3i2c5writeEh>
	i2c_obj.write(0x00);
     f22:	ce 01       	movw	r24, r28
     f24:	60 e0       	ldi	r22, 0x00	; 0
     f26:	0e 94 d6 00 	call	0x1ac	; 0x1ac <_ZN3i2c5writeEh>
	i2c_obj.stop();
     f2a:	ce 01       	movw	r24, r28
     f2c:	0e 94 d2 00 	call	0x1a4	; 0x1a4 <_ZN3i2c4stopEv>
		
	i2c_obj.start();
     f30:	ce 01       	movw	r24, r28
     f32:	0e 94 c9 00 	call	0x192	; 0x192 <_ZN3i2c5startEv>
	i2c_obj.write(this->adress | 0x01);
     f36:	f8 01       	movw	r30, r16
     f38:	60 81       	ld	r22, Z
     f3a:	61 60       	ori	r22, 0x01	; 1
     f3c:	ce 01       	movw	r24, r28
     f3e:	0e 94 d6 00 	call	0x1ac	; 0x1ac <_ZN3i2c5writeEh>
	unsigned char currentSeconds = i2c_obj.read(1);
     f42:	ce 01       	movw	r24, r28
     f44:	61 e0       	ldi	r22, 0x01	; 1
     f46:	0e 94 e1 00 	call	0x1c2	; 0x1c2 <_ZN3i2c4readEb>
     f4a:	f8 2e       	mov	r15, r24
	i2c_obj.stop();
     f4c:	ce 01       	movw	r24, r28
     f4e:	0e 94 d2 00 	call	0x1a4	; 0x1a4 <_ZN3i2c4stopEv>
		
	return bcdToInt(currentSeconds);
     f52:	c8 01       	movw	r24, r16
     f54:	6f 2d       	mov	r22, r15
     f56:	0e 94 d9 06 	call	0xdb2	; 0xdb2 <_ZN3rtc8bcdToIntEh>
}
     f5a:	df 91       	pop	r29
     f5c:	cf 91       	pop	r28
     f5e:	1f 91       	pop	r17
     f60:	0f 91       	pop	r16
     f62:	ff 90       	pop	r15
     f64:	08 95       	ret

00000f66 <_ZN3rtc9getMinutsEv>:
//=============================================================
// METHOD : getMinuts
// DESCR. : returns current minuts from the RTC module
//=============================================================
int rtc::getMinuts()
{
     f66:	ff 92       	push	r15
     f68:	0f 93       	push	r16
     f6a:	1f 93       	push	r17
     f6c:	cf 93       	push	r28
     f6e:	df 93       	push	r29
     f70:	8c 01       	movw	r16, r24
	i2c_obj.start();
     f72:	ec 01       	movw	r28, r24
     f74:	21 96       	adiw	r28, 0x01	; 1
     f76:	ce 01       	movw	r24, r28
     f78:	0e 94 c9 00 	call	0x192	; 0x192 <_ZN3i2c5startEv>
	i2c_obj.write(this->adress & 0xFE); // set direction to write
     f7c:	f8 01       	movw	r30, r16
     f7e:	60 81       	ld	r22, Z
     f80:	6e 7f       	andi	r22, 0xFE	; 254
     f82:	ce 01       	movw	r24, r28
     f84:	0e 94 d6 00 	call	0x1ac	; 0x1ac <_ZN3i2c5writeEh>
	i2c_obj.write(0x01); // set the adress pointer on RTC to the memory adress we want to read
     f88:	ce 01       	movw	r24, r28
     f8a:	61 e0       	ldi	r22, 0x01	; 1
     f8c:	0e 94 d6 00 	call	0x1ac	; 0x1ac <_ZN3i2c5writeEh>
	i2c_obj.stop();
     f90:	ce 01       	movw	r24, r28
     f92:	0e 94 d2 00 	call	0x1a4	; 0x1a4 <_ZN3i2c4stopEv>
		
	i2c_obj.start();
     f96:	ce 01       	movw	r24, r28
     f98:	0e 94 c9 00 	call	0x192	; 0x192 <_ZN3i2c5startEv>
	i2c_obj.write(this->adress | 0x01); // set to read
     f9c:	f8 01       	movw	r30, r16
     f9e:	60 81       	ld	r22, Z
     fa0:	61 60       	ori	r22, 0x01	; 1
     fa2:	ce 01       	movw	r24, r28
     fa4:	0e 94 d6 00 	call	0x1ac	; 0x1ac <_ZN3i2c5writeEh>
	unsigned char currentMinuts = i2c_obj.read(1); // read 1 byte
     fa8:	ce 01       	movw	r24, r28
     faa:	61 e0       	ldi	r22, 0x01	; 1
     fac:	0e 94 e1 00 	call	0x1c2	; 0x1c2 <_ZN3i2c4readEb>
     fb0:	f8 2e       	mov	r15, r24
	i2c_obj.stop();
     fb2:	ce 01       	movw	r24, r28
     fb4:	0e 94 d2 00 	call	0x1a4	; 0x1a4 <_ZN3i2c4stopEv>
		
	return bcdToInt(currentMinuts);
     fb8:	c8 01       	movw	r24, r16
     fba:	6f 2d       	mov	r22, r15
     fbc:	0e 94 d9 06 	call	0xdb2	; 0xdb2 <_ZN3rtc8bcdToIntEh>
}
     fc0:	df 91       	pop	r29
     fc2:	cf 91       	pop	r28
     fc4:	1f 91       	pop	r17
     fc6:	0f 91       	pop	r16
     fc8:	ff 90       	pop	r15
     fca:	08 95       	ret

00000fcc <_ZN3rtc8getHoursEv>:
//=============================================================
// METHOD : getHours
// DESCR. : returns current hours from the RTC module
//=============================================================
int rtc::getHours()
{
     fcc:	ef 92       	push	r14
     fce:	ff 92       	push	r15
     fd0:	0f 93       	push	r16
     fd2:	1f 93       	push	r17
     fd4:	cf 93       	push	r28
     fd6:	7c 01       	movw	r14, r24
	// to read set the direction bit to 1
	// module adress is hard coded to 1101000 + direction bit
	i2c_obj.start();
     fd8:	8c 01       	movw	r16, r24
     fda:	0f 5f       	subi	r16, 0xFF	; 255
     fdc:	1f 4f       	sbci	r17, 0xFF	; 255
     fde:	c8 01       	movw	r24, r16
     fe0:	0e 94 c9 00 	call	0x192	; 0x192 <_ZN3i2c5startEv>
	i2c_obj.write(this->adress & 0xFE); // set direction to write
     fe4:	f7 01       	movw	r30, r14
     fe6:	60 81       	ld	r22, Z
     fe8:	6e 7f       	andi	r22, 0xFE	; 254
     fea:	c8 01       	movw	r24, r16
     fec:	0e 94 d6 00 	call	0x1ac	; 0x1ac <_ZN3i2c5writeEh>
	i2c_obj.write(0x02); // setting the adress pointer of the RTC to the memory adress we want to read
     ff0:	c8 01       	movw	r24, r16
     ff2:	62 e0       	ldi	r22, 0x02	; 2
     ff4:	0e 94 d6 00 	call	0x1ac	; 0x1ac <_ZN3i2c5writeEh>
	i2c_obj.stop();
     ff8:	c8 01       	movw	r24, r16
     ffa:	0e 94 d2 00 	call	0x1a4	; 0x1a4 <_ZN3i2c4stopEv>
	
	i2c_obj.start();
     ffe:	c8 01       	movw	r24, r16
    1000:	0e 94 c9 00 	call	0x192	; 0x192 <_ZN3i2c5startEv>
	i2c_obj.write(this->adress | 0x01); // set direction to read
    1004:	f7 01       	movw	r30, r14
    1006:	60 81       	ld	r22, Z
    1008:	61 60       	ori	r22, 0x01	; 1
    100a:	c8 01       	movw	r24, r16
    100c:	0e 94 d6 00 	call	0x1ac	; 0x1ac <_ZN3i2c5writeEh>
	unsigned char currentHours = i2c_obj.read(1); // read 1 byte of data
    1010:	c8 01       	movw	r24, r16
    1012:	61 e0       	ldi	r22, 0x01	; 1
    1014:	0e 94 e1 00 	call	0x1c2	; 0x1c2 <_ZN3i2c4readEb>
    1018:	c8 2f       	mov	r28, r24
	i2c_obj.stop();
    101a:	c8 01       	movw	r24, r16
    101c:	0e 94 d2 00 	call	0x1a4	; 0x1a4 <_ZN3i2c4stopEv>
	
	currentHours = currentHours & 0xBF; // masking out the 24 hour bit.
    1020:	6c 2f       	mov	r22, r28
    1022:	6f 7b       	andi	r22, 0xBF	; 191
	return bcdToInt(currentHours);
    1024:	c7 01       	movw	r24, r14
    1026:	0e 94 d9 06 	call	0xdb2	; 0xdb2 <_ZN3rtc8bcdToIntEh>
}
    102a:	cf 91       	pop	r28
    102c:	1f 91       	pop	r17
    102e:	0f 91       	pop	r16
    1030:	ff 90       	pop	r15
    1032:	ef 90       	pop	r14
    1034:	08 95       	ret

00001036 <_ZN6sdCardC1Ei>:
 // METHOD : sdCard Constructor
 // DESCR. : runs the initiation sequence of the sd card and sets 
 // SPI to the supplied speed
 //=============================================================
 
 sdCard::sdCard( int speed ) : spi_obj(125)
    1036:	0f 93       	push	r16
    1038:	1f 93       	push	r17
    103a:	cf 93       	push	r28
    103c:	df 93       	push	r29
    103e:	ec 01       	movw	r28, r24
    1040:	8b 01       	movw	r16, r22
    1042:	6d e7       	ldi	r22, 0x7D	; 125
    1044:	70 e0       	ldi	r23, 0x00	; 0
    1046:	0e 94 70 0b 	call	0x16e0	; 0x16e0 <_ZN3SPIC1Ei>
 {
	 this->speed = speed; 
    104a:	1a 83       	std	Y+2, r17	; 0x02
    104c:	09 83       	std	Y+1, r16	; 0x01

 }
    104e:	df 91       	pop	r29
    1050:	cf 91       	pop	r28
    1052:	1f 91       	pop	r17
    1054:	0f 91       	pop	r16
    1056:	08 95       	ret

00001058 <_ZN6sdCard11sendCommandEhmh>:
// METHOD : sendCommand
// DESCR. : takes a cmd index, an argument and a CRC and creates
// and sends the command to the sd card.
//=============================================================
void sdCard::sendCommand( unsigned char cmdindex, unsigned long argument, unsigned char CRC )
{
    1058:	ef 92       	push	r14
    105a:	ff 92       	push	r15
    105c:	0f 93       	push	r16
    105e:	1f 93       	push	r17
    1060:	cf 93       	push	r28
    1062:	df 93       	push	r29
    1064:	00 d0       	rcall	.+0      	; 0x1066 <_ZN6sdCard11sendCommandEhmh+0xe>
    1066:	0f 92       	push	r0
    1068:	cd b7       	in	r28, 0x3d	; 61
    106a:	de b7       	in	r29, 0x3e	; 62
    106c:	18 2f       	mov	r17, r24
    106e:	e9 2e       	mov	r14, r25
    1070:	f6 2e       	mov	r15, r22
    1072:	29 83       	std	Y+1, r18	; 0x01
    1074:	3a 83       	std	Y+2, r19	; 0x02
    1076:	4b 83       	std	Y+3, r20	; 0x03
    1078:	5c 83       	std	Y+4, r21	; 0x04
	unsigned char *argument_byte_pointer = (unsigned char*)&argument; // creating a pointer to extract bytes to be send.
	spi_obj.writeByte(0xFF); // prepare the sd card by sending 8 clock pulses.
    107a:	6f ef       	ldi	r22, 0xFF	; 255
    107c:	0e 94 77 0b 	call	0x16ee	; 0x16ee <_ZN3SPI9writeByteEh>
	spi_obj.writeByte(0b01000000 | cmdindex);
    1080:	6f 2d       	mov	r22, r15
    1082:	60 64       	ori	r22, 0x40	; 64
    1084:	81 2f       	mov	r24, r17
    1086:	9e 2d       	mov	r25, r14
    1088:	0e 94 77 0b 	call	0x16ee	; 0x16ee <_ZN3SPI9writeByteEh>
	spi_obj.writeByte(argument_byte_pointer[0]);
    108c:	81 2f       	mov	r24, r17
    108e:	9e 2d       	mov	r25, r14
    1090:	69 81       	ldd	r22, Y+1	; 0x01
    1092:	0e 94 77 0b 	call	0x16ee	; 0x16ee <_ZN3SPI9writeByteEh>
	spi_obj.writeByte(argument_byte_pointer[1]);
    1096:	81 2f       	mov	r24, r17
    1098:	9e 2d       	mov	r25, r14
    109a:	6a 81       	ldd	r22, Y+2	; 0x02
    109c:	0e 94 77 0b 	call	0x16ee	; 0x16ee <_ZN3SPI9writeByteEh>
	spi_obj.writeByte(argument_byte_pointer[3]);
    10a0:	81 2f       	mov	r24, r17
    10a2:	9e 2d       	mov	r25, r14
    10a4:	6c 81       	ldd	r22, Y+4	; 0x04
    10a6:	0e 94 77 0b 	call	0x16ee	; 0x16ee <_ZN3SPI9writeByteEh>
	spi_obj.writeByte(argument_byte_pointer[4]);
    10aa:	81 2f       	mov	r24, r17
    10ac:	9e 2d       	mov	r25, r14
    10ae:	6d 81       	ldd	r22, Y+5	; 0x05
    10b0:	0e 94 77 0b 	call	0x16ee	; 0x16ee <_ZN3SPI9writeByteEh>
	spi_obj.writeByte(CRC);
    10b4:	81 2f       	mov	r24, r17
    10b6:	9e 2d       	mov	r25, r14
    10b8:	60 2f       	mov	r22, r16
    10ba:	0e 94 77 0b 	call	0x16ee	; 0x16ee <_ZN3SPI9writeByteEh>
}
    10be:	0f 90       	pop	r0
    10c0:	0f 90       	pop	r0
    10c2:	0f 90       	pop	r0
    10c4:	0f 90       	pop	r0
    10c6:	df 91       	pop	r29
    10c8:	cf 91       	pop	r28
    10ca:	1f 91       	pop	r17
    10cc:	0f 91       	pop	r16
    10ce:	ff 90       	pop	r15
    10d0:	ef 90       	pop	r14
    10d2:	08 95       	ret

000010d4 <_ZN6sdCard14getResponeByteEv>:



unsigned char sdCard::getResponeByte()
{
	return spi_obj.recieveByte();
    10d4:	0e 94 7d 0b 	call	0x16fa	; 0x16fa <_ZN3SPI11recieveByteEv>
}
    10d8:	08 95       	ret

000010da <_ZN6sdCard9writeByteEh>:

void sdCard::writeByte( unsigned char bla)
{
	spi_obj.writeByte(bla);
    10da:	0e 94 77 0b 	call	0x16ee	; 0x16ee <_ZN3SPI9writeByteEh>
}
    10de:	08 95       	ret

000010e0 <_ZN6sdCard4initEv>:

bool sdCard::init()
{
    10e0:	af 92       	push	r10
    10e2:	bf 92       	push	r11
    10e4:	cf 92       	push	r12
    10e6:	df 92       	push	r13
    10e8:	ef 92       	push	r14
    10ea:	ff 92       	push	r15
    10ec:	0f 93       	push	r16
    10ee:	1f 93       	push	r17
    10f0:	cf 93       	push	r28
    10f2:	df 93       	push	r29
    10f4:	00 d0       	rcall	.+0      	; 0x10f6 <_ZN6sdCard4initEv+0x16>
    10f6:	0f 92       	push	r0
    10f8:	0f 92       	push	r0
    10fa:	cd b7       	in	r28, 0x3d	; 61
    10fc:	de b7       	in	r29, 0x3e	; 62
    10fe:	b8 2e       	mov	r11, r24
    1100:	a9 2e       	mov	r10, r25
	#else
		//round up by default
		__ticks_dc = (uint32_t)(ceil(fabs(__tmp)));
	#endif

	__builtin_avr_delay_cycles(__ticks_dc);
    1102:	83 ef       	ldi	r24, 0xF3	; 243
    1104:	91 e0       	ldi	r25, 0x01	; 1
    1106:	01 97       	sbiw	r24, 0x01	; 1
    1108:	f1 f7       	brne	.-4      	; 0x1106 <_ZN6sdCard4initEv+0x26>
    110a:	00 c0       	rjmp	.+0      	; 0x110c <_ZN6sdCard4initEv+0x2c>
    110c:	00 00       	nop
	_delay_ms(2);
	PORTB = PINB | 0b00000001; // sets the SS pin ghigh
    110e:	83 b1       	in	r24, 0x03	; 3
    1110:	81 60       	ori	r24, 0x01	; 1
    1112:	85 b9       	out	0x05, r24	; 5
	spi_obj.setFreq(125); // frequency during initiation must be lower than 400 kHz.
    1114:	cb 2c       	mov	r12, r11
    1116:	da 2c       	mov	r13, r10
    1118:	8b 2d       	mov	r24, r11
    111a:	9a 2d       	mov	r25, r10
    111c:	6d e7       	ldi	r22, 0x7D	; 125
    111e:	70 e0       	ldi	r23, 0x00	; 0
    1120:	0e 94 48 0b 	call	0x1690	; 0x1690 <_ZN3SPI7setFreqEi>
    1124:	e3 ef       	ldi	r30, 0xF3	; 243
    1126:	f1 e0       	ldi	r31, 0x01	; 1
    1128:	31 97       	sbiw	r30, 0x01	; 1
    112a:	f1 f7       	brne	.-4      	; 0x1128 <_ZN6sdCard4initEv+0x48>
    112c:	00 c0       	rjmp	.+0      	; 0x112e <_ZN6sdCard4initEv+0x4e>
    112e:	00 00       	nop
	_delay_ms(2); // let the clock settle in.
	
	// dummy cycles need to be moved to sdCard class.
	spi_obj.writeByte(0xFF);
    1130:	8b 2d       	mov	r24, r11
    1132:	9a 2d       	mov	r25, r10
    1134:	6f ef       	ldi	r22, 0xFF	; 255
    1136:	0e 94 77 0b 	call	0x16ee	; 0x16ee <_ZN3SPI9writeByteEh>
	spi_obj.writeByte(0xFF);
    113a:	8b 2d       	mov	r24, r11
    113c:	9a 2d       	mov	r25, r10
    113e:	6f ef       	ldi	r22, 0xFF	; 255
    1140:	0e 94 77 0b 	call	0x16ee	; 0x16ee <_ZN3SPI9writeByteEh>
	spi_obj.writeByte(0xFF);
    1144:	8b 2d       	mov	r24, r11
    1146:	9a 2d       	mov	r25, r10
    1148:	6f ef       	ldi	r22, 0xFF	; 255
    114a:	0e 94 77 0b 	call	0x16ee	; 0x16ee <_ZN3SPI9writeByteEh>
	spi_obj.writeByte(0xFF);
    114e:	8b 2d       	mov	r24, r11
    1150:	9a 2d       	mov	r25, r10
    1152:	6f ef       	ldi	r22, 0xFF	; 255
    1154:	0e 94 77 0b 	call	0x16ee	; 0x16ee <_ZN3SPI9writeByteEh>
	spi_obj.writeByte(0xFF);
    1158:	8b 2d       	mov	r24, r11
    115a:	9a 2d       	mov	r25, r10
    115c:	6f ef       	ldi	r22, 0xFF	; 255
    115e:	0e 94 77 0b 	call	0x16ee	; 0x16ee <_ZN3SPI9writeByteEh>
	spi_obj.writeByte(0xFF);
    1162:	8b 2d       	mov	r24, r11
    1164:	9a 2d       	mov	r25, r10
    1166:	6f ef       	ldi	r22, 0xFF	; 255
    1168:	0e 94 77 0b 	call	0x16ee	; 0x16ee <_ZN3SPI9writeByteEh>
	spi_obj.writeByte(0xFF);
    116c:	8b 2d       	mov	r24, r11
    116e:	9a 2d       	mov	r25, r10
    1170:	6f ef       	ldi	r22, 0xFF	; 255
    1172:	0e 94 77 0b 	call	0x16ee	; 0x16ee <_ZN3SPI9writeByteEh>
	spi_obj.writeByte(0xFF);
    1176:	8b 2d       	mov	r24, r11
    1178:	9a 2d       	mov	r25, r10
    117a:	6f ef       	ldi	r22, 0xFF	; 255
    117c:	0e 94 77 0b 	call	0x16ee	; 0x16ee <_ZN3SPI9writeByteEh>
	spi_obj.writeByte(0xFF);
    1180:	8b 2d       	mov	r24, r11
    1182:	9a 2d       	mov	r25, r10
    1184:	6f ef       	ldi	r22, 0xFF	; 255
    1186:	0e 94 77 0b 	call	0x16ee	; 0x16ee <_ZN3SPI9writeByteEh>
	spi_obj.writeByte(0xFF);
    118a:	8b 2d       	mov	r24, r11
    118c:	9a 2d       	mov	r25, r10
    118e:	6f ef       	ldi	r22, 0xFF	; 255
    1190:	0e 94 77 0b 	call	0x16ee	; 0x16ee <_ZN3SPI9writeByteEh>
	
	unsigned char result = 0x00; // variable to store the result for error checking.
	do
	{
		PORTB = PINB & 0b11111110; // set the SS pin low
    1194:	83 b1       	in	r24, 0x03	; 3
    1196:	8e 7f       	andi	r24, 0xFE	; 254
    1198:	85 b9       	out	0x05, r24	; 5
		// CMD0 needs to be moved to SD card class
		spi_obj.writeByte(0xFF); // dummy byte to let clock sync.
    119a:	8c 2d       	mov	r24, r12
    119c:	9d 2d       	mov	r25, r13
    119e:	6f ef       	ldi	r22, 0xFF	; 255
    11a0:	0e 94 77 0b 	call	0x16ee	; 0x16ee <_ZN3SPI9writeByteEh>
		spi_obj.writeByte(0x40); // cmd
    11a4:	8c 2d       	mov	r24, r12
    11a6:	9d 2d       	mov	r25, r13
    11a8:	60 e4       	ldi	r22, 0x40	; 64
    11aa:	0e 94 77 0b 	call	0x16ee	; 0x16ee <_ZN3SPI9writeByteEh>
		spi_obj.writeByte(0x00); // no argument
    11ae:	8c 2d       	mov	r24, r12
    11b0:	9d 2d       	mov	r25, r13
    11b2:	60 e0       	ldi	r22, 0x00	; 0
    11b4:	0e 94 77 0b 	call	0x16ee	; 0x16ee <_ZN3SPI9writeByteEh>
		spi_obj.writeByte(0x00); // no argument
    11b8:	8c 2d       	mov	r24, r12
    11ba:	9d 2d       	mov	r25, r13
    11bc:	60 e0       	ldi	r22, 0x00	; 0
    11be:	0e 94 77 0b 	call	0x16ee	; 0x16ee <_ZN3SPI9writeByteEh>
		spi_obj.writeByte(0x00); // no argument
    11c2:	8c 2d       	mov	r24, r12
    11c4:	9d 2d       	mov	r25, r13
    11c6:	60 e0       	ldi	r22, 0x00	; 0
    11c8:	0e 94 77 0b 	call	0x16ee	; 0x16ee <_ZN3SPI9writeByteEh>
		spi_obj.writeByte(0x00); // no argument
    11cc:	8c 2d       	mov	r24, r12
    11ce:	9d 2d       	mov	r25, r13
    11d0:	60 e0       	ldi	r22, 0x00	; 0
    11d2:	0e 94 77 0b 	call	0x16ee	; 0x16ee <_ZN3SPI9writeByteEh>
		spi_obj.writeByte(0x95); // CRC
    11d6:	8c 2d       	mov	r24, r12
    11d8:	9d 2d       	mov	r25, r13
    11da:	65 e9       	ldi	r22, 0x95	; 149
    11dc:	0e 94 77 0b 	call	0x16ee	; 0x16ee <_ZN3SPI9writeByteEh>
		spi_obj.recieveByte(); // grab blank return before the real value is extracted
    11e0:	8c 2d       	mov	r24, r12
    11e2:	9d 2d       	mov	r25, r13
    11e4:	0e 94 7d 0b 	call	0x16fa	; 0x16fa <_ZN3SPI11recieveByteEv>
		result = spi_obj.recieveByte(); // grab R1 return value
    11e8:	8c 2d       	mov	r24, r12
    11ea:	9d 2d       	mov	r25, r13
    11ec:	0e 94 7d 0b 	call	0x16fa	; 0x16fa <_ZN3SPI11recieveByteEv>
	spi_obj.writeByte(0xFF);
	spi_obj.writeByte(0xFF);
	spi_obj.writeByte(0xFF);
	
	unsigned char result = 0x00; // variable to store the result for error checking.
	do
    11f0:	8f 3f       	cpi	r24, 0xFF	; 255
    11f2:	81 f2       	breq	.-96     	; 0x1194 <_ZN6sdCard4initEv+0xb4>
		spi_obj.writeByte(0x95); // CRC
		spi_obj.recieveByte(); // grab blank return before the real value is extracted
		result = spi_obj.recieveByte(); // grab R1 return value
	} while (result == 0xFF);
	
	if(result == 0x01)
    11f4:	81 30       	cpi	r24, 0x01	; 1
    11f6:	09 f0       	breq	.+2      	; 0x11fa <_ZN6sdCard4initEv+0x11a>
    11f8:	ee c0       	rjmp	.+476    	; 0x13d6 <_ZN6sdCard4initEv+0x2f6>
	{
		// CMD8 needs to be moved to SD card class
		spi_obj.writeByte(0xFF); // Dummy byte to let clock sync
    11fa:	8b 2d       	mov	r24, r11
    11fc:	9a 2d       	mov	r25, r10
    11fe:	6f ef       	ldi	r22, 0xFF	; 255
    1200:	0e 94 77 0b 	call	0x16ee	; 0x16ee <_ZN3SPI9writeByteEh>
		spi_obj.writeByte(0x48); // CMD
    1204:	8b 2d       	mov	r24, r11
    1206:	9a 2d       	mov	r25, r10
    1208:	68 e4       	ldi	r22, 0x48	; 72
    120a:	0e 94 77 0b 	call	0x16ee	; 0x16ee <_ZN3SPI9writeByteEh>
		spi_obj.writeByte(0x00); // argument data 4 bytes
    120e:	8b 2d       	mov	r24, r11
    1210:	9a 2d       	mov	r25, r10
    1212:	60 e0       	ldi	r22, 0x00	; 0
    1214:	0e 94 77 0b 	call	0x16ee	; 0x16ee <_ZN3SPI9writeByteEh>
		spi_obj.writeByte(0x00);
    1218:	8b 2d       	mov	r24, r11
    121a:	9a 2d       	mov	r25, r10
    121c:	60 e0       	ldi	r22, 0x00	; 0
    121e:	0e 94 77 0b 	call	0x16ee	; 0x16ee <_ZN3SPI9writeByteEh>
		spi_obj.writeByte(0x01);
    1222:	8b 2d       	mov	r24, r11
    1224:	9a 2d       	mov	r25, r10
    1226:	61 e0       	ldi	r22, 0x01	; 1
    1228:	0e 94 77 0b 	call	0x16ee	; 0x16ee <_ZN3SPI9writeByteEh>
		spi_obj.writeByte(0xAA);
    122c:	8b 2d       	mov	r24, r11
    122e:	9a 2d       	mov	r25, r10
    1230:	6a ea       	ldi	r22, 0xAA	; 170
    1232:	0e 94 77 0b 	call	0x16ee	; 0x16ee <_ZN3SPI9writeByteEh>
		spi_obj.writeByte(0x87); // CRC
    1236:	8b 2d       	mov	r24, r11
    1238:	9a 2d       	mov	r25, r10
    123a:	67 e8       	ldi	r22, 0x87	; 135
    123c:	0e 94 77 0b 	call	0x16ee	; 0x16ee <_ZN3SPI9writeByteEh>
	else
	{
		return false;
	}
	unsigned char cmd8result[5];
	spi_obj.recieveByte(); // grab useless data from pause before the real response.
    1240:	8b 2d       	mov	r24, r11
    1242:	9a 2d       	mov	r25, r10
    1244:	0e 94 7d 0b 	call	0x16fa	; 0x16fa <_ZN3SPI11recieveByteEv>
    1248:	8e 01       	movw	r16, r28
    124a:	0f 5f       	subi	r16, 0xFF	; 255
    124c:	1f 4f       	sbci	r17, 0xFF	; 255
void sdCard::writeByte( unsigned char bla)
{
	spi_obj.writeByte(bla);
}

bool sdCard::init()
    124e:	0f 2e       	mov	r0, r31
    1250:	f6 e0       	ldi	r31, 0x06	; 6
    1252:	ef 2e       	mov	r14, r31
    1254:	ff 24       	eor	r15, r15
    1256:	f0 2d       	mov	r31, r0
    1258:	ec 0e       	add	r14, r28
    125a:	fd 1e       	adc	r15, r29
	}
	unsigned char cmd8result[5];
	spi_obj.recieveByte(); // grab useless data from pause before the real response.
	for(int i = 0; i < 5; i++)
	{
		cmd8result[i] = spi_obj.recieveByte(); // fill in the response array
    125c:	8c 2d       	mov	r24, r12
    125e:	9d 2d       	mov	r25, r13
    1260:	0e 94 7d 0b 	call	0x16fa	; 0x16fa <_ZN3SPI11recieveByteEv>
    1264:	f8 01       	movw	r30, r16
    1266:	81 93       	st	Z+, r24
    1268:	8f 01       	movw	r16, r30
	{
		return false;
	}
	unsigned char cmd8result[5];
	spi_obj.recieveByte(); // grab useless data from pause before the real response.
	for(int i = 0; i < 5; i++)
    126a:	ee 15       	cp	r30, r14
    126c:	ff 05       	cpc	r31, r15
    126e:	b1 f7       	brne	.-20     	; 0x125c <_ZN6sdCard4initEv+0x17c>
	{
		cmd8result[i] = spi_obj.recieveByte(); // fill in the response array
	}

	if( cmd8result[0] == 0x01 && cmd8result[1] == 0x00 && cmd8result[2] == 0x00 && cmd8result[3] == 0x01 && cmd8result[4] == 0xAA ) // validate that the card is sd v2
    1270:	89 81       	ldd	r24, Y+1	; 0x01
    1272:	81 30       	cpi	r24, 0x01	; 1
    1274:	09 f0       	breq	.+2      	; 0x1278 <_ZN6sdCard4initEv+0x198>
    1276:	b1 c0       	rjmp	.+354    	; 0x13da <_ZN6sdCard4initEv+0x2fa>
    1278:	8a 81       	ldd	r24, Y+2	; 0x02
    127a:	88 23       	and	r24, r24
    127c:	09 f0       	breq	.+2      	; 0x1280 <_ZN6sdCard4initEv+0x1a0>
    127e:	af c0       	rjmp	.+350    	; 0x13de <_ZN6sdCard4initEv+0x2fe>
    1280:	8b 81       	ldd	r24, Y+3	; 0x03
    1282:	88 23       	and	r24, r24
    1284:	09 f0       	breq	.+2      	; 0x1288 <_ZN6sdCard4initEv+0x1a8>
    1286:	ad c0       	rjmp	.+346    	; 0x13e2 <_ZN6sdCard4initEv+0x302>
    1288:	8c 81       	ldd	r24, Y+4	; 0x04
    128a:	81 30       	cpi	r24, 0x01	; 1
    128c:	09 f0       	breq	.+2      	; 0x1290 <_ZN6sdCard4initEv+0x1b0>
    128e:	ab c0       	rjmp	.+342    	; 0x13e6 <_ZN6sdCard4initEv+0x306>
    1290:	8d 81       	ldd	r24, Y+5	; 0x05
    1292:	8a 3a       	cpi	r24, 0xAA	; 170
    1294:	09 f0       	breq	.+2      	; 0x1298 <_ZN6sdCard4initEv+0x1b8>
    1296:	a9 c0       	rjmp	.+338    	; 0x13ea <_ZN6sdCard4initEv+0x30a>
		// if cmd8 successfull start initiating the card
		do // loop fra ACMD41 untill card goes busy.
		{ 
		// CMD55 part of ACMD41
		
		spi_obj.writeByte(0xFF); // sync byte
    1298:	8c 2d       	mov	r24, r12
    129a:	9d 2d       	mov	r25, r13
    129c:	6f ef       	ldi	r22, 0xFF	; 255
    129e:	0e 94 77 0b 	call	0x16ee	; 0x16ee <_ZN3SPI9writeByteEh>
		spi_obj.writeByte(0x77); // CMD 55
    12a2:	8c 2d       	mov	r24, r12
    12a4:	9d 2d       	mov	r25, r13
    12a6:	67 e7       	ldi	r22, 0x77	; 119
    12a8:	0e 94 77 0b 	call	0x16ee	; 0x16ee <_ZN3SPI9writeByteEh>
		spi_obj.writeByte(0x00);
    12ac:	8c 2d       	mov	r24, r12
    12ae:	9d 2d       	mov	r25, r13
    12b0:	60 e0       	ldi	r22, 0x00	; 0
    12b2:	0e 94 77 0b 	call	0x16ee	; 0x16ee <_ZN3SPI9writeByteEh>
		spi_obj.writeByte(0x00);
    12b6:	8c 2d       	mov	r24, r12
    12b8:	9d 2d       	mov	r25, r13
    12ba:	60 e0       	ldi	r22, 0x00	; 0
    12bc:	0e 94 77 0b 	call	0x16ee	; 0x16ee <_ZN3SPI9writeByteEh>
		spi_obj.writeByte(0x00);
    12c0:	8c 2d       	mov	r24, r12
    12c2:	9d 2d       	mov	r25, r13
    12c4:	60 e0       	ldi	r22, 0x00	; 0
    12c6:	0e 94 77 0b 	call	0x16ee	; 0x16ee <_ZN3SPI9writeByteEh>
		spi_obj.writeByte(0x00);
    12ca:	8c 2d       	mov	r24, r12
    12cc:	9d 2d       	mov	r25, r13
    12ce:	60 e0       	ldi	r22, 0x00	; 0
    12d0:	0e 94 77 0b 	call	0x16ee	; 0x16ee <_ZN3SPI9writeByteEh>
		spi_obj.writeByte(0xFF); // dummy CRC since CRC should be off now;
    12d4:	8c 2d       	mov	r24, r12
    12d6:	9d 2d       	mov	r25, r13
    12d8:	6f ef       	ldi	r22, 0xFF	; 255
    12da:	0e 94 77 0b 	call	0x16ee	; 0x16ee <_ZN3SPI9writeByteEh>
		spi_obj.recieveByte();
    12de:	8c 2d       	mov	r24, r12
    12e0:	9d 2d       	mov	r25, r13
    12e2:	0e 94 7d 0b 	call	0x16fa	; 0x16fa <_ZN3SPI11recieveByteEv>
		
		result = spi_obj.recieveByte();
    12e6:	8c 2d       	mov	r24, r12
    12e8:	9d 2d       	mov	r25, r13
    12ea:	0e 94 7d 0b 	call	0x16fa	; 0x16fa <_ZN3SPI11recieveByteEv>
	
		//rest of ACMD41
		spi_obj.writeByte(0xFF);
    12ee:	8c 2d       	mov	r24, r12
    12f0:	9d 2d       	mov	r25, r13
    12f2:	6f ef       	ldi	r22, 0xFF	; 255
    12f4:	0e 94 77 0b 	call	0x16ee	; 0x16ee <_ZN3SPI9writeByteEh>
		spi_obj.writeByte(0x69); // acmd41
    12f8:	8c 2d       	mov	r24, r12
    12fa:	9d 2d       	mov	r25, r13
    12fc:	69 e6       	ldi	r22, 0x69	; 105
    12fe:	0e 94 77 0b 	call	0x16ee	; 0x16ee <_ZN3SPI9writeByteEh>
		spi_obj.writeByte(0x40); // HCS bit set high.
    1302:	8c 2d       	mov	r24, r12
    1304:	9d 2d       	mov	r25, r13
    1306:	60 e4       	ldi	r22, 0x40	; 64
    1308:	0e 94 77 0b 	call	0x16ee	; 0x16ee <_ZN3SPI9writeByteEh>
		spi_obj.writeByte(0x00);
    130c:	8c 2d       	mov	r24, r12
    130e:	9d 2d       	mov	r25, r13
    1310:	60 e0       	ldi	r22, 0x00	; 0
    1312:	0e 94 77 0b 	call	0x16ee	; 0x16ee <_ZN3SPI9writeByteEh>
		spi_obj.writeByte(0x00);
    1316:	8c 2d       	mov	r24, r12
    1318:	9d 2d       	mov	r25, r13
    131a:	60 e0       	ldi	r22, 0x00	; 0
    131c:	0e 94 77 0b 	call	0x16ee	; 0x16ee <_ZN3SPI9writeByteEh>
		spi_obj.writeByte(0x00);
    1320:	8c 2d       	mov	r24, r12
    1322:	9d 2d       	mov	r25, r13
    1324:	60 e0       	ldi	r22, 0x00	; 0
    1326:	0e 94 77 0b 	call	0x16ee	; 0x16ee <_ZN3SPI9writeByteEh>
		spi_obj.writeByte(0xFF); // dummy CRC
    132a:	8c 2d       	mov	r24, r12
    132c:	9d 2d       	mov	r25, r13
    132e:	6f ef       	ldi	r22, 0xFF	; 255
    1330:	0e 94 77 0b 	call	0x16ee	; 0x16ee <_ZN3SPI9writeByteEh>
		spi_obj.recieveByte();
    1334:	8c 2d       	mov	r24, r12
    1336:	9d 2d       	mov	r25, r13
    1338:	0e 94 7d 0b 	call	0x16fa	; 0x16fa <_ZN3SPI11recieveByteEv>
		result = spi_obj.recieveByte();
    133c:	8c 2d       	mov	r24, r12
    133e:	9d 2d       	mov	r25, r13
    1340:	0e 94 7d 0b 	call	0x16fa	; 0x16fa <_ZN3SPI11recieveByteEv>
	}

	if( cmd8result[0] == 0x01 && cmd8result[1] == 0x00 && cmd8result[2] == 0x00 && cmd8result[3] == 0x01 && cmd8result[4] == 0xAA ) // validate that the card is sd v2
	{
		// if cmd8 successfull start initiating the card
		do // loop fra ACMD41 untill card goes busy.
    1344:	88 23       	and	r24, r24
    1346:	09 f0       	breq	.+2      	; 0x134a <_ZN6sdCard4initEv+0x26a>
    1348:	a7 cf       	rjmp	.-178    	; 0x1298 <_ZN6sdCard4initEv+0x1b8>
		
		//SendChar(result);
		} while(result != 0x00); // loop untill card goes busy, indicating the cmd was accepted.
	
		// sending command 58 to request OCR register
		spi_obj.writeByte(0xFF);
    134a:	8b 2d       	mov	r24, r11
    134c:	9a 2d       	mov	r25, r10
    134e:	6f ef       	ldi	r22, 0xFF	; 255
    1350:	0e 94 77 0b 	call	0x16ee	; 0x16ee <_ZN3SPI9writeByteEh>
		spi_obj.writeByte(0x7A); // cmd 58
    1354:	8b 2d       	mov	r24, r11
    1356:	9a 2d       	mov	r25, r10
    1358:	6a e7       	ldi	r22, 0x7A	; 122
    135a:	0e 94 77 0b 	call	0x16ee	; 0x16ee <_ZN3SPI9writeByteEh>
		spi_obj.writeByte(0x00);
    135e:	8b 2d       	mov	r24, r11
    1360:	9a 2d       	mov	r25, r10
    1362:	60 e0       	ldi	r22, 0x00	; 0
    1364:	0e 94 77 0b 	call	0x16ee	; 0x16ee <_ZN3SPI9writeByteEh>
		spi_obj.writeByte(0x00);
    1368:	8b 2d       	mov	r24, r11
    136a:	9a 2d       	mov	r25, r10
    136c:	60 e0       	ldi	r22, 0x00	; 0
    136e:	0e 94 77 0b 	call	0x16ee	; 0x16ee <_ZN3SPI9writeByteEh>
		spi_obj.writeByte(0x00);
    1372:	8b 2d       	mov	r24, r11
    1374:	9a 2d       	mov	r25, r10
    1376:	60 e0       	ldi	r22, 0x00	; 0
    1378:	0e 94 77 0b 	call	0x16ee	; 0x16ee <_ZN3SPI9writeByteEh>
		spi_obj.writeByte(0x00);
    137c:	8b 2d       	mov	r24, r11
    137e:	9a 2d       	mov	r25, r10
    1380:	60 e0       	ldi	r22, 0x00	; 0
    1382:	0e 94 77 0b 	call	0x16ee	; 0x16ee <_ZN3SPI9writeByteEh>
		spi_obj.writeByte(0xFF); // dummy CRC;
    1386:	8b 2d       	mov	r24, r11
    1388:	9a 2d       	mov	r25, r10
    138a:	6f ef       	ldi	r22, 0xFF	; 255
    138c:	0e 94 77 0b 	call	0x16ee	; 0x16ee <_ZN3SPI9writeByteEh>
	
		unsigned char OCR[4]; // used to store the OCR register
	
		spi_obj.recieveByte();
    1390:	8b 2d       	mov	r24, r11
    1392:	9a 2d       	mov	r25, r10
    1394:	0e 94 7d 0b 	call	0x16fa	; 0x16fa <_ZN3SPI11recieveByteEv>
		spi_obj.recieveByte(); // R1 byte, not using the content of it here, as i'm keeping it simplified.
    1398:	8b 2d       	mov	r24, r11
    139a:	9a 2d       	mov	r25, r10
    139c:	0e 94 7d 0b 	call	0x16fa	; 0x16fa <_ZN3SPI11recieveByteEv>
		OCR[0] = spi_obj.recieveByte(); // getting the 4 bytes of OCR
    13a0:	8b 2d       	mov	r24, r11
    13a2:	9a 2d       	mov	r25, r10
    13a4:	0e 94 7d 0b 	call	0x16fa	; 0x16fa <_ZN3SPI11recieveByteEv>
    13a8:	08 2f       	mov	r16, r24
		OCR[1] = spi_obj.recieveByte();
    13aa:	8b 2d       	mov	r24, r11
    13ac:	9a 2d       	mov	r25, r10
    13ae:	0e 94 7d 0b 	call	0x16fa	; 0x16fa <_ZN3SPI11recieveByteEv>
		OCR[2] = spi_obj.recieveByte();
    13b2:	8b 2d       	mov	r24, r11
    13b4:	9a 2d       	mov	r25, r10
    13b6:	0e 94 7d 0b 	call	0x16fa	; 0x16fa <_ZN3SPI11recieveByteEv>
		OCR[3] = spi_obj.recieveByte();
    13ba:	8b 2d       	mov	r24, r11
    13bc:	9a 2d       	mov	r25, r10
    13be:	0e 94 7d 0b 	call	0x16fa	; 0x16fa <_ZN3SPI11recieveByteEv>
	
		unsigned char isvalid = OCR[0] & 0b1000000; // getting the validate pin first needs to be high for HC pin to be valid;
		unsigned char isHC = OCR[0] & 0b01000000; // getting HC pin value.
		if(isHC && isvalid) 
    13c2:	06 ff       	sbrs	r16, 6
    13c4:	14 c0       	rjmp	.+40     	; 0x13ee <_ZN6sdCard4initEv+0x30e>
		{
			spi_obj.setFreq(4000);
    13c6:	8b 2d       	mov	r24, r11
    13c8:	9a 2d       	mov	r25, r10
    13ca:	60 ea       	ldi	r22, 0xA0	; 160
    13cc:	7f e0       	ldi	r23, 0x0F	; 15
    13ce:	0e 94 48 0b 	call	0x1690	; 0x1690 <_ZN3SPI7setFreqEi>
			return true;
    13d2:	81 e0       	ldi	r24, 0x01	; 1
    13d4:	0d c0       	rjmp	.+26     	; 0x13f0 <_ZN6sdCard4initEv+0x310>
		spi_obj.writeByte(0x87); // CRC
		//0x48 00 00 01 AA 87
	}
	else
	{
		return false;
    13d6:	80 e0       	ldi	r24, 0x00	; 0
    13d8:	0b c0       	rjmp	.+22     	; 0x13f0 <_ZN6sdCard4initEv+0x310>
			return false;
		}	
	} 
	else 
	{
		return false;
    13da:	80 e0       	ldi	r24, 0x00	; 0
    13dc:	09 c0       	rjmp	.+18     	; 0x13f0 <_ZN6sdCard4initEv+0x310>
    13de:	80 e0       	ldi	r24, 0x00	; 0
    13e0:	07 c0       	rjmp	.+14     	; 0x13f0 <_ZN6sdCard4initEv+0x310>
    13e2:	80 e0       	ldi	r24, 0x00	; 0
    13e4:	05 c0       	rjmp	.+10     	; 0x13f0 <_ZN6sdCard4initEv+0x310>
    13e6:	80 e0       	ldi	r24, 0x00	; 0
    13e8:	03 c0       	rjmp	.+6      	; 0x13f0 <_ZN6sdCard4initEv+0x310>
    13ea:	80 e0       	ldi	r24, 0x00	; 0
    13ec:	01 c0       	rjmp	.+2      	; 0x13f0 <_ZN6sdCard4initEv+0x310>
		{
			spi_obj.setFreq(4000);
			return true;
		}
		else {
			return false;
    13ee:	80 e0       	ldi	r24, 0x00	; 0
	{
		return false;
	}		
			
	
}
    13f0:	0f 90       	pop	r0
    13f2:	0f 90       	pop	r0
    13f4:	0f 90       	pop	r0
    13f6:	0f 90       	pop	r0
    13f8:	0f 90       	pop	r0
    13fa:	df 91       	pop	r29
    13fc:	cf 91       	pop	r28
    13fe:	1f 91       	pop	r17
    1400:	0f 91       	pop	r16
    1402:	ff 90       	pop	r15
    1404:	ef 90       	pop	r14
    1406:	df 90       	pop	r13
    1408:	cf 90       	pop	r12
    140a:	bf 90       	pop	r11
    140c:	af 90       	pop	r10
    140e:	08 95       	ret

00001410 <_ZN6sdCard9readBlockEmPh>:

bool sdCard::readBlock( unsigned long adress, unsigned char outputdata[] )
{
    1410:	af 92       	push	r10
    1412:	bf 92       	push	r11
    1414:	cf 92       	push	r12
    1416:	df 92       	push	r13
    1418:	ef 92       	push	r14
    141a:	ff 92       	push	r15
    141c:	0f 93       	push	r16
    141e:	1f 93       	push	r17
    1420:	cf 93       	push	r28
    1422:	df 93       	push	r29
    1424:	00 d0       	rcall	.+0      	; 0x1426 <_ZN6sdCard9readBlockEmPh+0x16>
    1426:	0f 92       	push	r0
    1428:	cd b7       	in	r28, 0x3d	; 61
    142a:	de b7       	in	r29, 0x3e	; 62
    142c:	b8 2e       	mov	r11, r24
    142e:	a9 2e       	mov	r10, r25
    1430:	49 83       	std	Y+1, r20	; 0x01
    1432:	5a 83       	std	Y+2, r21	; 0x02
    1434:	6b 83       	std	Y+3, r22	; 0x03
    1436:	7c 83       	std	Y+4, r23	; 0x04
    1438:	02 2f       	mov	r16, r18
    143a:	13 2f       	mov	r17, r19
	unsigned char *argument_byte_pointer = (unsigned char*)&adress;
	spi_obj.writeByte(0xFF); // clock sync
    143c:	c8 2e       	mov	r12, r24
    143e:	d9 2e       	mov	r13, r25
    1440:	6f ef       	ldi	r22, 0xFF	; 255
    1442:	0e 94 77 0b 	call	0x16ee	; 0x16ee <_ZN3SPI9writeByteEh>
	spi_obj.writeByte(0x51);
    1446:	8b 2d       	mov	r24, r11
    1448:	9a 2d       	mov	r25, r10
    144a:	61 e5       	ldi	r22, 0x51	; 81
    144c:	0e 94 77 0b 	call	0x16ee	; 0x16ee <_ZN3SPI9writeByteEh>
	spi_obj.writeByte(argument_byte_pointer[3]);
    1450:	8b 2d       	mov	r24, r11
    1452:	9a 2d       	mov	r25, r10
    1454:	6c 81       	ldd	r22, Y+4	; 0x04
    1456:	0e 94 77 0b 	call	0x16ee	; 0x16ee <_ZN3SPI9writeByteEh>
	spi_obj.writeByte(argument_byte_pointer[2]);
    145a:	8b 2d       	mov	r24, r11
    145c:	9a 2d       	mov	r25, r10
    145e:	6b 81       	ldd	r22, Y+3	; 0x03
    1460:	0e 94 77 0b 	call	0x16ee	; 0x16ee <_ZN3SPI9writeByteEh>
	spi_obj.writeByte(argument_byte_pointer[1]);
    1464:	8b 2d       	mov	r24, r11
    1466:	9a 2d       	mov	r25, r10
    1468:	6a 81       	ldd	r22, Y+2	; 0x02
    146a:	0e 94 77 0b 	call	0x16ee	; 0x16ee <_ZN3SPI9writeByteEh>
	spi_obj.writeByte(argument_byte_pointer[0]);
    146e:	8b 2d       	mov	r24, r11
    1470:	9a 2d       	mov	r25, r10
    1472:	69 81       	ldd	r22, Y+1	; 0x01
    1474:	0e 94 77 0b 	call	0x16ee	; 0x16ee <_ZN3SPI9writeByteEh>
	spi_obj.writeByte(0xFF); // dummy CRC;
    1478:	8b 2d       	mov	r24, r11
    147a:	9a 2d       	mov	r25, r10
    147c:	6f ef       	ldi	r22, 0xFF	; 255
    147e:	0e 94 77 0b 	call	0x16ee	; 0x16ee <_ZN3SPI9writeByteEh>
	
	spi_obj.recieveByte(); // getting empty response out of the way.
    1482:	8b 2d       	mov	r24, r11
    1484:	9a 2d       	mov	r25, r10
    1486:	0e 94 7d 0b 	call	0x16fa	; 0x16fa <_ZN3SPI11recieveByteEv>
	unsigned char result;
	result = spi_obj.recieveByte();
    148a:	8b 2d       	mov	r24, r11
    148c:	9a 2d       	mov	r25, r10
    148e:	0e 94 7d 0b 	call	0x16fa	; 0x16fa <_ZN3SPI11recieveByteEv>
	if(result != 0x00){
    1492:	88 23       	and	r24, r24
    1494:	19 f5       	brne	.+70     	; 0x14dc <_ZN6sdCard9readBlockEmPh+0xcc>
		return false;
	}
	
	do 
	{
		result = spi_obj.recieveByte();
    1496:	8c 2d       	mov	r24, r12
    1498:	9d 2d       	mov	r25, r13
    149a:	0e 94 7d 0b 	call	0x16fa	; 0x16fa <_ZN3SPI11recieveByteEv>
	result = spi_obj.recieveByte();
	if(result != 0x00){
		return false;
	}
	
	do 
    149e:	8f 3f       	cpi	r24, 0xFF	; 255
    14a0:	d1 f3       	breq	.-12     	; 0x1496 <_ZN6sdCard9readBlockEmPh+0x86>
	{
		result = spi_obj.recieveByte();
	} while (result == 0xFF);
	
	if(result != 0xFE){
    14a2:	8e 3f       	cpi	r24, 0xFE	; 254
    14a4:	e9 f4       	brne	.+58     	; 0x14e0 <_ZN6sdCard9readBlockEmPh+0xd0>
    14a6:	e0 2e       	mov	r14, r16
    14a8:	f1 2e       	mov	r15, r17
    14aa:	00 e0       	ldi	r16, 0x00	; 0
    14ac:	10 e0       	ldi	r17, 0x00	; 0
		return false;
	}
	
	for( int i = 0; i < 512; i++ ){ // filling up the supplied array with the data content of the requested block.
		outputdata[i] = spi_obj.recieveByte();
    14ae:	8c 2d       	mov	r24, r12
    14b0:	9d 2d       	mov	r25, r13
    14b2:	0e 94 7d 0b 	call	0x16fa	; 0x16fa <_ZN3SPI11recieveByteEv>
    14b6:	f7 01       	movw	r30, r14
    14b8:	81 93       	st	Z+, r24
    14ba:	7f 01       	movw	r14, r30
	
	if(result != 0xFE){
		return false;
	}
	
	for( int i = 0; i < 512; i++ ){ // filling up the supplied array with the data content of the requested block.
    14bc:	0f 5f       	subi	r16, 0xFF	; 255
    14be:	1f 4f       	sbci	r17, 0xFF	; 255
    14c0:	f2 e0       	ldi	r31, 0x02	; 2
    14c2:	00 30       	cpi	r16, 0x00	; 0
    14c4:	1f 07       	cpc	r17, r31
    14c6:	99 f7       	brne	.-26     	; 0x14ae <_ZN6sdCard9readBlockEmPh+0x9e>
		outputdata[i] = spi_obj.recieveByte();
	}
	spi_obj.recieveByte();
    14c8:	8b 2d       	mov	r24, r11
    14ca:	9a 2d       	mov	r25, r10
    14cc:	0e 94 7d 0b 	call	0x16fa	; 0x16fa <_ZN3SPI11recieveByteEv>
	spi_obj.recieveByte();	
    14d0:	8b 2d       	mov	r24, r11
    14d2:	9a 2d       	mov	r25, r10
    14d4:	0e 94 7d 0b 	call	0x16fa	; 0x16fa <_ZN3SPI11recieveByteEv>
	return true;
    14d8:	81 e0       	ldi	r24, 0x01	; 1
    14da:	03 c0       	rjmp	.+6      	; 0x14e2 <_ZN6sdCard9readBlockEmPh+0xd2>
	
	spi_obj.recieveByte(); // getting empty response out of the way.
	unsigned char result;
	result = spi_obj.recieveByte();
	if(result != 0x00){
		return false;
    14dc:	80 e0       	ldi	r24, 0x00	; 0
    14de:	01 c0       	rjmp	.+2      	; 0x14e2 <_ZN6sdCard9readBlockEmPh+0xd2>
	{
		result = spi_obj.recieveByte();
	} while (result == 0xFF);
	
	if(result != 0xFE){
		return false;
    14e0:	80 e0       	ldi	r24, 0x00	; 0
		outputdata[i] = spi_obj.recieveByte();
	}
	spi_obj.recieveByte();
	spi_obj.recieveByte();	
	return true;
}
    14e2:	0f 90       	pop	r0
    14e4:	0f 90       	pop	r0
    14e6:	0f 90       	pop	r0
    14e8:	0f 90       	pop	r0
    14ea:	df 91       	pop	r29
    14ec:	cf 91       	pop	r28
    14ee:	1f 91       	pop	r17
    14f0:	0f 91       	pop	r16
    14f2:	ff 90       	pop	r15
    14f4:	ef 90       	pop	r14
    14f6:	df 90       	pop	r13
    14f8:	cf 90       	pop	r12
    14fa:	bf 90       	pop	r11
    14fc:	af 90       	pop	r10
    14fe:	08 95       	ret

00001500 <_ZN6sdCard10writeBlockEmPKh>:

bool sdCard::writeBlock( unsigned long adress, const unsigned char data[] )
{
    1500:	af 92       	push	r10
    1502:	bf 92       	push	r11
    1504:	cf 92       	push	r12
    1506:	df 92       	push	r13
    1508:	ef 92       	push	r14
    150a:	ff 92       	push	r15
    150c:	0f 93       	push	r16
    150e:	1f 93       	push	r17
    1510:	cf 93       	push	r28
    1512:	df 93       	push	r29
    1514:	00 d0       	rcall	.+0      	; 0x1516 <_ZN6sdCard10writeBlockEmPKh+0x16>
    1516:	0f 92       	push	r0
    1518:	cd b7       	in	r28, 0x3d	; 61
    151a:	de b7       	in	r29, 0x3e	; 62
    151c:	b8 2e       	mov	r11, r24
    151e:	a9 2e       	mov	r10, r25
    1520:	49 83       	std	Y+1, r20	; 0x01
    1522:	5a 83       	std	Y+2, r21	; 0x02
    1524:	6b 83       	std	Y+3, r22	; 0x03
    1526:	7c 83       	std	Y+4, r23	; 0x04
    1528:	02 2f       	mov	r16, r18
    152a:	13 2f       	mov	r17, r19
		unsigned char *argument_byte_pointer = (unsigned char*)&adress;

		//sendchar(dataout[7]);
		spi_obj.writeByte(0xff); // dummy byte
    152c:	c8 2e       	mov	r12, r24
    152e:	d9 2e       	mov	r13, r25
    1530:	6f ef       	ldi	r22, 0xFF	; 255
    1532:	0e 94 77 0b 	call	0x16ee	; 0x16ee <_ZN3SPI9writeByteEh>
		spi_obj.writeByte(0x58); // write cmd
    1536:	8b 2d       	mov	r24, r11
    1538:	9a 2d       	mov	r25, r10
    153a:	68 e5       	ldi	r22, 0x58	; 88
    153c:	0e 94 77 0b 	call	0x16ee	; 0x16ee <_ZN3SPI9writeByteEh>
		spi_obj.writeByte(argument_byte_pointer[3]); // adress bytes 
    1540:	8b 2d       	mov	r24, r11
    1542:	9a 2d       	mov	r25, r10
    1544:	6c 81       	ldd	r22, Y+4	; 0x04
    1546:	0e 94 77 0b 	call	0x16ee	; 0x16ee <_ZN3SPI9writeByteEh>
		spi_obj.writeByte(argument_byte_pointer[2]); // adress bytes 
    154a:	8b 2d       	mov	r24, r11
    154c:	9a 2d       	mov	r25, r10
    154e:	6b 81       	ldd	r22, Y+3	; 0x03
    1550:	0e 94 77 0b 	call	0x16ee	; 0x16ee <_ZN3SPI9writeByteEh>
		spi_obj.writeByte(argument_byte_pointer[1]); // adress bytes 
    1554:	8b 2d       	mov	r24, r11
    1556:	9a 2d       	mov	r25, r10
    1558:	6a 81       	ldd	r22, Y+2	; 0x02
    155a:	0e 94 77 0b 	call	0x16ee	; 0x16ee <_ZN3SPI9writeByteEh>
		spi_obj.writeByte(argument_byte_pointer[0]); // adress bytes 
    155e:	8b 2d       	mov	r24, r11
    1560:	9a 2d       	mov	r25, r10
    1562:	69 81       	ldd	r22, Y+1	; 0x01
    1564:	0e 94 77 0b 	call	0x16ee	; 0x16ee <_ZN3SPI9writeByteEh>
		spi_obj.writeByte(0xff); // CRC
    1568:	8b 2d       	mov	r24, r11
    156a:	9a 2d       	mov	r25, r10
    156c:	6f ef       	ldi	r22, 0xFF	; 255
    156e:	0e 94 77 0b 	call	0x16ee	; 0x16ee <_ZN3SPI9writeByteEh>
		spi_obj.recieveByte(); // grab that idle byte returned
    1572:	8b 2d       	mov	r24, r11
    1574:	9a 2d       	mov	r25, r10
    1576:	0e 94 7d 0b 	call	0x16fa	; 0x16fa <_ZN3SPI11recieveByteEv>
		unsigned char val = spi_obj.recieveByte(); // grab return value (R1)
    157a:	8b 2d       	mov	r24, r11
    157c:	9a 2d       	mov	r25, r10
    157e:	0e 94 7d 0b 	call	0x16fa	; 0x16fa <_ZN3SPI11recieveByteEv>
		if(val != 0x00){ // fejl hvis ikke busy. 
    1582:	88 23       	and	r24, r24
    1584:	09 f0       	breq	.+2      	; 0x1588 <_ZN6sdCard10writeBlockEmPKh+0x88>
    1586:	70 c0       	rjmp	.+224    	; 0x1668 <_ZN6sdCard10writeBlockEmPKh+0x168>
			return false;
		}
		
		spi_obj.writeByte(0xff); // dummy byte
    1588:	8b 2d       	mov	r24, r11
    158a:	9a 2d       	mov	r25, r10
    158c:	6f ef       	ldi	r22, 0xFF	; 255
    158e:	0e 94 77 0b 	call	0x16ee	; 0x16ee <_ZN3SPI9writeByteEh>
		spi_obj.writeByte(0xfe); // data start byte
    1592:	8b 2d       	mov	r24, r11
    1594:	9a 2d       	mov	r25, r10
    1596:	6e ef       	ldi	r22, 0xFE	; 254
    1598:	0e 94 77 0b 	call	0x16ee	; 0x16ee <_ZN3SPI9writeByteEh>
    159c:	e0 2e       	mov	r14, r16
    159e:	f1 2e       	mov	r15, r17
		for(int z = 0; z < 512; z++){
    15a0:	00 e0       	ldi	r16, 0x00	; 0
    15a2:	10 e0       	ldi	r17, 0x00	; 0
			spi_obj.writeByte(data[z]); // send the content of the data array to be stored
    15a4:	f7 01       	movw	r30, r14
    15a6:	61 91       	ld	r22, Z+
    15a8:	7f 01       	movw	r14, r30
    15aa:	8c 2d       	mov	r24, r12
    15ac:	9d 2d       	mov	r25, r13
    15ae:	0e 94 77 0b 	call	0x16ee	; 0x16ee <_ZN3SPI9writeByteEh>
			return false;
		}
		
		spi_obj.writeByte(0xff); // dummy byte
		spi_obj.writeByte(0xfe); // data start byte
		for(int z = 0; z < 512; z++){
    15b2:	0f 5f       	subi	r16, 0xFF	; 255
    15b4:	1f 4f       	sbci	r17, 0xFF	; 255
    15b6:	f2 e0       	ldi	r31, 0x02	; 2
    15b8:	00 30       	cpi	r16, 0x00	; 0
    15ba:	1f 07       	cpc	r17, r31
    15bc:	99 f7       	brne	.-26     	; 0x15a4 <_ZN6sdCard10writeBlockEmPKh+0xa4>
			spi_obj.writeByte(data[z]); // send the content of the data array to be stored
		}
		spi_obj.writeByte(0xff); // dummy checksum 16 bit
    15be:	8b 2d       	mov	r24, r11
    15c0:	9a 2d       	mov	r25, r10
    15c2:	6f ef       	ldi	r22, 0xFF	; 255
    15c4:	0e 94 77 0b 	call	0x16ee	; 0x16ee <_ZN3SPI9writeByteEh>
		spi_obj.writeByte(0xff); // dummy checksom 16 bit;
    15c8:	8b 2d       	mov	r24, r11
    15ca:	9a 2d       	mov	r25, r10
    15cc:	6f ef       	ldi	r22, 0xFF	; 255
    15ce:	0e 94 77 0b 	call	0x16ee	; 0x16ee <_ZN3SPI9writeByteEh>
		unsigned char result; 
		do
		{
			result = spi_obj.recieveByte(); // grab result byte untill card is not busy
    15d2:	8c 2d       	mov	r24, r12
    15d4:	9d 2d       	mov	r25, r13
    15d6:	0e 94 7d 0b 	call	0x16fa	; 0x16fa <_ZN3SPI11recieveByteEv>
			spi_obj.writeByte(data[z]); // send the content of the data array to be stored
		}
		spi_obj.writeByte(0xff); // dummy checksum 16 bit
		spi_obj.writeByte(0xff); // dummy checksom 16 bit;
		unsigned char result; 
		do
    15da:	88 23       	and	r24, r24
    15dc:	d1 f3       	breq	.-12     	; 0x15d2 <_ZN6sdCard10writeBlockEmPKh+0xd2>
		{
			result = spi_obj.recieveByte(); // grab result byte untill card is not busy
		} while (result == 0x00);
		if(result != 0xE5){ // if data not accepted return false.
    15de:	85 3e       	cpi	r24, 0xE5	; 229
    15e0:	09 f0       	breq	.+2      	; 0x15e4 <_ZN6sdCard10writeBlockEmPKh+0xe4>
    15e2:	44 c0       	rjmp	.+136    	; 0x166c <_ZN6sdCard10writeBlockEmPKh+0x16c>
			return false;
		}
		
		spi_obj.recieveByte();
    15e4:	8b 2d       	mov	r24, r11
    15e6:	9a 2d       	mov	r25, r10
    15e8:	0e 94 7d 0b 	call	0x16fa	; 0x16fa <_ZN3SPI11recieveByteEv>
		do
		{
			result = spi_obj.recieveByte(); // looping untill card is done writing data
    15ec:	8c 2d       	mov	r24, r12
    15ee:	9d 2d       	mov	r25, r13
    15f0:	0e 94 7d 0b 	call	0x16fa	; 0x16fa <_ZN3SPI11recieveByteEv>
		if(result != 0xE5){ // if data not accepted return false.
			return false;
		}
		
		spi_obj.recieveByte();
		do
    15f4:	8f 3f       	cpi	r24, 0xFF	; 255
    15f6:	d1 f7       	brne	.-12     	; 0x15ec <_ZN6sdCard10writeBlockEmPKh+0xec>
		{
			result = spi_obj.recieveByte(); // looping untill card is done writing data
		} while (result != 0xff);
		
		spi_obj.writeByte(0xff); // dummy byte
    15f8:	8b 2d       	mov	r24, r11
    15fa:	9a 2d       	mov	r25, r10
    15fc:	6f ef       	ldi	r22, 0xFF	; 255
    15fe:	0e 94 77 0b 	call	0x16ee	; 0x16ee <_ZN3SPI9writeByteEh>
		spi_obj.writeByte(0x4d); // cmd for requesting card status to make sure the write completed correctly.
    1602:	8b 2d       	mov	r24, r11
    1604:	9a 2d       	mov	r25, r10
    1606:	6d e4       	ldi	r22, 0x4D	; 77
    1608:	0e 94 77 0b 	call	0x16ee	; 0x16ee <_ZN3SPI9writeByteEh>
		spi_obj.writeByte(0x00);
    160c:	8b 2d       	mov	r24, r11
    160e:	9a 2d       	mov	r25, r10
    1610:	60 e0       	ldi	r22, 0x00	; 0
    1612:	0e 94 77 0b 	call	0x16ee	; 0x16ee <_ZN3SPI9writeByteEh>
		spi_obj.writeByte(0x00);
    1616:	8b 2d       	mov	r24, r11
    1618:	9a 2d       	mov	r25, r10
    161a:	60 e0       	ldi	r22, 0x00	; 0
    161c:	0e 94 77 0b 	call	0x16ee	; 0x16ee <_ZN3SPI9writeByteEh>
		spi_obj.writeByte(0x00);
    1620:	8b 2d       	mov	r24, r11
    1622:	9a 2d       	mov	r25, r10
    1624:	60 e0       	ldi	r22, 0x00	; 0
    1626:	0e 94 77 0b 	call	0x16ee	; 0x16ee <_ZN3SPI9writeByteEh>
		spi_obj.writeByte(0x00);
    162a:	8b 2d       	mov	r24, r11
    162c:	9a 2d       	mov	r25, r10
    162e:	60 e0       	ldi	r22, 0x00	; 0
    1630:	0e 94 77 0b 	call	0x16ee	; 0x16ee <_ZN3SPI9writeByteEh>
		spi_obj.writeByte(0xff);  // CRC
    1634:	8b 2d       	mov	r24, r11
    1636:	9a 2d       	mov	r25, r10
    1638:	6f ef       	ldi	r22, 0xFF	; 255
    163a:	0e 94 77 0b 	call	0x16ee	; 0x16ee <_ZN3SPI9writeByteEh>
		
		spi_obj.recieveByte(); // get the dummy FF byte out of the way
    163e:	8b 2d       	mov	r24, r11
    1640:	9a 2d       	mov	r25, r10
    1642:	0e 94 7d 0b 	call	0x16fa	; 0x16fa <_ZN3SPI11recieveByteEv>
		unsigned char r2[2]; // array for storing the R2 reply
		r2[0] = spi_obj.recieveByte(); // grab two bytes and store them in array
    1646:	8b 2d       	mov	r24, r11
    1648:	9a 2d       	mov	r25, r10
    164a:	0e 94 7d 0b 	call	0x16fa	; 0x16fa <_ZN3SPI11recieveByteEv>
    164e:	18 2f       	mov	r17, r24
		r2[1] = spi_obj.recieveByte(); 
    1650:	8b 2d       	mov	r24, r11
    1652:	9a 2d       	mov	r25, r10
    1654:	0e 94 7d 0b 	call	0x16fa	; 0x16fa <_ZN3SPI11recieveByteEv>
    1658:	98 2f       	mov	r25, r24
		
		if(r2[0] != 0x00){
    165a:	11 23       	and	r17, r17
    165c:	49 f4       	brne	.+18     	; 0x1670 <_ZN6sdCard10writeBlockEmPKh+0x170>
	spi_obj.recieveByte();
	spi_obj.recieveByte();	
	return true;
}

bool sdCard::writeBlock( unsigned long adress, const unsigned char data[] )
    165e:	81 e0       	ldi	r24, 0x01	; 1
    1660:	99 23       	and	r25, r25
    1662:	39 f0       	breq	.+14     	; 0x1672 <_ZN6sdCard10writeBlockEmPKh+0x172>
    1664:	80 e0       	ldi	r24, 0x00	; 0
    1666:	05 c0       	rjmp	.+10     	; 0x1672 <_ZN6sdCard10writeBlockEmPKh+0x172>
		spi_obj.writeByte(argument_byte_pointer[0]); // adress bytes 
		spi_obj.writeByte(0xff); // CRC
		spi_obj.recieveByte(); // grab that idle byte returned
		unsigned char val = spi_obj.recieveByte(); // grab return value (R1)
		if(val != 0x00){ // fejl hvis ikke busy. 
			return false;
    1668:	80 e0       	ldi	r24, 0x00	; 0
    166a:	03 c0       	rjmp	.+6      	; 0x1672 <_ZN6sdCard10writeBlockEmPKh+0x172>
		do
		{
			result = spi_obj.recieveByte(); // grab result byte untill card is not busy
		} while (result == 0x00);
		if(result != 0xE5){ // if data not accepted return false.
			return false;
    166c:	80 e0       	ldi	r24, 0x00	; 0
    166e:	01 c0       	rjmp	.+2      	; 0x1672 <_ZN6sdCard10writeBlockEmPKh+0x172>
		unsigned char r2[2]; // array for storing the R2 reply
		r2[0] = spi_obj.recieveByte(); // grab two bytes and store them in array
		r2[1] = spi_obj.recieveByte(); 
		
		if(r2[0] != 0x00){
			return false;
    1670:	80 e0       	ldi	r24, 0x00	; 0
			return true;
		}
		//sendchar(r2[0]);
		//sendchar(r2[1]);
		
}
    1672:	0f 90       	pop	r0
    1674:	0f 90       	pop	r0
    1676:	0f 90       	pop	r0
    1678:	0f 90       	pop	r0
    167a:	df 91       	pop	r29
    167c:	cf 91       	pop	r28
    167e:	1f 91       	pop	r17
    1680:	0f 91       	pop	r16
    1682:	ff 90       	pop	r15
    1684:	ef 90       	pop	r14
    1686:	df 90       	pop	r13
    1688:	cf 90       	pop	r12
    168a:	bf 90       	pop	r11
    168c:	af 90       	pop	r10
    168e:	08 95       	ret

00001690 <_ZN3SPI7setFreqEi>:
// as a parameter, 4000, 1000, 250, 125 are available options,
// defaults to 4000 if invalid parameter.
//=============================================================
void SPI::setFreq( int freq ) // sets prescaler based on requested freq in kHz, calculations assume a 16MHz clock speed.
{
	switch(freq)
    1690:	6a 3f       	cpi	r22, 0xFA	; 250
    1692:	71 05       	cpc	r23, r1
    1694:	c1 f0       	breq	.+48     	; 0x16c6 <_ZN3SPI7setFreqEi+0x36>
    1696:	6b 3f       	cpi	r22, 0xFB	; 251
    1698:	71 05       	cpc	r23, r1
    169a:	24 f4       	brge	.+8      	; 0x16a4 <_ZN3SPI7setFreqEi+0x14>
    169c:	6d 37       	cpi	r22, 0x7D	; 125
    169e:	71 05       	cpc	r23, r1
    16a0:	d9 f4       	brne	.+54     	; 0x16d8 <_ZN3SPI7setFreqEi+0x48>
    16a2:	16 c0       	rjmp	.+44     	; 0x16d0 <_ZN3SPI7setFreqEi+0x40>
    16a4:	83 e0       	ldi	r24, 0x03	; 3
    16a6:	68 3e       	cpi	r22, 0xE8	; 232
    16a8:	78 07       	cpc	r23, r24
    16aa:	41 f0       	breq	.+16     	; 0x16bc <_ZN3SPI7setFreqEi+0x2c>
    16ac:	8f e0       	ldi	r24, 0x0F	; 15
    16ae:	60 3a       	cpi	r22, 0xA0	; 160
    16b0:	78 07       	cpc	r23, r24
    16b2:	91 f4       	brne	.+36     	; 0x16d8 <_ZN3SPI7setFreqEi+0x48>
	{
	case 4000:
		SPCR = SPCR & 0b11111100; // prescaler = 4
    16b4:	8c b5       	in	r24, 0x2c	; 44
    16b6:	8c 7f       	andi	r24, 0xFC	; 252
    16b8:	8c bd       	out	0x2c, r24	; 44
		break;
    16ba:	08 95       	ret
	case 1000:
		SPCR = (SPCR & 0b11111100) | 0b00000001; // prescaler = 16
    16bc:	8c b5       	in	r24, 0x2c	; 44
    16be:	8c 7f       	andi	r24, 0xFC	; 252
    16c0:	81 60       	ori	r24, 0x01	; 1
    16c2:	8c bd       	out	0x2c, r24	; 44
		break;
    16c4:	08 95       	ret
	case 250:
		SPCR = (SPCR & 0b11111100) | 0b00000010; // prescaler = 64
    16c6:	8c b5       	in	r24, 0x2c	; 44
    16c8:	8c 7f       	andi	r24, 0xFC	; 252
    16ca:	82 60       	ori	r24, 0x02	; 2
    16cc:	8c bd       	out	0x2c, r24	; 44
		break;
    16ce:	08 95       	ret
	case 125:
		SPCR = SPCR | 0b00000011; // prescaler = 128
    16d0:	8c b5       	in	r24, 0x2c	; 44
    16d2:	83 60       	ori	r24, 0x03	; 3
    16d4:	8c bd       	out	0x2c, r24	; 44
		break;
    16d6:	08 95       	ret
	default:
		SPCR = SPCR & 0b11111100; // defaults to 4000 kHz
    16d8:	8c b5       	in	r24, 0x2c	; 44
    16da:	8c 7f       	andi	r24, 0xFC	; 252
    16dc:	8c bd       	out	0x2c, r24	; 44
    16de:	08 95       	ret

000016e0 <_ZN3SPIC1Ei>:
// to freq.
//=============================================================
 SPI::SPI( int freq )
{
	// only using master mode in the project so slave mode is not part of this SPI driver.
	DDRB = 0b00000111; // sets MOSI as output and SCK as output rest as input on port B.
    16e0:	27 e0       	ldi	r18, 0x07	; 7
    16e2:	24 b9       	out	0x04, r18	; 4
	SPCR = 0b01010000; // enable SPI and set mode to master
    16e4:	20 e5       	ldi	r18, 0x50	; 80
    16e6:	2c bd       	out	0x2c, r18	; 44
	setFreq(freq);
    16e8:	0e 94 48 0b 	call	0x1690	; 0x1690 <_ZN3SPI7setFreqEi>
}
    16ec:	08 95       	ret

000016ee <_ZN3SPI9writeByteEh>:
// DESCR. : sends 1 byte of data out on MOSI,
// returns the response recieved from the reciever
//=============================================================
unsigned char SPI::writeByte( unsigned char data )
{
	SPDR = data; // starting the transmission
    16ee:	6e bd       	out	0x2e, r22	; 46
	while(!(SPSR &(1<<SPIF)));
    16f0:	0d b4       	in	r0, 0x2d	; 45
    16f2:	07 fe       	sbrs	r0, 7
    16f4:	fd cf       	rjmp	.-6      	; 0x16f0 <_ZN3SPI9writeByteEh+0x2>
	return SPDR;	
    16f6:	8e b5       	in	r24, 0x2e	; 46
}
    16f8:	08 95       	ret

000016fa <_ZN3SPI11recieveByteEv>:
// DESCR. : Recieves 1 byte of data, has to send out dummy data to MOSI to recieve.
// returns the response recieved from the reciever
//=============================================================
unsigned char SPI::recieveByte()
{
	SPDR = 0xFF; // sends don't care byte to transmit clocks.
    16fa:	8f ef       	ldi	r24, 0xFF	; 255
    16fc:	8e bd       	out	0x2e, r24	; 46
	while(!(SPSR &(1<<SPIF)));
    16fe:	0d b4       	in	r0, 0x2d	; 45
    1700:	07 fe       	sbrs	r0, 7
    1702:	fd cf       	rjmp	.-6      	; 0x16fe <_ZN3SPI11recieveByteEv+0x4>
	return SPDR; // read data and return it.
    1704:	8e b5       	in	r24, 0x2e	; 46
}
    1706:	08 95       	ret

00001708 <_ZN4UARTC1Emhc>:
#include "uartDriver.h"
#include <stdlib.h>
#define F_CPU 16000000


UART::UART(unsigned long baudRate, unsigned char dataBit, char parity)
    1708:	0f 93       	push	r16
{
	if ((baudRate >= 110) && (baudRate <= 115200) && (dataBit <= 8) && (dataBit >= 5))
    170a:	db 01       	movw	r26, r22
    170c:	ca 01       	movw	r24, r20
    170e:	8e 56       	subi	r24, 0x6E	; 110
    1710:	90 40       	sbci	r25, 0x00	; 0
    1712:	a0 40       	sbci	r26, 0x00	; 0
    1714:	b0 40       	sbci	r27, 0x00	; 0
    1716:	83 39       	cpi	r24, 0x93	; 147
    1718:	31 ec       	ldi	r19, 0xC1	; 193
    171a:	93 07       	cpc	r25, r19
    171c:	31 e0       	ldi	r19, 0x01	; 1
    171e:	a3 07       	cpc	r26, r19
    1720:	30 e0       	ldi	r19, 0x00	; 0
    1722:	b3 07       	cpc	r27, r19
    1724:	98 f5       	brcc	.+102    	; 0x178c <_ZN4UARTC1Emhc+0x84>
    1726:	29 30       	cpi	r18, 0x09	; 9
    1728:	88 f5       	brcc	.+98     	; 0x178c <_ZN4UARTC1Emhc+0x84>
    172a:	25 30       	cpi	r18, 0x05	; 5
    172c:	78 f1       	brcs	.+94     	; 0x178c <_ZN4UARTC1Emhc+0x84>
	{
		UCSR0A = 0b00100000;
    172e:	80 e2       	ldi	r24, 0x20	; 32
    1730:	80 93 c0 00 	sts	0x00C0, r24
		UCSR0B = 0b10011000;
    1734:	88 e9       	ldi	r24, 0x98	; 152
    1736:	80 93 c1 00 	sts	0x00C1, r24
		UCSR0C = (dataBit-5)<<1;
    173a:	25 50       	subi	r18, 0x05	; 5
    173c:	22 0f       	add	r18, r18
    173e:	20 93 c2 00 	sts	0x00C2, r18
		
		unsigned long tempUBRR;
		
		tempUBRR = F_CPU/(16*baudRate)-1;
    1742:	44 0f       	add	r20, r20
    1744:	55 1f       	adc	r21, r21
    1746:	66 1f       	adc	r22, r22
    1748:	77 1f       	adc	r23, r23
    174a:	44 0f       	add	r20, r20
    174c:	55 1f       	adc	r21, r21
    174e:	66 1f       	adc	r22, r22
    1750:	77 1f       	adc	r23, r23
    1752:	9a 01       	movw	r18, r20
    1754:	ab 01       	movw	r20, r22
    1756:	22 0f       	add	r18, r18
    1758:	33 1f       	adc	r19, r19
    175a:	44 1f       	adc	r20, r20
    175c:	55 1f       	adc	r21, r21
    175e:	22 0f       	add	r18, r18
    1760:	33 1f       	adc	r19, r19
    1762:	44 1f       	adc	r20, r20
    1764:	55 1f       	adc	r21, r21
    1766:	60 e0       	ldi	r22, 0x00	; 0
    1768:	74 e2       	ldi	r23, 0x24	; 36
    176a:	84 ef       	ldi	r24, 0xF4	; 244
    176c:	90 e0       	ldi	r25, 0x00	; 0
    176e:	0e 94 0b 19 	call	0x3216	; 0x3216 <__udivmodsi4>
    1772:	da 01       	movw	r26, r20
    1774:	c9 01       	movw	r24, r18
    1776:	01 97       	sbiw	r24, 0x01	; 1
    1778:	a1 09       	sbc	r26, r1
    177a:	b1 09       	sbc	r27, r1
		
		UBRR0L = tempUBRR;
    177c:	80 93 c4 00 	sts	0x00C4, r24
		UBRR0H = tempUBRR >> 8;
    1780:	89 2f       	mov	r24, r25
    1782:	9a 2f       	mov	r25, r26
    1784:	ab 2f       	mov	r26, r27
    1786:	bb 27       	eor	r27, r27
    1788:	80 93 c5 00 	sts	0x00C5, r24
	}
	
	if (parity == 'E')
    178c:	05 34       	cpi	r16, 0x45	; 69
    178e:	31 f4       	brne	.+12     	; 0x179c <_ZN4UARTC1Emhc+0x94>
	{
		UCSR0C |= 0b00100000;
    1790:	e2 ec       	ldi	r30, 0xC2	; 194
    1792:	f0 e0       	ldi	r31, 0x00	; 0
    1794:	80 81       	ld	r24, Z
    1796:	80 62       	ori	r24, 0x20	; 32
    1798:	80 83       	st	Z, r24
    179a:	07 c0       	rjmp	.+14     	; 0x17aa <_ZN4UARTC1Emhc+0xa2>
	}
	else if (parity == 'O')
    179c:	0f 34       	cpi	r16, 0x4F	; 79
    179e:	29 f4       	brne	.+10     	; 0x17aa <_ZN4UARTC1Emhc+0xa2>
	{
		UCSR0C |= 0b00110000;
    17a0:	e2 ec       	ldi	r30, 0xC2	; 194
    17a2:	f0 e0       	ldi	r31, 0x00	; 0
    17a4:	80 81       	ld	r24, Z
    17a6:	80 63       	ori	r24, 0x30	; 48
    17a8:	80 83       	st	Z, r24
	}	
	
}
    17aa:	0f 91       	pop	r16
    17ac:	08 95       	ret

000017ae <_ZN4UART9charReadyEv>:

unsigned char UART::charReady()
{
	return UCSR0A & (1<<7);
    17ae:	80 91 c0 00 	lds	r24, 0x00C0
}
    17b2:	80 78       	andi	r24, 0x80	; 128
    17b4:	08 95       	ret

000017b6 <_ZN4UART8readCharEv>:

char UART::readChar()
{
	while ((UCSR0A & 0b10000000) == 0)
    17b6:	e0 ec       	ldi	r30, 0xC0	; 192
    17b8:	f0 e0       	ldi	r31, 0x00	; 0
    17ba:	80 81       	ld	r24, Z
    17bc:	88 23       	and	r24, r24
    17be:	ec f7       	brge	.-6      	; 0x17ba <_ZN4UART8readCharEv+0x4>
	{}
	return UDR0;
    17c0:	80 91 c6 00 	lds	r24, 0x00C6
}
    17c4:	08 95       	ret

000017c6 <_ZN4UART8sendCharEc>:

void UART::sendChar(char character)
{
	while ((UCSR0A & 0b00100000) == 0)
    17c6:	e0 ec       	ldi	r30, 0xC0	; 192
    17c8:	f0 e0       	ldi	r31, 0x00	; 0
    17ca:	80 81       	ld	r24, Z
    17cc:	85 ff       	sbrs	r24, 5
    17ce:	fd cf       	rjmp	.-6      	; 0x17ca <_ZN4UART8sendCharEc+0x4>
	{}
	UDR0 = character;
    17d0:	60 93 c6 00 	sts	0x00C6, r22
}
    17d4:	08 95       	ret

000017d6 <_ZN4UART10sendStringEPc>:


void UART::sendString(char* text)
{
    17d6:	0f 93       	push	r16
    17d8:	1f 93       	push	r17
    17da:	cf 93       	push	r28
    17dc:	df 93       	push	r29
    17de:	8c 01       	movw	r16, r24
    17e0:	eb 01       	movw	r28, r22
	while (*text != 0)
    17e2:	68 81       	ld	r22, Y
    17e4:	66 23       	and	r22, r22
    17e6:	39 f0       	breq	.+14     	; 0x17f6 <_ZN4UART10sendStringEPc+0x20>
	{}
	UDR0 = character;
}


void UART::sendString(char* text)
    17e8:	21 96       	adiw	r28, 0x01	; 1
{
	while (*text != 0)
	{
		sendChar(*text);
    17ea:	c8 01       	movw	r24, r16
    17ec:	0e 94 e3 0b 	call	0x17c6	; 0x17c6 <_ZN4UART8sendCharEc>
}


void UART::sendString(char* text)
{
	while (*text != 0)
    17f0:	69 91       	ld	r22, Y+
    17f2:	66 23       	and	r22, r22
    17f4:	d1 f7       	brne	.-12     	; 0x17ea <_ZN4UART10sendStringEPc+0x14>
	{
		sendChar(*text);
		text++;
	}
	
}
    17f6:	df 91       	pop	r29
    17f8:	cf 91       	pop	r28
    17fa:	1f 91       	pop	r17
    17fc:	0f 91       	pop	r16
    17fe:	08 95       	ret

00001800 <_ZN4UART11sendIntegerEi>:

void UART::sendInteger(int number)
{
    1800:	0f 93       	push	r16
    1802:	1f 93       	push	r17
    1804:	cf 93       	push	r28
    1806:	df 93       	push	r29
    1808:	cd b7       	in	r28, 0x3d	; 61
    180a:	de b7       	in	r29, 0x3e	; 62
    180c:	27 97       	sbiw	r28, 0x07	; 7
    180e:	0f b6       	in	r0, 0x3f	; 63
    1810:	f8 94       	cli
    1812:	de bf       	out	0x3e, r29	; 62
    1814:	0f be       	out	0x3f, r0	; 63
    1816:	cd bf       	out	0x3d, r28	; 61
    1818:	8c 01       	movw	r16, r24
    181a:	cb 01       	movw	r24, r22
	char myArray[7];
	itoa(number, myArray, 10);
    181c:	be 01       	movw	r22, r28
    181e:	6f 5f       	subi	r22, 0xFF	; 255
    1820:	7f 4f       	sbci	r23, 0xFF	; 255
    1822:	4a e0       	ldi	r20, 0x0A	; 10
    1824:	50 e0       	ldi	r21, 0x00	; 0
    1826:	0e 94 31 19 	call	0x3262	; 0x3262 <itoa>
	sendString(myArray);
    182a:	c8 01       	movw	r24, r16
    182c:	be 01       	movw	r22, r28
    182e:	6f 5f       	subi	r22, 0xFF	; 255
    1830:	7f 4f       	sbci	r23, 0xFF	; 255
    1832:	0e 94 eb 0b 	call	0x17d6	; 0x17d6 <_ZN4UART10sendStringEPc>
    1836:	27 96       	adiw	r28, 0x07	; 7
    1838:	0f b6       	in	r0, 0x3f	; 63
    183a:	f8 94       	cli
    183c:	de bf       	out	0x3e, r29	; 62
    183e:	0f be       	out	0x3f, r0	; 63
    1840:	cd bf       	out	0x3d, r28	; 61
    1842:	df 91       	pop	r29
    1844:	cf 91       	pop	r28
    1846:	1f 91       	pop	r17
    1848:	0f 91       	pop	r16
    184a:	08 95       	ret

0000184c <_ZN11UnitHandlerC1EP6sdCard>:

//=============================================================
// METHOD : UnitHandler() Constructer
// DESCR. : Initializes the UnitHandler object, and sets the SDCard object.
//=============================================================
UnitHandler::UnitHandler(sdCard *SDObj)
    184c:	fc 01       	movw	r30, r24
{
	SD = SDObj;
    184e:	71 83       	std	Z+1, r23	; 0x01
    1850:	60 83       	st	Z, r22
	numberOfUnits = 0;
    1852:	12 82       	std	Z+2, r1	; 0x02
}
    1854:	08 95       	ret

00001856 <_ZN11UnitHandler11getUnitListEPh>:
//=============================================================
// METHOD : getUnitList()
// DESCR. : Fill array with the unit list (block 0) from the SD card.
//=============================================================
void UnitHandler::getUnitList(unsigned char Array[])
{	
    1856:	9b 01       	movw	r18, r22
	SD->readBlock(0, Array);
    1858:	fc 01       	movw	r30, r24
    185a:	80 81       	ld	r24, Z
    185c:	91 81       	ldd	r25, Z+1	; 0x01
    185e:	40 e0       	ldi	r20, 0x00	; 0
    1860:	50 e0       	ldi	r21, 0x00	; 0
    1862:	ba 01       	movw	r22, r20
    1864:	0e 94 08 0a 	call	0x1410	; 0x1410 <_ZN6sdCard9readBlockEmPh>
}
    1868:	08 95       	ret

0000186a <_ZN11UnitHandler18checkStdAssignmentEv>:
// METHOD : chechStdAssignment()
// DESCR. : Checks to see if the standard address assignment is already in use.
//			Returns false if stdAssignment is already in use, true if stdAssignment is free....
//=============================================================
bool UnitHandler::checkStdAssignment()
{
    186a:	0f 93       	push	r16
    186c:	1f 93       	push	r17
    186e:	cf 93       	push	r28
    1870:	df 93       	push	r29
    1872:	cd b7       	in	r28, 0x3d	; 61
    1874:	de b7       	in	r29, 0x3e	; 62
    1876:	c0 50       	subi	r28, 0x00	; 0
    1878:	d2 40       	sbci	r29, 0x02	; 2
    187a:	0f b6       	in	r0, 0x3f	; 63
    187c:	f8 94       	cli
    187e:	de bf       	out	0x3e, r29	; 62
    1880:	0f be       	out	0x3f, r0	; 63
    1882:	cd bf       	out	0x3d, r28	; 61
    1884:	8c 01       	movw	r16, r24
	unsigned char unitList[512];
	getUnitList(unitList);
    1886:	be 01       	movw	r22, r28
    1888:	6f 5f       	subi	r22, 0xFF	; 255
    188a:	7f 4f       	sbci	r23, 0xFF	; 255
    188c:	0e 94 2b 0c 	call	0x1856	; 0x1856 <_ZN11UnitHandler11getUnitListEPh>
	
	for (int i = 0; i <= 511; i++)
    1890:	80 e0       	ldi	r24, 0x00	; 0
    1892:	90 e0       	ldi	r25, 0x00	; 0
    1894:	0f c0       	rjmp	.+30     	; 0x18b4 <_ZN11UnitHandler18checkStdAssignmentEv+0x4a>
	{
		if (i % 2 != 0 && numberOfUnits  == unitList[i])
    1896:	80 ff       	sbrs	r24, 0
    1898:	0d c0       	rjmp	.+26     	; 0x18b4 <_ZN11UnitHandler18checkStdAssignmentEv+0x4a>
//=============================================================
// METHOD : chechStdAssignment()
// DESCR. : Checks to see if the standard address assignment is already in use.
//			Returns false if stdAssignment is already in use, true if stdAssignment is free....
//=============================================================
bool UnitHandler::checkStdAssignment()
    189a:	e1 e0       	ldi	r30, 0x01	; 1
    189c:	f0 e0       	ldi	r31, 0x00	; 0
    189e:	ec 0f       	add	r30, r28
    18a0:	fd 1f       	adc	r31, r29
    18a2:	e8 0f       	add	r30, r24
    18a4:	f9 1f       	adc	r31, r25
	unsigned char unitList[512];
	getUnitList(unitList);
	
	for (int i = 0; i <= 511; i++)
	{
		if (i % 2 != 0 && numberOfUnits  == unitList[i])
    18a6:	d8 01       	movw	r26, r16
    18a8:	12 96       	adiw	r26, 0x02	; 2
    18aa:	3c 91       	ld	r19, X
    18ac:	12 97       	sbiw	r26, 0x02	; 2
    18ae:	20 81       	ld	r18, Z
    18b0:	32 17       	cp	r19, r18
    18b2:	39 f0       	breq	.+14     	; 0x18c2 <_ZN11UnitHandler18checkStdAssignmentEv+0x58>
bool UnitHandler::checkStdAssignment()
{
	unsigned char unitList[512];
	getUnitList(unitList);
	
	for (int i = 0; i <= 511; i++)
    18b4:	01 96       	adiw	r24, 0x01	; 1
    18b6:	b2 e0       	ldi	r27, 0x02	; 2
    18b8:	80 30       	cpi	r24, 0x00	; 0
    18ba:	9b 07       	cpc	r25, r27
    18bc:	61 f7       	brne	.-40     	; 0x1896 <_ZN11UnitHandler18checkStdAssignmentEv+0x2c>
		{
			return false;
		}
	}
	
	return true;
    18be:	81 e0       	ldi	r24, 0x01	; 1
    18c0:	01 c0       	rjmp	.+2      	; 0x18c4 <_ZN11UnitHandler18checkStdAssignmentEv+0x5a>
	
	for (int i = 0; i <= 511; i++)
	{
		if (i % 2 != 0 && numberOfUnits  == unitList[i])
		{
			return false;
    18c2:	80 e0       	ldi	r24, 0x00	; 0
		}
	}
	
	return true;
}
    18c4:	c0 50       	subi	r28, 0x00	; 0
    18c6:	de 4f       	sbci	r29, 0xFE	; 254
    18c8:	0f b6       	in	r0, 0x3f	; 63
    18ca:	f8 94       	cli
    18cc:	de bf       	out	0x3e, r29	; 62
    18ce:	0f be       	out	0x3f, r0	; 63
    18d0:	cd bf       	out	0x3d, r28	; 61
    18d2:	df 91       	pop	r29
    18d4:	cf 91       	pop	r28
    18d6:	1f 91       	pop	r17
    18d8:	0f 91       	pop	r16
    18da:	08 95       	ret

000018dc <_ZN11UnitHandler13addUnitToListEhh>:
//=============================================================
// METHOD : addUnitToList()
// DESCR. : Finds the next free spot on the list, and adds the new unit to the list.
//=============================================================
bool UnitHandler::addUnitToList(unsigned char unitID, unsigned char address)
{
    18dc:	ef 92       	push	r14
    18de:	ff 92       	push	r15
    18e0:	0f 93       	push	r16
    18e2:	1f 93       	push	r17
    18e4:	cf 93       	push	r28
    18e6:	df 93       	push	r29
    18e8:	cd b7       	in	r28, 0x3d	; 61
    18ea:	de b7       	in	r29, 0x3e	; 62
    18ec:	c0 50       	subi	r28, 0x00	; 0
    18ee:	d2 40       	sbci	r29, 0x02	; 2
    18f0:	0f b6       	in	r0, 0x3f	; 63
    18f2:	f8 94       	cli
    18f4:	de bf       	out	0x3e, r29	; 62
    18f6:	0f be       	out	0x3f, r0	; 63
    18f8:	cd bf       	out	0x3d, r28	; 61
    18fa:	8c 01       	movw	r16, r24
    18fc:	f6 2e       	mov	r15, r22
    18fe:	e4 2e       	mov	r14, r20
	unsigned char temp_list[512];
	int spot = 0;
	
	getUnitList(temp_list);
    1900:	be 01       	movw	r22, r28
    1902:	6f 5f       	subi	r22, 0xFF	; 255
    1904:	7f 4f       	sbci	r23, 0xFF	; 255
    1906:	0e 94 2b 0c 	call	0x1856	; 0x1856 <_ZN11UnitHandler11getUnitListEPh>
    190a:	fe 01       	movw	r30, r28
    190c:	31 96       	adiw	r30, 0x01	; 1
	
	for (int i = 0; i <= 511; i++)
    190e:	80 e0       	ldi	r24, 0x00	; 0
    1910:	90 e0       	ldi	r25, 0x00	; 0
	{
		if (temp_list[i] == 0)
    1912:	21 91       	ld	r18, Z+
    1914:	22 23       	and	r18, r18
    1916:	41 f0       	breq	.+16     	; 0x1928 <_ZN11UnitHandler13addUnitToListEhh+0x4c>
	unsigned char temp_list[512];
	int spot = 0;
	
	getUnitList(temp_list);
	
	for (int i = 0; i <= 511; i++)
    1918:	01 96       	adiw	r24, 0x01	; 1
    191a:	22 e0       	ldi	r18, 0x02	; 2
    191c:	80 30       	cpi	r24, 0x00	; 0
    191e:	92 07       	cpc	r25, r18
    1920:	c1 f7       	brne	.-16     	; 0x1912 <_ZN11UnitHandler13addUnitToListEhh+0x36>
    1922:	80 e0       	ldi	r24, 0x00	; 0
    1924:	90 e0       	ldi	r25, 0x00	; 0
    1926:	02 c0       	rjmp	.+4      	; 0x192c <_ZN11UnitHandler13addUnitToListEhh+0x50>
			spot = i;
			i = 512;
		}
	}

	if (spot == 0 && temp_list[spot] != 0)
    1928:	00 97       	sbiw	r24, 0x00	; 0
    192a:	19 f4       	brne	.+6      	; 0x1932 <_ZN11UnitHandler13addUnitToListEhh+0x56>
    192c:	29 81       	ldd	r18, Y+1	; 0x01
    192e:	22 23       	and	r18, r18
    1930:	b9 f4       	brne	.+46     	; 0x1960 <_ZN11UnitHandler13addUnitToListEhh+0x84>
	{
		return false;
	}
	
	temp_list[spot] = unitID;
    1932:	e1 e0       	ldi	r30, 0x01	; 1
    1934:	f0 e0       	ldi	r31, 0x00	; 0
    1936:	ec 0f       	add	r30, r28
    1938:	fd 1f       	adc	r31, r29
    193a:	e8 0f       	add	r30, r24
    193c:	f9 1f       	adc	r31, r25
    193e:	f0 82       	st	Z, r15
	spot++;
	temp_list[spot] = address;
    1940:	8c 0f       	add	r24, r28
    1942:	9d 1f       	adc	r25, r29
    1944:	fc 01       	movw	r30, r24
    1946:	e2 82       	std	Z+2, r14	; 0x02
		
	//Write new list to SD
	for (int y = 1; y <= 9; y++)
	{
		if (SD->writeBlock(0, temp_list))
    1948:	f8 01       	movw	r30, r16
    194a:	80 81       	ld	r24, Z
    194c:	91 81       	ldd	r25, Z+1	; 0x01
    194e:	40 e0       	ldi	r20, 0x00	; 0
    1950:	50 e0       	ldi	r21, 0x00	; 0
    1952:	ba 01       	movw	r22, r20
    1954:	9e 01       	movw	r18, r28
    1956:	2f 5f       	subi	r18, 0xFF	; 255
    1958:	3f 4f       	sbci	r19, 0xFF	; 255
    195a:	0e 94 80 0a 	call	0x1500	; 0x1500 <_ZN6sdCard10writeBlockEmPKh>
    195e:	01 c0       	rjmp	.+2      	; 0x1962 <_ZN11UnitHandler13addUnitToListEhh+0x86>
		}
	}

	if (spot == 0 && temp_list[spot] != 0)
	{
		return false;
    1960:	80 e0       	ldi	r24, 0x00	; 0
		{
			return false;
		}
	}
	return true;	
}
    1962:	c0 50       	subi	r28, 0x00	; 0
    1964:	de 4f       	sbci	r29, 0xFE	; 254
    1966:	0f b6       	in	r0, 0x3f	; 63
    1968:	f8 94       	cli
    196a:	de bf       	out	0x3e, r29	; 62
    196c:	0f be       	out	0x3f, r0	; 63
    196e:	cd bf       	out	0x3d, r28	; 61
    1970:	df 91       	pop	r29
    1972:	cf 91       	pop	r28
    1974:	1f 91       	pop	r17
    1976:	0f 91       	pop	r16
    1978:	ff 90       	pop	r15
    197a:	ef 90       	pop	r14
    197c:	08 95       	ret

0000197e <_ZN11UnitHandler18removeUnitFromListEh>:
//=============================================================
// METHOD : removeUnitFromList()
// DESCR. : Finds the unit specified, deletes the info and compresses the block.
//=============================================================
bool UnitHandler::removeUnitFromList(unsigned char unitID)
{
    197e:	df 92       	push	r13
    1980:	ef 92       	push	r14
    1982:	ff 92       	push	r15
    1984:	0f 93       	push	r16
    1986:	1f 93       	push	r17
    1988:	cf 93       	push	r28
    198a:	df 93       	push	r29
    198c:	cd b7       	in	r28, 0x3d	; 61
    198e:	de b7       	in	r29, 0x3e	; 62
    1990:	c0 50       	subi	r28, 0x00	; 0
    1992:	d4 40       	sbci	r29, 0x04	; 4
    1994:	0f b6       	in	r0, 0x3f	; 63
    1996:	f8 94       	cli
    1998:	de bf       	out	0x3e, r29	; 62
    199a:	0f be       	out	0x3f, r0	; 63
    199c:	cd bf       	out	0x3d, r28	; 61
    199e:	7c 01       	movw	r14, r24
    19a0:	16 2f       	mov	r17, r22
	unsigned char temp_list[512] = {0x00};
    19a2:	be 01       	movw	r22, r28
    19a4:	6f 5f       	subi	r22, 0xFF	; 255
    19a6:	7d 4f       	sbci	r23, 0xFD	; 253
    19a8:	80 e0       	ldi	r24, 0x00	; 0
    19aa:	92 e0       	ldi	r25, 0x02	; 2
    19ac:	fb 01       	movw	r30, r22
    19ae:	9c 01       	movw	r18, r24
    19b0:	11 92       	st	Z+, r1
    19b2:	21 50       	subi	r18, 0x01	; 1
    19b4:	30 40       	sbci	r19, 0x00	; 0
    19b6:	e1 f7       	brne	.-8      	; 0x19b0 <_ZN11UnitHandler18removeUnitFromListEh+0x32>
	unsigned char spot = 0x00;
	
	getUnitList(temp_list);
    19b8:	c7 01       	movw	r24, r14
    19ba:	0e 94 2b 0c 	call	0x1856	; 0x1856 <_ZN11UnitHandler11getUnitListEPh>
	
	for (int i = 0; i <= 511; i++)
    19be:	60 e0       	ldi	r22, 0x00	; 0
    19c0:	70 e0       	ldi	r23, 0x00	; 0
	{
		if (i % 2 == 0)
    19c2:	60 fd       	sbrc	r22, 0
    19c4:	09 c0       	rjmp	.+18     	; 0x19d8 <_ZN11UnitHandler18removeUnitFromListEh+0x5a>

//=============================================================
// METHOD : removeUnitFromList()
// DESCR. : Finds the unit specified, deletes the info and compresses the block.
//=============================================================
bool UnitHandler::removeUnitFromList(unsigned char unitID)
    19c6:	e1 e0       	ldi	r30, 0x01	; 1
    19c8:	f2 e0       	ldi	r31, 0x02	; 2
    19ca:	ec 0f       	add	r30, r28
    19cc:	fd 1f       	adc	r31, r29
    19ce:	e6 0f       	add	r30, r22
    19d0:	f7 1f       	adc	r31, r23
	
	for (int i = 0; i <= 511; i++)
	{
		if (i % 2 == 0)
		{
			if (temp_list[i] == unitID)
    19d2:	80 81       	ld	r24, Z
    19d4:	81 17       	cp	r24, r17
    19d6:	39 f0       	breq	.+14     	; 0x19e6 <_ZN11UnitHandler18removeUnitFromListEh+0x68>
	unsigned char temp_list[512] = {0x00};
	unsigned char spot = 0x00;
	
	getUnitList(temp_list);
	
	for (int i = 0; i <= 511; i++)
    19d8:	6f 5f       	subi	r22, 0xFF	; 255
    19da:	7f 4f       	sbci	r23, 0xFF	; 255
    19dc:	32 e0       	ldi	r19, 0x02	; 2
    19de:	60 30       	cpi	r22, 0x00	; 0
    19e0:	73 07       	cpc	r23, r19
    19e2:	79 f7       	brne	.-34     	; 0x19c2 <_ZN11UnitHandler18removeUnitFromListEh+0x44>
    19e4:	60 e0       	ldi	r22, 0x00	; 0
				spot = i;
				i = 512;
			}
		}
	}
	unsigned char newList[512] = {0x00};
    19e6:	ae 01       	movw	r20, r28
    19e8:	4f 5f       	subi	r20, 0xFF	; 255
    19ea:	5f 4f       	sbci	r21, 0xFF	; 255
    19ec:	80 e0       	ldi	r24, 0x00	; 0
    19ee:	92 e0       	ldi	r25, 0x02	; 2
    19f0:	fa 01       	movw	r30, r20
    19f2:	9c 01       	movw	r18, r24
    19f4:	11 92       	st	Z+, r1
    19f6:	21 50       	subi	r18, 0x01	; 1
    19f8:	30 40       	sbci	r19, 0x00	; 0
    19fa:	e1 f7       	brne	.-8      	; 0x19f4 <_ZN11UnitHandler18removeUnitFromListEh+0x76>
    19fc:	de 01       	movw	r26, r28
    19fe:	af 5f       	subi	r26, 0xFF	; 255
    1a00:	bd 4f       	sbci	r27, 0xFD	; 253
    1a02:	22 e0       	ldi	r18, 0x02	; 2
    1a04:	30 e0       	ldi	r19, 0x00	; 0
		
		
	for (int i = 0; i <= 511; i++)
    1a06:	80 e0       	ldi	r24, 0x00	; 0
    1a08:	90 e0       	ldi	r25, 0x00	; 0
	{
		if (i + 2 < 511)
		{
			if (i == spot | i > spot)
    1a0a:	70 e0       	ldi	r23, 0x00	; 0
    1a0c:	11 e0       	ldi	r17, 0x01	; 1
    1a0e:	00 e0       	ldi	r16, 0x00	; 0
	unsigned char newList[512] = {0x00};
		
		
	for (int i = 0; i <= 511; i++)
	{
		if (i + 2 < 511)
    1a10:	e1 e0       	ldi	r30, 0x01	; 1
    1a12:	2f 3f       	cpi	r18, 0xFF	; 255
    1a14:	3e 07       	cpc	r19, r30
    1a16:	e4 f4       	brge	.+56     	; 0x1a50 <_ZN11UnitHandler18removeUnitFromListEh+0xd2>
		{
			if (i == spot | i > spot)
    1a18:	e1 2f       	mov	r30, r17
    1a1a:	68 17       	cp	r22, r24
    1a1c:	79 07       	cpc	r23, r25
    1a1e:	09 f0       	breq	.+2      	; 0x1a22 <_ZN11UnitHandler18removeUnitFromListEh+0xa4>
    1a20:	e0 2f       	mov	r30, r16
    1a22:	ee 23       	and	r30, r30
    1a24:	39 f4       	brne	.+14     	; 0x1a34 <_ZN11UnitHandler18removeUnitFromListEh+0xb6>
    1a26:	e1 2f       	mov	r30, r17
    1a28:	68 17       	cp	r22, r24
    1a2a:	79 07       	cpc	r23, r25
    1a2c:	0c f0       	brlt	.+2      	; 0x1a30 <_ZN11UnitHandler18removeUnitFromListEh+0xb2>
    1a2e:	e0 2f       	mov	r30, r16
    1a30:	ee 23       	and	r30, r30
    1a32:	51 f0       	breq	.+20     	; 0x1a48 <_ZN11UnitHandler18removeUnitFromListEh+0xca>

//=============================================================
// METHOD : removeUnitFromList()
// DESCR. : Finds the unit specified, deletes the info and compresses the block.
//=============================================================
bool UnitHandler::removeUnitFromList(unsigned char unitID)
    1a34:	e1 e0       	ldi	r30, 0x01	; 1
    1a36:	f2 e0       	ldi	r31, 0x02	; 2
    1a38:	ec 0f       	add	r30, r28
    1a3a:	fd 1f       	adc	r31, r29
    1a3c:	e2 0f       	add	r30, r18
    1a3e:	f3 1f       	adc	r31, r19
	{
		if (i + 2 < 511)
		{
			if (i == spot | i > spot)
			{
				newList[i] = temp_list[i + 2];
    1a40:	d0 80       	ld	r13, Z
    1a42:	fa 01       	movw	r30, r20
    1a44:	d0 82       	st	Z, r13
    1a46:	05 c0       	rjmp	.+10     	; 0x1a52 <_ZN11UnitHandler18removeUnitFromListEh+0xd4>
			}
			else
			{
				newList[i] = temp_list[i];
    1a48:	dc 90       	ld	r13, X
    1a4a:	fa 01       	movw	r30, r20
    1a4c:	d0 82       	st	Z, r13
    1a4e:	01 c0       	rjmp	.+2      	; 0x1a52 <_ZN11UnitHandler18removeUnitFromListEh+0xd4>
			}
		}
		else {
			temp_list[i] = 0x00;
    1a50:	1c 92       	st	X, r1
		}
	}
	unsigned char newList[512] = {0x00};
		
		
	for (int i = 0; i <= 511; i++)
    1a52:	01 96       	adiw	r24, 0x01	; 1
    1a54:	2f 5f       	subi	r18, 0xFF	; 255
    1a56:	3f 4f       	sbci	r19, 0xFF	; 255
    1a58:	11 96       	adiw	r26, 0x01	; 1
    1a5a:	4f 5f       	subi	r20, 0xFF	; 255
    1a5c:	5f 4f       	sbci	r21, 0xFF	; 255
    1a5e:	f2 e0       	ldi	r31, 0x02	; 2
    1a60:	80 30       	cpi	r24, 0x00	; 0
    1a62:	9f 07       	cpc	r25, r31
    1a64:	a9 f6       	brne	.-86     	; 0x1a10 <_ZN11UnitHandler18removeUnitFromListEh+0x92>
		}
	}
	//Write new list to SD
	for (int y = 1; y <= 9; y++)
	{
		if (SD->writeBlock(0, newList))
    1a66:	f7 01       	movw	r30, r14
    1a68:	80 81       	ld	r24, Z
    1a6a:	91 81       	ldd	r25, Z+1	; 0x01
    1a6c:	40 e0       	ldi	r20, 0x00	; 0
    1a6e:	50 e0       	ldi	r21, 0x00	; 0
    1a70:	ba 01       	movw	r22, r20
    1a72:	9e 01       	movw	r18, r28
    1a74:	2f 5f       	subi	r18, 0xFF	; 255
    1a76:	3f 4f       	sbci	r19, 0xFF	; 255
    1a78:	0e 94 80 0a 	call	0x1500	; 0x1500 <_ZN6sdCard10writeBlockEmPKh>
		{
			return false;
		}
	}
	return true;
}
    1a7c:	c0 50       	subi	r28, 0x00	; 0
    1a7e:	dc 4f       	sbci	r29, 0xFC	; 252
    1a80:	0f b6       	in	r0, 0x3f	; 63
    1a82:	f8 94       	cli
    1a84:	de bf       	out	0x3e, r29	; 62
    1a86:	0f be       	out	0x3f, r0	; 63
    1a88:	cd bf       	out	0x3d, r28	; 61
    1a8a:	df 91       	pop	r29
    1a8c:	cf 91       	pop	r28
    1a8e:	1f 91       	pop	r17
    1a90:	0f 91       	pop	r16
    1a92:	ff 90       	pop	r15
    1a94:	ef 90       	pop	r14
    1a96:	df 90       	pop	r13
    1a98:	08 95       	ret

00001a9a <_ZN11UnitHandler16searchFreeBlocksEv>:
// METHOD : searchFreeBlocks()
// DESCR. : Searches for the blocks made free from deleting a unit,
//          returns a value that is used to calculate starting address for free blocks.
//=============================================================
unsigned char UnitHandler::searchFreeBlocks()
{
    1a9a:	0f 93       	push	r16
    1a9c:	1f 93       	push	r17
    1a9e:	cf 93       	push	r28
    1aa0:	df 93       	push	r29
    1aa2:	cd b7       	in	r28, 0x3d	; 61
    1aa4:	de b7       	in	r29, 0x3e	; 62
    1aa6:	c0 50       	subi	r28, 0x00	; 0
    1aa8:	d2 40       	sbci	r29, 0x02	; 2
    1aaa:	0f b6       	in	r0, 0x3f	; 63
    1aac:	f8 94       	cli
    1aae:	de bf       	out	0x3e, r29	; 62
    1ab0:	0f be       	out	0x3f, r0	; 63
    1ab2:	cd bf       	out	0x3d, r28	; 61
    1ab4:	8c 01       	movw	r16, r24
	unsigned char unitList[512];
	//Get list of known units, and their starting point (representation) number.
	getUnitList(unitList);
    1ab6:	be 01       	movw	r22, r28
    1ab8:	6f 5f       	subi	r22, 0xFF	; 255
    1aba:	7f 4f       	sbci	r23, 0xFF	; 255
    1abc:	0e 94 2b 0c 	call	0x1856	; 0x1856 <_ZN11UnitHandler11getUnitListEPh>
	
	for (unsigned char x = 1; x <= numberOfUnits; x++)
    1ac0:	f8 01       	movw	r30, r16
    1ac2:	62 81       	ldd	r22, Z+2	; 0x02
    1ac4:	66 23       	and	r22, r22
    1ac6:	d1 f4       	brne	.+52     	; 0x1afc <_ZN11UnitHandler16searchFreeBlocksEv+0x62>
    1ac8:	1e c0       	rjmp	.+60     	; 0x1b06 <_ZN11UnitHandler16searchFreeBlocksEv+0x6c>
	{
		for (int i = 1; i <= 511; i++)
		{
			if (i%2 != 0)
    1aca:	20 ff       	sbrs	r18, 0
    1acc:	0d c0       	rjmp	.+26     	; 0x1ae8 <_ZN11UnitHandler16searchFreeBlocksEv+0x4e>
//=============================================================
// METHOD : searchFreeBlocks()
// DESCR. : Searches for the blocks made free from deleting a unit,
//          returns a value that is used to calculate starting address for free blocks.
//=============================================================
unsigned char UnitHandler::searchFreeBlocks()
    1ace:	e1 e0       	ldi	r30, 0x01	; 1
    1ad0:	f0 e0       	ldi	r31, 0x00	; 0
    1ad2:	ec 0f       	add	r30, r28
    1ad4:	fd 1f       	adc	r31, r29
    1ad6:	e2 0f       	add	r30, r18
    1ad8:	f3 1f       	adc	r31, r19
	{
		for (int i = 1; i <= 511; i++)
		{
			if (i%2 != 0)
			{
				if (unitList[i] == x)
    1ada:	90 81       	ld	r25, Z
    1adc:	98 17       	cp	r25, r24
    1ade:	51 f0       	breq	.+20     	; 0x1af4 <_ZN11UnitHandler16searchFreeBlocksEv+0x5a>
				{
					i = 512;
				}
				else if (i == 511)
    1ae0:	f1 e0       	ldi	r31, 0x01	; 1
    1ae2:	2f 3f       	cpi	r18, 0xFF	; 255
    1ae4:	3f 07       	cpc	r19, r31
    1ae6:	79 f0       	breq	.+30     	; 0x1b06 <_ZN11UnitHandler16searchFreeBlocksEv+0x6c>
	//Get list of known units, and their starting point (representation) number.
	getUnitList(unitList);
	
	for (unsigned char x = 1; x <= numberOfUnits; x++)
	{
		for (int i = 1; i <= 511; i++)
    1ae8:	2f 5f       	subi	r18, 0xFF	; 255
    1aea:	3f 4f       	sbci	r19, 0xFF	; 255
    1aec:	92 e0       	ldi	r25, 0x02	; 2
    1aee:	20 30       	cpi	r18, 0x00	; 0
    1af0:	39 07       	cpc	r19, r25
    1af2:	59 f7       	brne	.-42     	; 0x1aca <_ZN11UnitHandler16searchFreeBlocksEv+0x30>
{
	unsigned char unitList[512];
	//Get list of known units, and their starting point (representation) number.
	getUnitList(unitList);
	
	for (unsigned char x = 1; x <= numberOfUnits; x++)
    1af4:	8f 5f       	subi	r24, 0xFF	; 255
    1af6:	68 17       	cp	r22, r24
    1af8:	20 f4       	brcc	.+8      	; 0x1b02 <_ZN11UnitHandler16searchFreeBlocksEv+0x68>
    1afa:	05 c0       	rjmp	.+10     	; 0x1b06 <_ZN11UnitHandler16searchFreeBlocksEv+0x6c>
    1afc:	81 e0       	ldi	r24, 0x01	; 1
// METHOD : searchFreeBlocks()
// DESCR. : Searches for the blocks made free from deleting a unit,
//          returns a value that is used to calculate starting address for free blocks.
//=============================================================
unsigned char UnitHandler::searchFreeBlocks()
{
    1afe:	41 e0       	ldi	r20, 0x01	; 1
    1b00:	50 e0       	ldi	r21, 0x00	; 0
    1b02:	9a 01       	movw	r18, r20
    1b04:	e2 cf       	rjmp	.-60     	; 0x1aca <_ZN11UnitHandler16searchFreeBlocksEv+0x30>
					return x;	
				}
			}
		}
	}
}
    1b06:	c0 50       	subi	r28, 0x00	; 0
    1b08:	de 4f       	sbci	r29, 0xFE	; 254
    1b0a:	0f b6       	in	r0, 0x3f	; 63
    1b0c:	f8 94       	cli
    1b0e:	de bf       	out	0x3e, r29	; 62
    1b10:	0f be       	out	0x3f, r0	; 63
    1b12:	cd bf       	out	0x3d, r28	; 61
    1b14:	df 91       	pop	r29
    1b16:	cf 91       	pop	r28
    1b18:	1f 91       	pop	r17
    1b1a:	0f 91       	pop	r16
    1b1c:	08 95       	ret

00001b1e <_ZN11UnitHandler11getRoomListEPh>:
//=============================================================
// METHOD : getRoomList()
// DESCR. : Fill array with the roomlist (block 1) from the SD-card.
//=============================================================
void UnitHandler::getRoomList(unsigned char Array[])
{
    1b1e:	9b 01       	movw	r18, r22
	SD->readBlock(1, Array);
    1b20:	fc 01       	movw	r30, r24
    1b22:	80 81       	ld	r24, Z
    1b24:	91 81       	ldd	r25, Z+1	; 0x01
    1b26:	41 e0       	ldi	r20, 0x01	; 1
    1b28:	50 e0       	ldi	r21, 0x00	; 0
    1b2a:	60 e0       	ldi	r22, 0x00	; 0
    1b2c:	70 e0       	ldi	r23, 0x00	; 0
    1b2e:	0e 94 08 0a 	call	0x1410	; 0x1410 <_ZN6sdCard9readBlockEmPh>
}
    1b32:	08 95       	ret

00001b34 <_ZN11UnitHandler10RemoveUnitEh>:
//=============================================================
// METHOD : RemoveUnit()
// DESCR. : Delete a Unit, by erasing data in the blocks that represents that unit.
//=============================================================
bool UnitHandler::RemoveUnit(unsigned char unitID)
{
    1b34:	cf 92       	push	r12
    1b36:	df 92       	push	r13
    1b38:	ef 92       	push	r14
    1b3a:	ff 92       	push	r15
    1b3c:	0f 93       	push	r16
    1b3e:	1f 93       	push	r17
    1b40:	cf 93       	push	r28
    1b42:	df 93       	push	r29
    1b44:	cd b7       	in	r28, 0x3d	; 61
    1b46:	de b7       	in	r29, 0x3e	; 62
    1b48:	c0 50       	subi	r28, 0x00	; 0
    1b4a:	d8 40       	sbci	r29, 0x08	; 8
    1b4c:	0f b6       	in	r0, 0x3f	; 63
    1b4e:	f8 94       	cli
    1b50:	de bf       	out	0x3e, r29	; 62
    1b52:	0f be       	out	0x3f, r0	; 63
    1b54:	cd bf       	out	0x3d, r28	; 61
    1b56:	6c 01       	movw	r12, r24
    1b58:	f6 2e       	mov	r15, r22
	unsigned char empty_block[512] = {0x00};
    1b5a:	80 e0       	ldi	r24, 0x00	; 0
    1b5c:	92 e0       	ldi	r25, 0x02	; 2
    1b5e:	fe 01       	movw	r30, r28
    1b60:	ef 5f       	subi	r30, 0xFF	; 255
    1b62:	f9 4f       	sbci	r31, 0xF9	; 249
    1b64:	df 01       	movw	r26, r30
    1b66:	9c 01       	movw	r18, r24
    1b68:	1d 92       	st	X+, r1
    1b6a:	21 50       	subi	r18, 0x01	; 1
    1b6c:	30 40       	sbci	r19, 0x00	; 0
    1b6e:	e1 f7       	brne	.-8      	; 0x1b68 <_ZN11UnitHandler10RemoveUnitEh+0x34>
	unsigned char start_block;
	unsigned char next_block;
	unsigned char spot;
	unsigned char temp[512] = {0x00};
    1b70:	be 01       	movw	r22, r28
    1b72:	6f 5f       	subi	r22, 0xFF	; 255
    1b74:	7b 4f       	sbci	r23, 0xFB	; 251
    1b76:	db 01       	movw	r26, r22
    1b78:	fc 01       	movw	r30, r24
    1b7a:	1d 92       	st	X+, r1
    1b7c:	31 97       	sbiw	r30, 0x01	; 1
    1b7e:	e9 f7       	brne	.-6      	; 0x1b7a <_ZN11UnitHandler10RemoveUnitEh+0x46>
	unsigned char temp2[512] = {0x00};
    1b80:	fe 01       	movw	r30, r28
    1b82:	ef 5f       	subi	r30, 0xFF	; 255
    1b84:	fd 4f       	sbci	r31, 0xFD	; 253
    1b86:	df 01       	movw	r26, r30
    1b88:	9c 01       	movw	r18, r24
    1b8a:	1d 92       	st	X+, r1
    1b8c:	21 50       	subi	r18, 0x01	; 1
    1b8e:	30 40       	sbci	r19, 0x00	; 0
    1b90:	e1 f7       	brne	.-8      	; 0x1b8a <_ZN11UnitHandler10RemoveUnitEh+0x56>
	getUnitList(temp);
    1b92:	c6 01       	movw	r24, r12
    1b94:	0e 94 2b 0c 	call	0x1856	; 0x1856 <_ZN11UnitHandler11getUnitListEPh>
		if (i % 2 != 0)
		{
			if (unitID == temp[i])
			{
				int y = temp[i] - 1;
				start_block = (2 + (y * 7));		
    1b98:	8f 2d       	mov	r24, r15
    1b9a:	81 50       	subi	r24, 0x01	; 1
    1b9c:	38 2f       	mov	r19, r24
    1b9e:	33 0f       	add	r19, r19
    1ba0:	33 0f       	add	r19, r19
    1ba2:	33 0f       	add	r19, r19
    1ba4:	38 1b       	sub	r19, r24
	unsigned char temp[512] = {0x00};
	unsigned char temp2[512] = {0x00};
	getUnitList(temp);
	
	//Search unitList for the position of the specified unit.
	for (int i = 0; i <= 511; i++)
    1ba6:	80 e0       	ldi	r24, 0x00	; 0
    1ba8:	90 e0       	ldi	r25, 0x00	; 0
		if (i % 2 != 0)
		{
			if (unitID == temp[i])
			{
				int y = temp[i] - 1;
				start_block = (2 + (y * 7));		
    1baa:	3e 5f       	subi	r19, 0xFE	; 254
    1bac:	0c c0       	rjmp	.+24     	; 0x1bc6 <_ZN11UnitHandler10RemoveUnitEh+0x92>
	getUnitList(temp);
	
	//Search unitList for the position of the specified unit.
	for (int i = 0; i <= 511; i++)
	{
		if (i % 2 != 0)
    1bae:	80 ff       	sbrs	r24, 0
    1bb0:	0a c0       	rjmp	.+20     	; 0x1bc6 <_ZN11UnitHandler10RemoveUnitEh+0x92>

//=============================================================
// METHOD : RemoveUnit()
// DESCR. : Delete a Unit, by erasing data in the blocks that represents that unit.
//=============================================================
bool UnitHandler::RemoveUnit(unsigned char unitID)
    1bb2:	e1 e0       	ldi	r30, 0x01	; 1
    1bb4:	f4 e0       	ldi	r31, 0x04	; 4
    1bb6:	ec 0f       	add	r30, r28
    1bb8:	fd 1f       	adc	r31, r29
    1bba:	e8 0f       	add	r30, r24
    1bbc:	f9 1f       	adc	r31, r25
	//Search unitList for the position of the specified unit.
	for (int i = 0; i <= 511; i++)
	{
		if (i % 2 != 0)
		{
			if (unitID == temp[i])
    1bbe:	20 81       	ld	r18, Z
    1bc0:	2f 15       	cp	r18, r15
    1bc2:	09 f4       	brne	.+2      	; 0x1bc6 <_ZN11UnitHandler10RemoveUnitEh+0x92>
			{
				int y = temp[i] - 1;
				start_block = (2 + (y * 7));		
    1bc4:	e3 2e       	mov	r14, r19
	unsigned char temp[512] = {0x00};
	unsigned char temp2[512] = {0x00};
	getUnitList(temp);
	
	//Search unitList for the position of the specified unit.
	for (int i = 0; i <= 511; i++)
    1bc6:	01 96       	adiw	r24, 0x01	; 1
    1bc8:	a2 e0       	ldi	r26, 0x02	; 2
    1bca:	80 30       	cpi	r24, 0x00	; 0
    1bcc:	9a 07       	cpc	r25, r26
    1bce:	79 f7       	brne	.-34     	; 0x1bae <_ZN11UnitHandler10RemoveUnitEh+0x7a>
				start_block = (2 + (y * 7));		
			}
		}
	}
	
	SD->readBlock(start_block, temp2);
    1bd0:	4e 2d       	mov	r20, r14
    1bd2:	50 e0       	ldi	r21, 0x00	; 0
    1bd4:	60 e0       	ldi	r22, 0x00	; 0
    1bd6:	70 e0       	ldi	r23, 0x00	; 0
    1bd8:	f6 01       	movw	r30, r12
    1bda:	80 81       	ld	r24, Z
    1bdc:	91 81       	ldd	r25, Z+1	; 0x01
    1bde:	9e 01       	movw	r18, r28
    1be0:	2f 5f       	subi	r18, 0xFF	; 255
    1be2:	3d 4f       	sbci	r19, 0xFD	; 253
    1be4:	0e 94 08 0a 	call	0x1410	; 0x1410 <_ZN6sdCard9readBlockEmPh>
	
	if (temp2[2] != 0x00)
    1be8:	cd 5f       	subi	r28, 0xFD	; 253
    1bea:	dd 4f       	sbci	r29, 0xFD	; 253
    1bec:	88 81       	ld	r24, Y
    1bee:	c3 50       	subi	r28, 0x03	; 3
    1bf0:	d2 40       	sbci	r29, 0x02	; 2
    1bf2:	88 23       	and	r24, r24
    1bf4:	11 f4       	brne	.+4      	; 0x1bfa <_ZN11UnitHandler10RemoveUnitEh+0xc6>
	{
		unsigned char roomList[512] = {0x00};
		getRoomList(roomList);
		
		for (int i = 0; i <= 511; i++)
    1bf6:	00 e0       	ldi	r16, 0x00	; 0
    1bf8:	3d c0       	rjmp	.+122    	; 0x1c74 <_ZN11UnitHandler10RemoveUnitEh+0x140>
	
	SD->readBlock(start_block, temp2);
	
	if (temp2[2] != 0x00)
	{
		unsigned char roomList[512] = {0x00};
    1bfa:	be 01       	movw	r22, r28
    1bfc:	6f 5f       	subi	r22, 0xFF	; 255
    1bfe:	7f 4f       	sbci	r23, 0xFF	; 255
    1c00:	80 e0       	ldi	r24, 0x00	; 0
    1c02:	92 e0       	ldi	r25, 0x02	; 2
    1c04:	db 01       	movw	r26, r22
    1c06:	fc 01       	movw	r30, r24
    1c08:	1d 92       	st	X+, r1
    1c0a:	31 97       	sbiw	r30, 0x01	; 1
    1c0c:	e9 f7       	brne	.-6      	; 0x1c08 <_ZN11UnitHandler10RemoveUnitEh+0xd4>
		getRoomList(roomList);
    1c0e:	c6 01       	movw	r24, r12
    1c10:	0e 94 8f 0d 	call	0x1b1e	; 0x1b1e <_ZN11UnitHandler11getRoomListEPh>
		
		for (int i = 0; i <= 511; i++)
    1c14:	00 e0       	ldi	r16, 0x00	; 0
    1c16:	10 e0       	ldi	r17, 0x00	; 0
		{
			if (i % 2 == 0 && roomList[i] == temp2[2])
    1c18:	00 fd       	sbrc	r16, 0
    1c1a:	25 c0       	rjmp	.+74     	; 0x1c66 <_ZN11UnitHandler10RemoveUnitEh+0x132>

//=============================================================
// METHOD : RemoveUnit()
// DESCR. : Delete a Unit, by erasing data in the blocks that represents that unit.
//=============================================================
bool UnitHandler::RemoveUnit(unsigned char unitID)
    1c1c:	e1 e0       	ldi	r30, 0x01	; 1
    1c1e:	f0 e0       	ldi	r31, 0x00	; 0
    1c20:	ec 0f       	add	r30, r28
    1c22:	fd 1f       	adc	r31, r29
    1c24:	e0 0f       	add	r30, r16
    1c26:	f1 1f       	adc	r31, r17
		unsigned char roomList[512] = {0x00};
		getRoomList(roomList);
		
		for (int i = 0; i <= 511; i++)
		{
			if (i % 2 == 0 && roomList[i] == temp2[2])
    1c28:	90 81       	ld	r25, Z
    1c2a:	cd 5f       	subi	r28, 0xFD	; 253
    1c2c:	dd 4f       	sbci	r29, 0xFD	; 253
    1c2e:	88 81       	ld	r24, Y
    1c30:	c3 50       	subi	r28, 0x03	; 3
    1c32:	d2 40       	sbci	r29, 0x02	; 2
    1c34:	98 17       	cp	r25, r24
    1c36:	b9 f4       	brne	.+46     	; 0x1c66 <_ZN11UnitHandler10RemoveUnitEh+0x132>

//=============================================================
// METHOD : RemoveUnit()
// DESCR. : Delete a Unit, by erasing data in the blocks that represents that unit.
//=============================================================
bool UnitHandler::RemoveUnit(unsigned char unitID)
    1c38:	80 2f       	mov	r24, r16
    1c3a:	8f 5f       	subi	r24, 0xFF	; 255
		{
			if (i % 2 == 0 && roomList[i] == temp2[2])
			{
				spot = i;
				unsigned char count = spot + 1;
				roomList[count] -= 1;
    1c3c:	e1 e0       	ldi	r30, 0x01	; 1
    1c3e:	f0 e0       	ldi	r31, 0x00	; 0
    1c40:	ec 0f       	add	r30, r28
    1c42:	fd 1f       	adc	r31, r29
    1c44:	e8 0f       	add	r30, r24
    1c46:	f1 1d       	adc	r31, r1
    1c48:	80 81       	ld	r24, Z
    1c4a:	81 50       	subi	r24, 0x01	; 1
    1c4c:	80 83       	st	Z, r24
				SD->writeBlock(1, roomList);
    1c4e:	d6 01       	movw	r26, r12
    1c50:	8d 91       	ld	r24, X+
    1c52:	9c 91       	ld	r25, X
    1c54:	41 e0       	ldi	r20, 0x01	; 1
    1c56:	50 e0       	ldi	r21, 0x00	; 0
    1c58:	60 e0       	ldi	r22, 0x00	; 0
    1c5a:	70 e0       	ldi	r23, 0x00	; 0
    1c5c:	9e 01       	movw	r18, r28
    1c5e:	2f 5f       	subi	r18, 0xFF	; 255
    1c60:	3f 4f       	sbci	r19, 0xFF	; 255
    1c62:	0e 94 80 0a 	call	0x1500	; 0x1500 <_ZN6sdCard10writeBlockEmPKh>
	if (temp2[2] != 0x00)
	{
		unsigned char roomList[512] = {0x00};
		getRoomList(roomList);
		
		for (int i = 0; i <= 511; i++)
    1c66:	0f 5f       	subi	r16, 0xFF	; 255
    1c68:	1f 4f       	sbci	r17, 0xFF	; 255
    1c6a:	b2 e0       	ldi	r27, 0x02	; 2
    1c6c:	00 30       	cpi	r16, 0x00	; 0
    1c6e:	1b 07       	cpc	r17, r27
    1c70:	99 f6       	brne	.-90     	; 0x1c18 <_ZN11UnitHandler10RemoveUnitEh+0xe4>
    1c72:	c1 cf       	rjmp	.-126    	; 0x1bf6 <_ZN11UnitHandler10RemoveUnitEh+0xc2>
	}
	
	//Loop to overwrite all 7 blocks that represent the unit.
	for (int i = 0; i <= 9; i++)
	{
		next_block = start_block + i;
    1c74:	40 2f       	mov	r20, r16
    1c76:	4e 0d       	add	r20, r14
		
		//Loop to give each write operation 3 tries to succeed.
		for (int y = 1; y <= 9; y++)
		{
			if (SD->writeBlock(next_block, empty_block))
    1c78:	50 e0       	ldi	r21, 0x00	; 0
    1c7a:	60 e0       	ldi	r22, 0x00	; 0
    1c7c:	70 e0       	ldi	r23, 0x00	; 0
    1c7e:	f6 01       	movw	r30, r12
    1c80:	80 81       	ld	r24, Z
    1c82:	91 81       	ldd	r25, Z+1	; 0x01
    1c84:	9e 01       	movw	r18, r28
    1c86:	2f 5f       	subi	r18, 0xFF	; 255
    1c88:	39 4f       	sbci	r19, 0xF9	; 249
    1c8a:	0e 94 80 0a 	call	0x1500	; 0x1500 <_ZN6sdCard10writeBlockEmPKh>
    1c8e:	88 23       	and	r24, r24
    1c90:	79 f0       	breq	.+30     	; 0x1cb0 <_ZN11UnitHandler10RemoveUnitEh+0x17c>
    1c92:	0f 5f       	subi	r16, 0xFF	; 255
			}
		}
	}
	
	//Loop to overwrite all 7 blocks that represent the unit.
	for (int i = 0; i <= 9; i++)
    1c94:	0a 30       	cpi	r16, 0x0A	; 10
    1c96:	71 f7       	brne	.-36     	; 0x1c74 <_ZN11UnitHandler10RemoveUnitEh+0x140>
				return false;
			}
		}
	}
	
	numberOfUnits--;
    1c98:	d6 01       	movw	r26, r12
    1c9a:	12 96       	adiw	r26, 0x02	; 2
    1c9c:	8c 91       	ld	r24, X
    1c9e:	12 97       	sbiw	r26, 0x02	; 2
    1ca0:	81 50       	subi	r24, 0x01	; 1
    1ca2:	12 96       	adiw	r26, 0x02	; 2
    1ca4:	8c 93       	st	X, r24
	
	return removeUnitFromList(unitID);
    1ca6:	c6 01       	movw	r24, r12
    1ca8:	6f 2d       	mov	r22, r15
    1caa:	0e 94 bf 0c 	call	0x197e	; 0x197e <_ZN11UnitHandler18removeUnitFromListEh>
    1cae:	01 c0       	rjmp	.+2      	; 0x1cb2 <_ZN11UnitHandler10RemoveUnitEh+0x17e>
			{
				y = 10;			// if write attempt succeeds, leave loop...
			}
			else if (y = 9)
			{
				return false;
    1cb0:	80 e0       	ldi	r24, 0x00	; 0
	}
	
	numberOfUnits--;
	
	return removeUnitFromList(unitID);
}
    1cb2:	c0 50       	subi	r28, 0x00	; 0
    1cb4:	d8 4f       	sbci	r29, 0xF8	; 248
    1cb6:	0f b6       	in	r0, 0x3f	; 63
    1cb8:	f8 94       	cli
    1cba:	de bf       	out	0x3e, r29	; 62
    1cbc:	0f be       	out	0x3f, r0	; 63
    1cbe:	cd bf       	out	0x3d, r28	; 61
    1cc0:	df 91       	pop	r29
    1cc2:	cf 91       	pop	r28
    1cc4:	1f 91       	pop	r17
    1cc6:	0f 91       	pop	r16
    1cc8:	ff 90       	pop	r15
    1cca:	ef 90       	pop	r14
    1ccc:	df 90       	pop	r13
    1cce:	cf 90       	pop	r12
    1cd0:	08 95       	ret

00001cd2 <_ZN11UnitHandler13createNewRoomEh>:
//=============================================================
// METHOD : createNewRoom()
// DESCR. :
//=============================================================
bool UnitHandler::createNewRoom(unsigned char RoomID)
{
    1cd2:	ff 92       	push	r15
    1cd4:	0f 93       	push	r16
    1cd6:	1f 93       	push	r17
    1cd8:	cf 93       	push	r28
    1cda:	df 93       	push	r29
    1cdc:	cd b7       	in	r28, 0x3d	; 61
    1cde:	de b7       	in	r29, 0x3e	; 62
    1ce0:	c0 50       	subi	r28, 0x00	; 0
    1ce2:	d2 40       	sbci	r29, 0x02	; 2
    1ce4:	0f b6       	in	r0, 0x3f	; 63
    1ce6:	f8 94       	cli
    1ce8:	de bf       	out	0x3e, r29	; 62
    1cea:	0f be       	out	0x3f, r0	; 63
    1cec:	cd bf       	out	0x3d, r28	; 61
    1cee:	8c 01       	movw	r16, r24
    1cf0:	f6 2e       	mov	r15, r22
	unsigned char roomList[512] = {0x00};
    1cf2:	be 01       	movw	r22, r28
    1cf4:	6f 5f       	subi	r22, 0xFF	; 255
    1cf6:	7f 4f       	sbci	r23, 0xFF	; 255
    1cf8:	80 e0       	ldi	r24, 0x00	; 0
    1cfa:	92 e0       	ldi	r25, 0x02	; 2
    1cfc:	fb 01       	movw	r30, r22
    1cfe:	9c 01       	movw	r18, r24
    1d00:	11 92       	st	Z+, r1
    1d02:	21 50       	subi	r18, 0x01	; 1
    1d04:	30 40       	sbci	r19, 0x00	; 0
    1d06:	e1 f7       	brne	.-8      	; 0x1d00 <_ZN11UnitHandler13createNewRoomEh+0x2e>
	getRoomList(roomList);
    1d08:	c8 01       	movw	r24, r16
    1d0a:	0e 94 8f 0d 	call	0x1b1e	; 0x1b1e <_ZN11UnitHandler11getRoomListEPh>
	
	int spot = 0;
	
	for (int i = 0; i <= 511; i++)
    1d0e:	80 e0       	ldi	r24, 0x00	; 0
    1d10:	90 e0       	ldi	r25, 0x00	; 0
	{
		if (i % 2 == 0 && roomList[i] == 0)
    1d12:	80 fd       	sbrc	r24, 0
    1d14:	09 c0       	rjmp	.+18     	; 0x1d28 <_ZN11UnitHandler13createNewRoomEh+0x56>

//=============================================================
// METHOD : createNewRoom()
// DESCR. :
//=============================================================
bool UnitHandler::createNewRoom(unsigned char RoomID)
    1d16:	e1 e0       	ldi	r30, 0x01	; 1
    1d18:	f0 e0       	ldi	r31, 0x00	; 0
    1d1a:	ec 0f       	add	r30, r28
    1d1c:	fd 1f       	adc	r31, r29
    1d1e:	e8 0f       	add	r30, r24
    1d20:	f9 1f       	adc	r31, r25
	
	int spot = 0;
	
	for (int i = 0; i <= 511; i++)
	{
		if (i % 2 == 0 && roomList[i] == 0)
    1d22:	20 81       	ld	r18, Z
    1d24:	22 23       	and	r18, r18
    1d26:	41 f0       	breq	.+16     	; 0x1d38 <_ZN11UnitHandler13createNewRoomEh+0x66>
	unsigned char roomList[512] = {0x00};
	getRoomList(roomList);
	
	int spot = 0;
	
	for (int i = 0; i <= 511; i++)
    1d28:	01 96       	adiw	r24, 0x01	; 1
    1d2a:	32 e0       	ldi	r19, 0x02	; 2
    1d2c:	80 30       	cpi	r24, 0x00	; 0
    1d2e:	93 07       	cpc	r25, r19
    1d30:	81 f7       	brne	.-32     	; 0x1d12 <_ZN11UnitHandler13createNewRoomEh+0x40>
    1d32:	80 e0       	ldi	r24, 0x00	; 0
    1d34:	90 e0       	ldi	r25, 0x00	; 0
    1d36:	02 c0       	rjmp	.+4      	; 0x1d3c <_ZN11UnitHandler13createNewRoomEh+0x6a>
		{
			spot = i;
			i = 512;
		}
	}
	if (spot == 0 && roomList[spot] != 0)
    1d38:	00 97       	sbiw	r24, 0x00	; 0
    1d3a:	19 f4       	brne	.+6      	; 0x1d42 <_ZN11UnitHandler13createNewRoomEh+0x70>
    1d3c:	29 81       	ldd	r18, Y+1	; 0x01
    1d3e:	22 23       	and	r18, r18
    1d40:	a9 f4       	brne	.+42     	; 0x1d6c <_ZN11UnitHandler13createNewRoomEh+0x9a>
	{
		return false;
	}
	else
	{
		roomList[spot] = RoomID;
    1d42:	e1 e0       	ldi	r30, 0x01	; 1
    1d44:	f0 e0       	ldi	r31, 0x00	; 0
    1d46:	ec 0f       	add	r30, r28
    1d48:	fd 1f       	adc	r31, r29
    1d4a:	8e 0f       	add	r24, r30
    1d4c:	9f 1f       	adc	r25, r31
    1d4e:	fc 01       	movw	r30, r24
    1d50:	f0 82       	st	Z, r15
		
		//Write new list to SD
		for (int y = 1; y <= 9; y++)
		{
			if (SD->writeBlock(1, roomList))
    1d52:	f8 01       	movw	r30, r16
    1d54:	80 81       	ld	r24, Z
    1d56:	91 81       	ldd	r25, Z+1	; 0x01
    1d58:	41 e0       	ldi	r20, 0x01	; 1
    1d5a:	50 e0       	ldi	r21, 0x00	; 0
    1d5c:	60 e0       	ldi	r22, 0x00	; 0
    1d5e:	70 e0       	ldi	r23, 0x00	; 0
    1d60:	9e 01       	movw	r18, r28
    1d62:	2f 5f       	subi	r18, 0xFF	; 255
    1d64:	3f 4f       	sbci	r19, 0xFF	; 255
    1d66:	0e 94 80 0a 	call	0x1500	; 0x1500 <_ZN6sdCard10writeBlockEmPKh>
    1d6a:	01 c0       	rjmp	.+2      	; 0x1d6e <_ZN11UnitHandler13createNewRoomEh+0x9c>
			i = 512;
		}
	}
	if (spot == 0 && roomList[spot] != 0)
	{
		return false;
    1d6c:	80 e0       	ldi	r24, 0x00	; 0
				return false;
			}
		}
		return true;
	}
}
    1d6e:	c0 50       	subi	r28, 0x00	; 0
    1d70:	de 4f       	sbci	r29, 0xFE	; 254
    1d72:	0f b6       	in	r0, 0x3f	; 63
    1d74:	f8 94       	cli
    1d76:	de bf       	out	0x3e, r29	; 62
    1d78:	0f be       	out	0x3f, r0	; 63
    1d7a:	cd bf       	out	0x3d, r28	; 61
    1d7c:	df 91       	pop	r29
    1d7e:	cf 91       	pop	r28
    1d80:	1f 91       	pop	r17
    1d82:	0f 91       	pop	r16
    1d84:	ff 90       	pop	r15
    1d86:	08 95       	ret

00001d88 <_ZN11UnitHandler13addUnitToRoomEh>:
//=============================================================
// METHOD : addUnitToRoom()
// DESCR. : increment the count for the room in the roomlist.
//=============================================================
bool UnitHandler::addUnitToRoom(unsigned char roomID)
{
    1d88:	ef 92       	push	r14
    1d8a:	ff 92       	push	r15
    1d8c:	1f 93       	push	r17
    1d8e:	cf 93       	push	r28
    1d90:	df 93       	push	r29
    1d92:	cd b7       	in	r28, 0x3d	; 61
    1d94:	de b7       	in	r29, 0x3e	; 62
    1d96:	c0 50       	subi	r28, 0x00	; 0
    1d98:	d2 40       	sbci	r29, 0x02	; 2
    1d9a:	0f b6       	in	r0, 0x3f	; 63
    1d9c:	f8 94       	cli
    1d9e:	de bf       	out	0x3e, r29	; 62
    1da0:	0f be       	out	0x3f, r0	; 63
    1da2:	cd bf       	out	0x3d, r28	; 61
    1da4:	7c 01       	movw	r14, r24
    1da6:	16 2f       	mov	r17, r22
	unsigned char temp_list[512];
	unsigned char spot = 0;
	
	getRoomList(temp_list);
    1da8:	be 01       	movw	r22, r28
    1daa:	6f 5f       	subi	r22, 0xFF	; 255
    1dac:	7f 4f       	sbci	r23, 0xFF	; 255
    1dae:	0e 94 8f 0d 	call	0x1b1e	; 0x1b1e <_ZN11UnitHandler11getRoomListEPh>
	
	for (int i = 0; i <= 511; i++)
    1db2:	80 e0       	ldi	r24, 0x00	; 0
    1db4:	90 e0       	ldi	r25, 0x00	; 0
	{
		if (i % 2 == 0 && temp_list[i] == roomID)
    1db6:	80 fd       	sbrc	r24, 0
    1db8:	14 c0       	rjmp	.+40     	; 0x1de2 <_ZN11UnitHandler13addUnitToRoomEh+0x5a>

//=============================================================
// METHOD : addUnitToRoom()
// DESCR. : increment the count for the room in the roomlist.
//=============================================================
bool UnitHandler::addUnitToRoom(unsigned char roomID)
    1dba:	e1 e0       	ldi	r30, 0x01	; 1
    1dbc:	f0 e0       	ldi	r31, 0x00	; 0
    1dbe:	ec 0f       	add	r30, r28
    1dc0:	fd 1f       	adc	r31, r29
    1dc2:	e8 0f       	add	r30, r24
    1dc4:	f9 1f       	adc	r31, r25
	
	getRoomList(temp_list);
	
	for (int i = 0; i <= 511; i++)
	{
		if (i % 2 == 0 && temp_list[i] == roomID)
    1dc6:	20 81       	ld	r18, Z
    1dc8:	21 17       	cp	r18, r17
    1dca:	59 f4       	brne	.+22     	; 0x1de2 <_ZN11UnitHandler13addUnitToRoomEh+0x5a>

//=============================================================
// METHOD : addUnitToRoom()
// DESCR. : increment the count for the room in the roomlist.
//=============================================================
bool UnitHandler::addUnitToRoom(unsigned char roomID)
    1dcc:	28 2f       	mov	r18, r24
    1dce:	2f 5f       	subi	r18, 0xFF	; 255
	{
		if (i % 2 == 0 && temp_list[i] == roomID)
		{
			spot = i;
			unsigned char count = spot + 1;
			temp_list[count] += 1;
    1dd0:	e1 e0       	ldi	r30, 0x01	; 1
    1dd2:	f0 e0       	ldi	r31, 0x00	; 0
    1dd4:	ec 0f       	add	r30, r28
    1dd6:	fd 1f       	adc	r31, r29
    1dd8:	e2 0f       	add	r30, r18
    1dda:	f1 1d       	adc	r31, r1
    1ddc:	20 81       	ld	r18, Z
    1dde:	2f 5f       	subi	r18, 0xFF	; 255
    1de0:	20 83       	st	Z, r18
	unsigned char temp_list[512];
	unsigned char spot = 0;
	
	getRoomList(temp_list);
	
	for (int i = 0; i <= 511; i++)
    1de2:	01 96       	adiw	r24, 0x01	; 1
    1de4:	22 e0       	ldi	r18, 0x02	; 2
    1de6:	80 30       	cpi	r24, 0x00	; 0
    1de8:	92 07       	cpc	r25, r18
    1dea:	29 f7       	brne	.-54     	; 0x1db6 <_ZN11UnitHandler13addUnitToRoomEh+0x2e>
	}
	
	//Write new list to SD
	for (int y = 1; y <= 9; y++)
	{
		if (SD->writeBlock(1, temp_list))
    1dec:	f7 01       	movw	r30, r14
    1dee:	80 81       	ld	r24, Z
    1df0:	91 81       	ldd	r25, Z+1	; 0x01
    1df2:	41 e0       	ldi	r20, 0x01	; 1
    1df4:	50 e0       	ldi	r21, 0x00	; 0
    1df6:	60 e0       	ldi	r22, 0x00	; 0
    1df8:	70 e0       	ldi	r23, 0x00	; 0
    1dfa:	9e 01       	movw	r18, r28
    1dfc:	2f 5f       	subi	r18, 0xFF	; 255
    1dfe:	3f 4f       	sbci	r19, 0xFF	; 255
    1e00:	0e 94 80 0a 	call	0x1500	; 0x1500 <_ZN6sdCard10writeBlockEmPKh>
		{
			return false;
		}
	}
	return true;
}
    1e04:	c0 50       	subi	r28, 0x00	; 0
    1e06:	de 4f       	sbci	r29, 0xFE	; 254
    1e08:	0f b6       	in	r0, 0x3f	; 63
    1e0a:	f8 94       	cli
    1e0c:	de bf       	out	0x3e, r29	; 62
    1e0e:	0f be       	out	0x3f, r0	; 63
    1e10:	cd bf       	out	0x3d, r28	; 61
    1e12:	df 91       	pop	r29
    1e14:	cf 91       	pop	r28
    1e16:	1f 91       	pop	r17
    1e18:	ff 90       	pop	r15
    1e1a:	ef 90       	pop	r14
    1e1c:	08 95       	ret

00001e1e <_ZN11UnitHandler7AddUnitEhh>:
//=============================================================
// METHOD : AddUnit()
// DESCR. : Saves the Unit-info (with room) to the next free block on the SD card.
//=============================================================
bool UnitHandler::AddUnit(unsigned char unitID, unsigned char RoomID)
{
    1e1e:	af 92       	push	r10
    1e20:	bf 92       	push	r11
    1e22:	cf 92       	push	r12
    1e24:	df 92       	push	r13
    1e26:	ef 92       	push	r14
    1e28:	ff 92       	push	r15
    1e2a:	0f 93       	push	r16
    1e2c:	1f 93       	push	r17
    1e2e:	cf 93       	push	r28
    1e30:	df 93       	push	r29
    1e32:	cd b7       	in	r28, 0x3d	; 61
    1e34:	de b7       	in	r29, 0x3e	; 62
    1e36:	c0 50       	subi	r28, 0x00	; 0
    1e38:	d2 40       	sbci	r29, 0x02	; 2
    1e3a:	0f b6       	in	r0, 0x3f	; 63
    1e3c:	f8 94       	cli
    1e3e:	de bf       	out	0x3e, r29	; 62
    1e40:	0f be       	out	0x3f, r0	; 63
    1e42:	cd bf       	out	0x3d, r28	; 61
    1e44:	6c 01       	movw	r12, r24
    1e46:	b6 2e       	mov	r11, r22
    1e48:	e4 2e       	mov	r14, r20
	numberOfUnits++;
    1e4a:	dc 01       	movw	r26, r24
    1e4c:	12 96       	adiw	r26, 0x02	; 2
    1e4e:	8c 91       	ld	r24, X
    1e50:	12 97       	sbiw	r26, 0x02	; 2
    1e52:	8f 5f       	subi	r24, 0xFF	; 255
    1e54:	12 96       	adiw	r26, 0x02	; 2
    1e56:	8c 93       	st	X, r24
	//We calculate the standard address assignment from the parameter "numberOfUnits"
	//if a unit has been deleted, the number has been used before. So we check to see if
	//the standard assignment for this "numberOfUnits" is already in use.
	
	//If true, standard assignment hasn't been used.
	if (checkStdAssignment())
    1e58:	c6 01       	movw	r24, r12
    1e5a:	0e 94 35 0c 	call	0x186a	; 0x186a <_ZN11UnitHandler18checkStdAssignmentEv>
    1e5e:	88 23       	and	r24, r24
    1e60:	09 f4       	brne	.+2      	; 0x1e64 <_ZN11UnitHandler7AddUnitEhh+0x46>
    1e62:	4e c0       	rjmp	.+156    	; 0x1f00 <_ZN11UnitHandler7AddUnitEhh+0xe2>
	{
		unsigned char data[512] = {0x00};
    1e64:	fe 01       	movw	r30, r28
    1e66:	31 96       	adiw	r30, 0x01	; 1
    1e68:	80 e0       	ldi	r24, 0x00	; 0
    1e6a:	92 e0       	ldi	r25, 0x02	; 2
    1e6c:	df 01       	movw	r26, r30
    1e6e:	9c 01       	movw	r18, r24
    1e70:	1d 92       	st	X+, r1
    1e72:	21 50       	subi	r18, 0x01	; 1
    1e74:	30 40       	sbci	r19, 0x00	; 0
    1e76:	e1 f7       	brne	.-8      	; 0x1e70 <_ZN11UnitHandler7AddUnitEhh+0x52>
		
		// Set data specific to the unit.
		data[0] = unitID;
    1e78:	b9 82       	std	Y+1, r11	; 0x01
		data[1] = numberOfUnits;
    1e7a:	d6 01       	movw	r26, r12
    1e7c:	12 96       	adiw	r26, 0x02	; 2
    1e7e:	8c 91       	ld	r24, X
    1e80:	8a 83       	std	Y+2, r24	; 0x02
		data[2] = RoomID;
    1e82:	eb 82       	std	Y+3, r14	; 0x03
    1e84:	01 e0       	ldi	r16, 0x01	; 1
    1e86:	10 e0       	ldi	r17, 0x00	; 0
		// For-loop makes sure to create 7 blocks for each unit.
		// One block represents one day of the week.
		for (unsigned char i = 1; i <= 7; i++)
		{
			// Set weekday (representated by a number, Monday to Sunday is 1 - 7)
			data[3] = i;
    1e88:	0c 83       	std	Y+4, r16	; 0x04
			
			//Calculate the starting point address (Standard assignment)
			unsigned long temp_address = (((2 + ((numberOfUnits - 1) * 7)) + i) - 1);
    1e8a:	f6 01       	movw	r30, r12
    1e8c:	82 81       	ldd	r24, Z+2	; 0x02
    1e8e:	90 e0       	ldi	r25, 0x00	; 0
    1e90:	01 97       	sbiw	r24, 0x01	; 1
    1e92:	ac 01       	movw	r20, r24
    1e94:	44 0f       	add	r20, r20
    1e96:	55 1f       	adc	r21, r21
    1e98:	44 0f       	add	r20, r20
    1e9a:	55 1f       	adc	r21, r21
    1e9c:	44 0f       	add	r20, r20
    1e9e:	55 1f       	adc	r21, r21
    1ea0:	48 1b       	sub	r20, r24
    1ea2:	59 0b       	sbc	r21, r25
    1ea4:	40 0f       	add	r20, r16
    1ea6:	51 1f       	adc	r21, r17
    1ea8:	4f 5f       	subi	r20, 0xFF	; 255
    1eaa:	5f 4f       	sbci	r21, 0xFF	; 255
    1eac:	66 27       	eor	r22, r22
    1eae:	57 fd       	sbrc	r21, 7
    1eb0:	60 95       	com	r22
    1eb2:	76 2f       	mov	r23, r22
			
			//Loop to give each write operation 9 tries to succeed.
			for (int y = 1; y <= 9; y++)
			{
				if (SD->writeBlock(temp_address, data))
    1eb4:	80 81       	ld	r24, Z
    1eb6:	91 81       	ldd	r25, Z+1	; 0x01
    1eb8:	9e 01       	movw	r18, r28
    1eba:	2f 5f       	subi	r18, 0xFF	; 255
    1ebc:	3f 4f       	sbci	r19, 0xFF	; 255
    1ebe:	0e 94 80 0a 	call	0x1500	; 0x1500 <_ZN6sdCard10writeBlockEmPKh>
    1ec2:	88 23       	and	r24, r24
    1ec4:	51 f4       	brne	.+20     	; 0x1eda <_ZN11UnitHandler7AddUnitEhh+0xbc>
				{
					y = 10;			// if write attempt succeeds, leave loop...
				}
				else if (y = 9)
				{
					numberOfUnits--;
    1ec6:	d6 01       	movw	r26, r12
    1ec8:	12 96       	adiw	r26, 0x02	; 2
    1eca:	8c 91       	ld	r24, X
    1ecc:	12 97       	sbiw	r26, 0x02	; 2
    1ece:	81 50       	subi	r24, 0x01	; 1
    1ed0:	12 96       	adiw	r26, 0x02	; 2
    1ed2:	8c 93       	st	X, r24
    1ed4:	12 97       	sbiw	r26, 0x02	; 2
					return false;
    1ed6:	80 e0       	ldi	r24, 0x00	; 0
    1ed8:	5f c0       	rjmp	.+190    	; 0x1f98 <_ZN11UnitHandler7AddUnitEhh+0x17a>
    1eda:	0f 5f       	subi	r16, 0xFF	; 255
    1edc:	1f 4f       	sbci	r17, 0xFF	; 255
		data[1] = numberOfUnits;
		data[2] = RoomID;
		
		// For-loop makes sure to create 7 blocks for each unit.
		// One block represents one day of the week.
		for (unsigned char i = 1; i <= 7; i++)
    1ede:	08 30       	cpi	r16, 0x08	; 8
    1ee0:	11 05       	cpc	r17, r1
    1ee2:	91 f6       	brne	.-92     	; 0x1e88 <_ZN11UnitHandler7AddUnitEhh+0x6a>
					return false;
				}
			}
		}
		//Add unit to the room and unit list.
		if (addUnitToRoom(RoomID))
    1ee4:	c6 01       	movw	r24, r12
    1ee6:	6e 2d       	mov	r22, r14
    1ee8:	0e 94 c4 0e 	call	0x1d88	; 0x1d88 <_ZN11UnitHandler13addUnitToRoomEh>
    1eec:	88 23       	and	r24, r24
    1eee:	09 f4       	brne	.+2      	; 0x1ef2 <_ZN11UnitHandler7AddUnitEhh+0xd4>
    1ef0:	50 c0       	rjmp	.+160    	; 0x1f92 <_ZN11UnitHandler7AddUnitEhh+0x174>
		{
			return addUnitToList(unitID, numberOfUnits);
    1ef2:	c6 01       	movw	r24, r12
    1ef4:	6b 2d       	mov	r22, r11
    1ef6:	f6 01       	movw	r30, r12
    1ef8:	42 81       	ldd	r20, Z+2	; 0x02
    1efa:	0e 94 6e 0c 	call	0x18dc	; 0x18dc <_ZN11UnitHandler13addUnitToListEhh>
    1efe:	4c c0       	rjmp	.+152    	; 0x1f98 <_ZN11UnitHandler7AddUnitEhh+0x17a>
	
	// If the standard assignment is already in use, we search to find out what unit has been deleted.
	// We then use temp to calculate the starting point address of the unit, and set byte1 in the block equal to temp
	else
	{
		unsigned char temp = searchFreeBlocks();
    1f00:	c6 01       	movw	r24, r12
    1f02:	0e 94 4d 0d 	call	0x1a9a	; 0x1a9a <_ZN11UnitHandler16searchFreeBlocksEv>
    1f06:	a8 2e       	mov	r10, r24
		unsigned char data[512] = {0x00};
    1f08:	fe 01       	movw	r30, r28
    1f0a:	31 96       	adiw	r30, 0x01	; 1
    1f0c:	80 e0       	ldi	r24, 0x00	; 0
    1f0e:	92 e0       	ldi	r25, 0x02	; 2
    1f10:	df 01       	movw	r26, r30
    1f12:	9c 01       	movw	r18, r24
    1f14:	1d 92       	st	X+, r1
    1f16:	21 50       	subi	r18, 0x01	; 1
    1f18:	30 40       	sbci	r19, 0x00	; 0
    1f1a:	e1 f7       	brne	.-8      	; 0x1f14 <_ZN11UnitHandler7AddUnitEhh+0xf6>
		
		// Set data specific to the unit.
		data[0] = unitID;
    1f1c:	b9 82       	std	Y+1, r11	; 0x01
		data[1] = temp;
    1f1e:	aa 82       	std	Y+2, r10	; 0x02
		data[2] = RoomID;
    1f20:	eb 82       	std	Y+3, r14	; 0x03
		{
			// Set weekday (representated by a number, Monday to Sunday is 1 - 7)
			data[3] = i;
			
			//Calculate the starting point address (Standard assignment)
			unsigned long temp_address = (((2 + ((temp - 1) * 7)) + i) - 1);
    1f22:	8a 2d       	mov	r24, r10
    1f24:	90 e0       	ldi	r25, 0x00	; 0
    1f26:	01 97       	sbiw	r24, 0x01	; 1
    1f28:	8c 01       	movw	r16, r24
    1f2a:	00 0f       	add	r16, r16
    1f2c:	11 1f       	adc	r17, r17
    1f2e:	00 0f       	add	r16, r16
    1f30:	11 1f       	adc	r17, r17
    1f32:	00 0f       	add	r16, r16
    1f34:	11 1f       	adc	r17, r17
    1f36:	08 1b       	sub	r16, r24
    1f38:	19 0b       	sbc	r17, r25
    1f3a:	0e 5f       	subi	r16, 0xFE	; 254
    1f3c:	1f 4f       	sbci	r17, 0xFF	; 255
		data[1] = temp;
		data[2] = RoomID;
		
		// For-loop makes sure to create 7 blocks for each unit.
		// One block represents one day of the week.
		for (unsigned char i = 1; i <= 7; i++)
    1f3e:	ff 24       	eor	r15, r15
    1f40:	f3 94       	inc	r15
		{
			// Set weekday (representated by a number, Monday to Sunday is 1 - 7)
			data[3] = i;
    1f42:	fc 82       	std	Y+4, r15	; 0x04
			
			//Calculate the starting point address (Standard assignment)
			unsigned long temp_address = (((2 + ((temp - 1) * 7)) + i) - 1);
    1f44:	a8 01       	movw	r20, r16
    1f46:	66 27       	eor	r22, r22
    1f48:	57 fd       	sbrc	r21, 7
    1f4a:	60 95       	com	r22
    1f4c:	76 2f       	mov	r23, r22
			
			
			//Loop to give each write operation 9 tries to succeed.
			for (int y = 1; y <= 9; y++)
			{
				if (SD->writeBlock(temp_address, data))
    1f4e:	d6 01       	movw	r26, r12
    1f50:	8d 91       	ld	r24, X+
    1f52:	9c 91       	ld	r25, X
    1f54:	9e 01       	movw	r18, r28
    1f56:	2f 5f       	subi	r18, 0xFF	; 255
    1f58:	3f 4f       	sbci	r19, 0xFF	; 255
    1f5a:	0e 94 80 0a 	call	0x1500	; 0x1500 <_ZN6sdCard10writeBlockEmPKh>
    1f5e:	88 23       	and	r24, r24
    1f60:	31 f4       	brne	.+12     	; 0x1f6e <_ZN11UnitHandler7AddUnitEhh+0x150>
				{
					y = 10;			// if write attempt succeeds, leave loop...
				}
				else if (y = 9)
				{
					numberOfUnits--;
    1f62:	f6 01       	movw	r30, r12
    1f64:	82 81       	ldd	r24, Z+2	; 0x02
    1f66:	81 50       	subi	r24, 0x01	; 1
    1f68:	82 83       	std	Z+2, r24	; 0x02
					return false;
    1f6a:	80 e0       	ldi	r24, 0x00	; 0
    1f6c:	15 c0       	rjmp	.+42     	; 0x1f98 <_ZN11UnitHandler7AddUnitEhh+0x17a>
		data[1] = temp;
		data[2] = RoomID;
		
		// For-loop makes sure to create 7 blocks for each unit.
		// One block represents one day of the week.
		for (unsigned char i = 1; i <= 7; i++)
    1f6e:	f3 94       	inc	r15
    1f70:	0f 5f       	subi	r16, 0xFF	; 255
    1f72:	1f 4f       	sbci	r17, 0xFF	; 255
    1f74:	f8 e0       	ldi	r31, 0x08	; 8
    1f76:	ff 16       	cp	r15, r31
    1f78:	21 f7       	brne	.-56     	; 0x1f42 <_ZN11UnitHandler7AddUnitEhh+0x124>
					return false;
				}
			}
		}
		//Add unit to the unit list.
		if (addUnitToRoom(RoomID))
    1f7a:	c6 01       	movw	r24, r12
    1f7c:	6e 2d       	mov	r22, r14
    1f7e:	0e 94 c4 0e 	call	0x1d88	; 0x1d88 <_ZN11UnitHandler13addUnitToRoomEh>
    1f82:	88 23       	and	r24, r24
    1f84:	41 f0       	breq	.+16     	; 0x1f96 <_ZN11UnitHandler7AddUnitEhh+0x178>
		{
			return addUnitToList(unitID, temp);
    1f86:	c6 01       	movw	r24, r12
    1f88:	6b 2d       	mov	r22, r11
    1f8a:	4a 2d       	mov	r20, r10
    1f8c:	0e 94 6e 0c 	call	0x18dc	; 0x18dc <_ZN11UnitHandler13addUnitToListEhh>
    1f90:	03 c0       	rjmp	.+6      	; 0x1f98 <_ZN11UnitHandler7AddUnitEhh+0x17a>
		//Add unit to the room and unit list.
		if (addUnitToRoom(RoomID))
		{
			return addUnitToList(unitID, numberOfUnits);
		}		
		else return false;
    1f92:	80 e0       	ldi	r24, 0x00	; 0
    1f94:	01 c0       	rjmp	.+2      	; 0x1f98 <_ZN11UnitHandler7AddUnitEhh+0x17a>
		//Add unit to the unit list.
		if (addUnitToRoom(RoomID))
		{
			return addUnitToList(unitID, temp);
		}
		else return false;
    1f96:	80 e0       	ldi	r24, 0x00	; 0
	}
}
    1f98:	c0 50       	subi	r28, 0x00	; 0
    1f9a:	de 4f       	sbci	r29, 0xFE	; 254
    1f9c:	0f b6       	in	r0, 0x3f	; 63
    1f9e:	f8 94       	cli
    1fa0:	de bf       	out	0x3e, r29	; 62
    1fa2:	0f be       	out	0x3f, r0	; 63
    1fa4:	cd bf       	out	0x3d, r28	; 61
    1fa6:	df 91       	pop	r29
    1fa8:	cf 91       	pop	r28
    1faa:	1f 91       	pop	r17
    1fac:	0f 91       	pop	r16
    1fae:	ff 90       	pop	r15
    1fb0:	ef 90       	pop	r14
    1fb2:	df 90       	pop	r13
    1fb4:	cf 90       	pop	r12
    1fb6:	bf 90       	pop	r11
    1fb8:	af 90       	pop	r10
    1fba:	08 95       	ret

00001fbc <_ZN11UnitHandler18removeUnitFromRoomEhh>:
//=============================================================
// METHOD : removeUnitFromRoom()
// DESCR. : decrement the count for the room in the roomlist.
//=============================================================
bool UnitHandler::removeUnitFromRoom(unsigned char unitID, unsigned char roomID)
{
    1fbc:	8f 92       	push	r8
    1fbe:	9f 92       	push	r9
    1fc0:	af 92       	push	r10
    1fc2:	bf 92       	push	r11
    1fc4:	cf 92       	push	r12
    1fc6:	df 92       	push	r13
    1fc8:	ef 92       	push	r14
    1fca:	ff 92       	push	r15
    1fcc:	0f 93       	push	r16
    1fce:	1f 93       	push	r17
    1fd0:	cf 93       	push	r28
    1fd2:	df 93       	push	r29
    1fd4:	cd b7       	in	r28, 0x3d	; 61
    1fd6:	de b7       	in	r29, 0x3e	; 62
    1fd8:	c0 50       	subi	r28, 0x00	; 0
    1fda:	d6 40       	sbci	r29, 0x06	; 6
    1fdc:	0f b6       	in	r0, 0x3f	; 63
    1fde:	f8 94       	cli
    1fe0:	de bf       	out	0x3e, r29	; 62
    1fe2:	0f be       	out	0x3f, r0	; 63
    1fe4:	cd bf       	out	0x3d, r28	; 61
    1fe6:	5c 01       	movw	r10, r24
    1fe8:	c6 2e       	mov	r12, r22
    1fea:	04 2f       	mov	r16, r20
	unsigned char temp_list[512] = {0x00};
    1fec:	be 01       	movw	r22, r28
    1fee:	6f 5f       	subi	r22, 0xFF	; 255
    1ff0:	7b 4f       	sbci	r23, 0xFB	; 251
    1ff2:	80 e0       	ldi	r24, 0x00	; 0
    1ff4:	92 e0       	ldi	r25, 0x02	; 2
    1ff6:	db 01       	movw	r26, r22
    1ff8:	fc 01       	movw	r30, r24
    1ffa:	1d 92       	st	X+, r1
    1ffc:	31 97       	sbiw	r30, 0x01	; 1
    1ffe:	e9 f7       	brne	.-6      	; 0x1ffa <_ZN11UnitHandler18removeUnitFromRoomEhh+0x3e>
	getRoomList(temp_list);
    2000:	c5 01       	movw	r24, r10
    2002:	0e 94 8f 0d 	call	0x1b1e	; 0x1b1e <_ZN11UnitHandler11getRoomListEPh>
	
	//Search for the room, and decrement room count with 1.
	for (int i = 0; i <= 511; i++)
    2006:	80 e0       	ldi	r24, 0x00	; 0
    2008:	90 e0       	ldi	r25, 0x00	; 0
	{
		if (i % 2 == 0)
    200a:	80 fd       	sbrc	r24, 0
    200c:	12 c0       	rjmp	.+36     	; 0x2032 <_ZN11UnitHandler18removeUnitFromRoomEhh+0x76>

//=============================================================
// METHOD : removeUnitFromRoom()
// DESCR. : decrement the count for the room in the roomlist.
//=============================================================
bool UnitHandler::removeUnitFromRoom(unsigned char unitID, unsigned char roomID)
    200e:	e1 e0       	ldi	r30, 0x01	; 1
    2010:	f4 e0       	ldi	r31, 0x04	; 4
    2012:	ec 0f       	add	r30, r28
    2014:	fd 1f       	adc	r31, r29
    2016:	e8 0f       	add	r30, r24
    2018:	f9 1f       	adc	r31, r25
	//Search for the room, and decrement room count with 1.
	for (int i = 0; i <= 511; i++)
	{
		if (i % 2 == 0)
		{
			if (roomID == temp_list[i])
    201a:	20 81       	ld	r18, Z
    201c:	20 17       	cp	r18, r16
    201e:	49 f4       	brne	.+18     	; 0x2032 <_ZN11UnitHandler18removeUnitFromRoomEhh+0x76>
			{
				temp_list[i + 1] = temp_list[i + 1] - 1;
    2020:	8c 0f       	add	r24, r28
    2022:	9d 1f       	adc	r25, r29
    2024:	fc 01       	movw	r30, r24
    2026:	ee 5f       	subi	r30, 0xFE	; 254
    2028:	fb 4f       	sbci	r31, 0xFB	; 251
    202a:	80 81       	ld	r24, Z
    202c:	81 50       	subi	r24, 0x01	; 1
    202e:	80 83       	st	Z, r24
    2030:	05 c0       	rjmp	.+10     	; 0x203c <_ZN11UnitHandler18removeUnitFromRoomEhh+0x80>
{
	unsigned char temp_list[512] = {0x00};
	getRoomList(temp_list);
	
	//Search for the room, and decrement room count with 1.
	for (int i = 0; i <= 511; i++)
    2032:	01 96       	adiw	r24, 0x01	; 1
    2034:	f2 e0       	ldi	r31, 0x02	; 2
    2036:	80 30       	cpi	r24, 0x00	; 0
    2038:	9f 07       	cpc	r25, r31
    203a:	39 f7       	brne	.-50     	; 0x200a <_ZN11UnitHandler18removeUnitFromRoomEhh+0x4e>
	}
	
	//Write new list to SD
	for (int y = 1; y <= 9; y++)
	{
		if (SD->writeBlock(1, temp_list))
    203c:	d5 01       	movw	r26, r10
    203e:	8d 91       	ld	r24, X+
    2040:	9c 91       	ld	r25, X
    2042:	41 e0       	ldi	r20, 0x01	; 1
    2044:	50 e0       	ldi	r21, 0x00	; 0
    2046:	60 e0       	ldi	r22, 0x00	; 0
    2048:	70 e0       	ldi	r23, 0x00	; 0
    204a:	9e 01       	movw	r18, r28
    204c:	2f 5f       	subi	r18, 0xFF	; 255
    204e:	3b 4f       	sbci	r19, 0xFB	; 251
    2050:	0e 94 80 0a 	call	0x1500	; 0x1500 <_ZN6sdCard10writeBlockEmPKh>
    2054:	88 23       	and	r24, r24
    2056:	09 f4       	brne	.+2      	; 0x205a <_ZN11UnitHandler18removeUnitFromRoomEhh+0x9e>
    2058:	5c c0       	rjmp	.+184    	; 0x2112 <_ZN11UnitHandler18removeUnitFromRoomEhh+0x156>
		{
			return false;
		}
	}
	
	unsigned char temp_list2[512] = {0x00};
    205a:	be 01       	movw	r22, r28
    205c:	6f 5f       	subi	r22, 0xFF	; 255
    205e:	7d 4f       	sbci	r23, 0xFD	; 253
    2060:	80 e0       	ldi	r24, 0x00	; 0
    2062:	92 e0       	ldi	r25, 0x02	; 2
    2064:	fb 01       	movw	r30, r22
    2066:	9c 01       	movw	r18, r24
    2068:	11 92       	st	Z+, r1
    206a:	21 50       	subi	r18, 0x01	; 1
    206c:	30 40       	sbci	r19, 0x00	; 0
    206e:	e1 f7       	brne	.-8      	; 0x2068 <_ZN11UnitHandler18removeUnitFromRoomEhh+0xac>
	getUnitList(temp_list2);
    2070:	c5 01       	movw	r24, r10
    2072:	0e 94 2b 0c 	call	0x1856	; 0x1856 <_ZN11UnitHandler11getUnitListEPh>
	unsigned char start_block = 0x00;
		
	//Find and calculate the starting block of the specified unit.
	for (int x = 0; x <= 511; x++)
    2076:	80 e0       	ldi	r24, 0x00	; 0
    2078:	90 e0       	ldi	r25, 0x00	; 0
	{
		if (x % 2 == 0 && temp_list2[x] == unitID)
    207a:	80 fd       	sbrc	r24, 0
    207c:	13 c0       	rjmp	.+38     	; 0x20a4 <_ZN11UnitHandler18removeUnitFromRoomEhh+0xe8>

//=============================================================
// METHOD : removeUnitFromRoom()
// DESCR. : decrement the count for the room in the roomlist.
//=============================================================
bool UnitHandler::removeUnitFromRoom(unsigned char unitID, unsigned char roomID)
    207e:	e1 e0       	ldi	r30, 0x01	; 1
    2080:	f2 e0       	ldi	r31, 0x02	; 2
    2082:	ec 0f       	add	r30, r28
    2084:	fd 1f       	adc	r31, r29
    2086:	e8 0f       	add	r30, r24
    2088:	f9 1f       	adc	r31, r25
	unsigned char start_block = 0x00;
		
	//Find and calculate the starting block of the specified unit.
	for (int x = 0; x <= 511; x++)
	{
		if (x % 2 == 0 && temp_list2[x] == unitID)
    208a:	20 81       	ld	r18, Z
    208c:	2c 15       	cp	r18, r12
    208e:	51 f4       	brne	.+20     	; 0x20a4 <_ZN11UnitHandler18removeUnitFromRoomEhh+0xe8>
		{
			start_block = (2 + ((temp_list2[x + 1] - 1) * 7));
    2090:	81 81       	ldd	r24, Z+1	; 0x01
    2092:	81 50       	subi	r24, 0x01	; 1
    2094:	88 2e       	mov	r8, r24
    2096:	88 0c       	add	r8, r8
    2098:	88 0c       	add	r8, r8
    209a:	88 0c       	add	r8, r8
    209c:	88 1a       	sub	r8, r24
    209e:	28 2d       	mov	r18, r8
    20a0:	2e 5f       	subi	r18, 0xFE	; 254
    20a2:	06 c0       	rjmp	.+12     	; 0x20b0 <_ZN11UnitHandler18removeUnitFromRoomEhh+0xf4>
	unsigned char temp_list2[512] = {0x00};
	getUnitList(temp_list2);
	unsigned char start_block = 0x00;
		
	//Find and calculate the starting block of the specified unit.
	for (int x = 0; x <= 511; x++)
    20a4:	01 96       	adiw	r24, 0x01	; 1
    20a6:	b2 e0       	ldi	r27, 0x02	; 2
    20a8:	80 30       	cpi	r24, 0x00	; 0
    20aa:	9b 07       	cpc	r25, r27
    20ac:	31 f7       	brne	.-52     	; 0x207a <_ZN11UnitHandler18removeUnitFromRoomEhh+0xbe>
    20ae:	20 e0       	ldi	r18, 0x00	; 0
			x = 512;
		}
	}
	
	unsigned long adress_block = 0x00000000;
	unsigned char newList[512] = {0x00};
    20b0:	fe 01       	movw	r30, r28
    20b2:	31 96       	adiw	r30, 0x01	; 1
    20b4:	80 e0       	ldi	r24, 0x00	; 0
    20b6:	92 e0       	ldi	r25, 0x02	; 2
    20b8:	df 01       	movw	r26, r30
    20ba:	ac 01       	movw	r20, r24
    20bc:	1d 92       	st	X+, r1
    20be:	41 50       	subi	r20, 0x01	; 1
    20c0:	50 40       	sbci	r21, 0x00	; 0
    20c2:	e1 f7       	brne	.-8      	; 0x20bc <_ZN11UnitHandler18removeUnitFromRoomEhh+0x100>
	
	for (int z = 0; z <= 6; z++)
    20c4:	00 e0       	ldi	r16, 0x00	; 0
    20c6:	10 e0       	ldi	r17, 0x00	; 0

//=============================================================
// METHOD : removeUnitFromRoom()
// DESCR. : decrement the count for the room in the roomlist.
//=============================================================
bool UnitHandler::removeUnitFromRoom(unsigned char unitID, unsigned char roomID)
    20c8:	82 2e       	mov	r8, r18
    20ca:	99 24       	eor	r9, r9
    20cc:	68 01       	movw	r12, r16
    20ce:	c8 0c       	add	r12, r8
    20d0:	d9 1c       	adc	r13, r9
	unsigned long adress_block = 0x00000000;
	unsigned char newList[512] = {0x00};
	
	for (int z = 0; z <= 6; z++)
	{
		adress_block = start_block + z;
    20d2:	ee 24       	eor	r14, r14
    20d4:	d7 fc       	sbrc	r13, 7
    20d6:	e0 94       	com	r14
    20d8:	fe 2c       	mov	r15, r14
		
		SD->readBlock(adress_block, newList);
    20da:	d5 01       	movw	r26, r10
    20dc:	8d 91       	ld	r24, X+
    20de:	9c 91       	ld	r25, X
    20e0:	b7 01       	movw	r22, r14
    20e2:	a6 01       	movw	r20, r12
    20e4:	9e 01       	movw	r18, r28
    20e6:	2f 5f       	subi	r18, 0xFF	; 255
    20e8:	3f 4f       	sbci	r19, 0xFF	; 255
    20ea:	0e 94 08 0a 	call	0x1410	; 0x1410 <_ZN6sdCard9readBlockEmPh>
		
		newList[2] = 0x00;
    20ee:	1b 82       	std	Y+3, r1	; 0x03
		
		SD->writeBlock(adress_block, newList);
    20f0:	f5 01       	movw	r30, r10
    20f2:	80 81       	ld	r24, Z
    20f4:	91 81       	ldd	r25, Z+1	; 0x01
    20f6:	b7 01       	movw	r22, r14
    20f8:	a6 01       	movw	r20, r12
    20fa:	9e 01       	movw	r18, r28
    20fc:	2f 5f       	subi	r18, 0xFF	; 255
    20fe:	3f 4f       	sbci	r19, 0xFF	; 255
    2100:	0e 94 80 0a 	call	0x1500	; 0x1500 <_ZN6sdCard10writeBlockEmPKh>
	}
	
	unsigned long adress_block = 0x00000000;
	unsigned char newList[512] = {0x00};
	
	for (int z = 0; z <= 6; z++)
    2104:	0f 5f       	subi	r16, 0xFF	; 255
    2106:	1f 4f       	sbci	r17, 0xFF	; 255
    2108:	07 30       	cpi	r16, 0x07	; 7
    210a:	11 05       	cpc	r17, r1
    210c:	f9 f6       	brne	.-66     	; 0x20cc <_ZN11UnitHandler18removeUnitFromRoomEhh+0x110>
		
		SD->writeBlock(adress_block, newList);
	}


	return true;
    210e:	81 e0       	ldi	r24, 0x01	; 1
    2110:	01 c0       	rjmp	.+2      	; 0x2114 <_ZN11UnitHandler18removeUnitFromRoomEhh+0x158>
		{
			y = 10;			// if write attempt succeeds, leave loop...
		}
		else if (y = 9)
		{
			return false;
    2112:	80 e0       	ldi	r24, 0x00	; 0
		SD->writeBlock(adress_block, newList);
	}


	return true;
}
    2114:	c0 50       	subi	r28, 0x00	; 0
    2116:	da 4f       	sbci	r29, 0xFA	; 250
    2118:	0f b6       	in	r0, 0x3f	; 63
    211a:	f8 94       	cli
    211c:	de bf       	out	0x3e, r29	; 62
    211e:	0f be       	out	0x3f, r0	; 63
    2120:	cd bf       	out	0x3d, r28	; 61
    2122:	df 91       	pop	r29
    2124:	cf 91       	pop	r28
    2126:	1f 91       	pop	r17
    2128:	0f 91       	pop	r16
    212a:	ff 90       	pop	r15
    212c:	ef 90       	pop	r14
    212e:	df 90       	pop	r13
    2130:	cf 90       	pop	r12
    2132:	bf 90       	pop	r11
    2134:	af 90       	pop	r10
    2136:	9f 90       	pop	r9
    2138:	8f 90       	pop	r8
    213a:	08 95       	ret

0000213c <_ZN11UnitHandler10deleteRoomEh>:
//=============================================================
// METHOD : deleteRoom()
// DESCR. : Deletes the specified unit and unit count for that room, and removes the roomID from the units belonging to that room
//=============================================================
bool UnitHandler::deleteRoom(unsigned char RoomID)
{
    213c:	af 92       	push	r10
    213e:	bf 92       	push	r11
    2140:	cf 92       	push	r12
    2142:	df 92       	push	r13
    2144:	ef 92       	push	r14
    2146:	ff 92       	push	r15
    2148:	0f 93       	push	r16
    214a:	1f 93       	push	r17
    214c:	cf 93       	push	r28
    214e:	df 93       	push	r29
    2150:	cd b7       	in	r28, 0x3d	; 61
    2152:	de b7       	in	r29, 0x3e	; 62
    2154:	c0 50       	subi	r28, 0x00	; 0
    2156:	d4 40       	sbci	r29, 0x04	; 4
    2158:	0f b6       	in	r0, 0x3f	; 63
    215a:	f8 94       	cli
    215c:	de bf       	out	0x3e, r29	; 62
    215e:	0f be       	out	0x3f, r0	; 63
    2160:	cd bf       	out	0x3d, r28	; 61
    2162:	7c 01       	movw	r14, r24
    2164:	d6 2e       	mov	r13, r22
	unsigned char temp_list[512] = {0x00};
    2166:	be 01       	movw	r22, r28
    2168:	6f 5f       	subi	r22, 0xFF	; 255
    216a:	7d 4f       	sbci	r23, 0xFD	; 253
    216c:	80 e0       	ldi	r24, 0x00	; 0
    216e:	92 e0       	ldi	r25, 0x02	; 2
    2170:	db 01       	movw	r26, r22
    2172:	fc 01       	movw	r30, r24
    2174:	1d 92       	st	X+, r1
    2176:	31 97       	sbiw	r30, 0x01	; 1
    2178:	e9 f7       	brne	.-6      	; 0x2174 <_ZN11UnitHandler10deleteRoomEh+0x38>
	unsigned char count = 0x00;
	unsigned char unitsHandled = 0x00;
	unsigned long blockPoint;
	unsigned char data[512];
	
	getRoomList(temp_list);
    217a:	c7 01       	movw	r24, r14
    217c:	0e 94 8f 0d 	call	0x1b1e	; 0x1b1e <_ZN11UnitHandler11getRoomListEPh>
	
	for (int i = 0; i <= 511; i++)
    2180:	e0 e0       	ldi	r30, 0x00	; 0
    2182:	f0 e0       	ldi	r31, 0x00	; 0
	{
		if (i % 2 == 0)
    2184:	e0 fd       	sbrc	r30, 0
    2186:	31 c0       	rjmp	.+98     	; 0x21ea <_ZN11UnitHandler10deleteRoomEh+0xae>

//=============================================================
// METHOD : deleteRoom()
// DESCR. : Deletes the specified unit and unit count for that room, and removes the roomID from the units belonging to that room
//=============================================================
bool UnitHandler::deleteRoom(unsigned char RoomID)
    2188:	a1 e0       	ldi	r26, 0x01	; 1
    218a:	b2 e0       	ldi	r27, 0x02	; 2
    218c:	ac 0f       	add	r26, r28
    218e:	bd 1f       	adc	r27, r29
    2190:	ae 0f       	add	r26, r30
    2192:	bf 1f       	adc	r27, r31
	{
		if (i % 2 == 0)
		{
			spot = temp_list[i];
			
			if (RoomID == spot)
    2194:	8c 91       	ld	r24, X
    2196:	d8 16       	cp	r13, r24
    2198:	41 f5       	brne	.+80     	; 0x21ea <_ZN11UnitHandler10deleteRoomEh+0xae>
			{
				//Saves the number of units belonging to that room.
				count = temp_list[i + 1];
    219a:	de 01       	movw	r26, r28
    219c:	ae 0f       	add	r26, r30
    219e:	bf 1f       	adc	r27, r31
    21a0:	ae 5f       	subi	r26, 0xFE	; 254
    21a2:	bd 4f       	sbci	r27, 0xFD	; 253
    21a4:	cc 90       	ld	r12, X
				//Set unit count for that room equal too 0.
				temp_list[i + 1] = 0x00;
    21a6:	1c 92       	st	X, r1

				//shift the register (list) to overwrite the room we want to delete.
				for (int x = 2; (x + i) <= 511; x++)
    21a8:	cf 01       	movw	r24, r30
    21aa:	02 96       	adiw	r24, 0x02	; 2
    21ac:	22 e0       	ldi	r18, 0x02	; 2
    21ae:	80 30       	cpi	r24, 0x00	; 0
    21b0:	92 07       	cpc	r25, r18
    21b2:	0c f0       	brlt	.+2      	; 0x21b6 <_ZN11UnitHandler10deleteRoomEh+0x7a>
    21b4:	79 c0       	rjmp	.+242    	; 0x22a8 <__stack+0xa9>

//=============================================================
// METHOD : deleteRoom()
// DESCR. : Deletes the specified unit and unit count for that room, and removes the roomID from the units belonging to that room
//=============================================================
bool UnitHandler::deleteRoom(unsigned char RoomID)
    21b6:	9f 01       	movw	r18, r30
    21b8:	2d 5f       	subi	r18, 0xFD	; 253
    21ba:	3f 4f       	sbci	r19, 0xFF	; 255
				temp_list[i + 1] = 0x00;

				//shift the register (list) to overwrite the room we want to delete.
				for (int x = 2; (x + i) <= 511; x++)
				{
					temp_list[i] = temp_list[x + i];
    21bc:	41 e0       	ldi	r20, 0x01	; 1
    21be:	52 e0       	ldi	r21, 0x02	; 2
    21c0:	4c 0f       	add	r20, r28
    21c2:	5d 1f       	adc	r21, r29
    21c4:	e4 0f       	add	r30, r20
    21c6:	f5 1f       	adc	r31, r21
    21c8:	a1 e0       	ldi	r26, 0x01	; 1
    21ca:	b2 e0       	ldi	r27, 0x02	; 2
    21cc:	ac 0f       	add	r26, r28
    21ce:	bd 1f       	adc	r27, r29
    21d0:	8a 0f       	add	r24, r26
    21d2:	9b 1f       	adc	r25, r27
    21d4:	dc 01       	movw	r26, r24
    21d6:	8c 91       	ld	r24, X
    21d8:	80 83       	st	Z, r24
				count = temp_list[i + 1];
				//Set unit count for that room equal too 0.
				temp_list[i + 1] = 0x00;

				//shift the register (list) to overwrite the room we want to delete.
				for (int x = 2; (x + i) <= 511; x++)
    21da:	c9 01       	movw	r24, r18
    21dc:	2f 5f       	subi	r18, 0xFF	; 255
    21de:	3f 4f       	sbci	r19, 0xFF	; 255
    21e0:	b2 e0       	ldi	r27, 0x02	; 2
    21e2:	21 30       	cpi	r18, 0x01	; 1
    21e4:	3b 07       	cpc	r19, r27
    21e6:	81 f7       	brne	.-32     	; 0x21c8 <_ZN11UnitHandler10deleteRoomEh+0x8c>
    21e8:	5f c0       	rjmp	.+190    	; 0x22a8 <__stack+0xa9>
	unsigned long blockPoint;
	unsigned char data[512];
	
	getRoomList(temp_list);
	
	for (int i = 0; i <= 511; i++)
    21ea:	31 96       	adiw	r30, 0x01	; 1
    21ec:	22 e0       	ldi	r18, 0x02	; 2
    21ee:	e0 30       	cpi	r30, 0x00	; 0
    21f0:	f2 07       	cpc	r31, r18
    21f2:	41 f6       	brne	.-112    	; 0x2184 <_ZN11UnitHandler10deleteRoomEh+0x48>
    21f4:	cc 24       	eor	r12, r12
    21f6:	aa 24       	eor	r10, r10
	}
	
	//Write new list to SD
	for (int y = 1; y <= 3; y++)
	{
		if (SD->writeBlock(1, temp_list))
    21f8:	d7 01       	movw	r26, r14
    21fa:	8d 91       	ld	r24, X+
    21fc:	9c 91       	ld	r25, X
    21fe:	41 e0       	ldi	r20, 0x01	; 1
    2200:	50 e0       	ldi	r21, 0x00	; 0
    2202:	60 e0       	ldi	r22, 0x00	; 0
    2204:	70 e0       	ldi	r23, 0x00	; 0
    2206:	9e 01       	movw	r18, r28
    2208:	2f 5f       	subi	r18, 0xFF	; 255
    220a:	3d 4f       	sbci	r19, 0xFD	; 253
    220c:	0e 94 80 0a 	call	0x1500	; 0x1500 <_ZN6sdCard10writeBlockEmPKh>
    2210:	88 23       	and	r24, r24
    2212:	b9 f1       	breq	.+110    	; 0x2282 <__stack+0x83>
    2214:	00 e0       	ldi	r16, 0x00	; 0
    2216:	10 e0       	ldi	r17, 0x00	; 0
    2218:	bb 24       	eor	r11, r11
	}
	
	//Search through the SD-card to find units belonging to the specified room, and delete room.
	for (int i = 0; i <= numberOfUnits; i++)
	{
		blockPoint = ((2 + (i * 7)) + 1);
    221a:	a8 01       	movw	r20, r16
    221c:	44 0f       	add	r20, r20
    221e:	55 1f       	adc	r21, r21
    2220:	44 0f       	add	r20, r20
    2222:	55 1f       	adc	r21, r21
    2224:	44 0f       	add	r20, r20
    2226:	55 1f       	adc	r21, r21
    2228:	40 1b       	sub	r20, r16
    222a:	51 0b       	sbc	r21, r17
    222c:	4d 5f       	subi	r20, 0xFD	; 253
    222e:	5f 4f       	sbci	r21, 0xFF	; 255
    2230:	66 27       	eor	r22, r22
    2232:	57 fd       	sbrc	r21, 7
    2234:	60 95       	com	r22
    2236:	76 2f       	mov	r23, r22
		
		SD->readBlock(blockPoint, data);
    2238:	f7 01       	movw	r30, r14
    223a:	80 81       	ld	r24, Z
    223c:	91 81       	ldd	r25, Z+1	; 0x01
    223e:	9e 01       	movw	r18, r28
    2240:	2f 5f       	subi	r18, 0xFF	; 255
    2242:	3f 4f       	sbci	r19, 0xFF	; 255
    2244:	0e 94 08 0a 	call	0x1410	; 0x1410 <_ZN6sdCard9readBlockEmPh>
		
		if (data[2] == RoomID)
    2248:	8b 81       	ldd	r24, Y+3	; 0x03
    224a:	8d 15       	cp	r24, r13
    224c:	81 f4       	brne	.+32     	; 0x226e <__stack+0x6f>
		{
			removeUnitFromRoom(data[0], RoomID);
    224e:	c7 01       	movw	r24, r14
    2250:	69 81       	ldd	r22, Y+1	; 0x01
    2252:	4d 2d       	mov	r20, r13
    2254:	0e 94 de 0f 	call	0x1fbc	; 0x1fbc <_ZN11UnitHandler18removeUnitFromRoomEhh>
			unitsHandled++;
    2258:	b3 94       	inc	r11
			if (unitsHandled == count)
    225a:	ba 14       	cp	r11, r10
    225c:	41 f4       	brne	.+16     	; 0x226e <__stack+0x6f>
			{
				i = numberOfUnits + 1;
    225e:	d7 01       	movw	r26, r14
    2260:	12 96       	adiw	r26, 0x02	; 2
    2262:	0c 91       	ld	r16, X
    2264:	12 97       	sbiw	r26, 0x02	; 2
    2266:	10 e0       	ldi	r17, 0x00	; 0
    2268:	0f 5f       	subi	r16, 0xFF	; 255
    226a:	1f 4f       	sbci	r17, 0xFF	; 255
    226c:	bc 2c       	mov	r11, r12
			return false;
		}
	}
	
	//Search through the SD-card to find units belonging to the specified room, and delete room.
	for (int i = 0; i <= numberOfUnits; i++)
    226e:	0f 5f       	subi	r16, 0xFF	; 255
    2270:	1f 4f       	sbci	r17, 0xFF	; 255
    2272:	f7 01       	movw	r30, r14
    2274:	82 81       	ldd	r24, Z+2	; 0x02
    2276:	90 e0       	ldi	r25, 0x00	; 0
    2278:	80 17       	cp	r24, r16
    227a:	91 07       	cpc	r25, r17
    227c:	74 f6       	brge	.-100    	; 0x221a <__stack+0x1b>
			{
				i = numberOfUnits + 1;
			}
		}		
	}
	return true;
    227e:	81 e0       	ldi	r24, 0x01	; 1
    2280:	01 c0       	rjmp	.+2      	; 0x2284 <__stack+0x85>
		{
			y = 4;			// if write attempt succeeds, leave loop...
		}
		else if (y = 3)
		{
			return false;
    2282:	80 e0       	ldi	r24, 0x00	; 0
				i = numberOfUnits + 1;
			}
		}		
	}
	return true;
}
    2284:	c0 50       	subi	r28, 0x00	; 0
    2286:	dc 4f       	sbci	r29, 0xFC	; 252
    2288:	0f b6       	in	r0, 0x3f	; 63
    228a:	f8 94       	cli
    228c:	de bf       	out	0x3e, r29	; 62
    228e:	0f be       	out	0x3f, r0	; 63
    2290:	cd bf       	out	0x3d, r28	; 61
    2292:	df 91       	pop	r29
    2294:	cf 91       	pop	r28
    2296:	1f 91       	pop	r17
    2298:	0f 91       	pop	r16
    229a:	ff 90       	pop	r15
    229c:	ef 90       	pop	r14
    229e:	df 90       	pop	r13
    22a0:	cf 90       	pop	r12
    22a2:	bf 90       	pop	r11
    22a4:	af 90       	pop	r10
    22a6:	08 95       	ret
	unsigned long blockPoint;
	unsigned char data[512];
	
	getRoomList(temp_list);
	
	for (int i = 0; i <= 511; i++)
    22a8:	ac 2c       	mov	r10, r12
    22aa:	a6 cf       	rjmp	.-180    	; 0x21f8 <_ZN11UnitHandler10deleteRoomEh+0xbc>

000022ac <_ZN11UnitHandler10UpdateTimeEhPh>:
// =============================================================
// METHOD : UpdateTime()
// DESCR. : Sends updated timetable for one specified unit, on one specified day
// =============================================================
bool UnitHandler::UpdateTime(unsigned char unitID, unsigned char schedule[])
{
    22ac:	8f 92       	push	r8
    22ae:	9f 92       	push	r9
    22b0:	af 92       	push	r10
    22b2:	bf 92       	push	r11
    22b4:	cf 92       	push	r12
    22b6:	df 92       	push	r13
    22b8:	ef 92       	push	r14
    22ba:	ff 92       	push	r15
    22bc:	0f 93       	push	r16
    22be:	1f 93       	push	r17
    22c0:	cf 93       	push	r28
    22c2:	df 93       	push	r29
    22c4:	cd b7       	in	r28, 0x3d	; 61
    22c6:	de b7       	in	r29, 0x3e	; 62
    22c8:	c0 50       	subi	r28, 0x00	; 0
    22ca:	d2 40       	sbci	r29, 0x02	; 2
    22cc:	0f b6       	in	r0, 0x3f	; 63
    22ce:	f8 94       	cli
    22d0:	de bf       	out	0x3e, r29	; 62
    22d2:	0f be       	out	0x3f, r0	; 63
    22d4:	cd bf       	out	0x3d, r28	; 61
    22d6:	4c 01       	movw	r8, r24
    22d8:	06 2f       	mov	r16, r22
    22da:	5a 01       	movw	r10, r20
	unsigned char tempList[512] = {0x00};
    22dc:	be 01       	movw	r22, r28
    22de:	6f 5f       	subi	r22, 0xFF	; 255
    22e0:	7f 4f       	sbci	r23, 0xFF	; 255
    22e2:	80 e0       	ldi	r24, 0x00	; 0
    22e4:	92 e0       	ldi	r25, 0x02	; 2
    22e6:	fb 01       	movw	r30, r22
    22e8:	9c 01       	movw	r18, r24
    22ea:	11 92       	st	Z+, r1
    22ec:	21 50       	subi	r18, 0x01	; 1
    22ee:	30 40       	sbci	r19, 0x00	; 0
    22f0:	e1 f7       	brne	.-8      	; 0x22ea <_ZN11UnitHandler10UpdateTimeEhPh+0x3e>
	getUnitList(tempList); 
    22f2:	c4 01       	movw	r24, r8
    22f4:	0e 94 2b 0c 	call	0x1856	; 0x1856 <_ZN11UnitHandler11getUnitListEPh>
	
	unsigned long unit_start_block = 0x00000000;
	unsigned char block_representation;
	
	// looping to find storage location
	for (int i = 0; i <= 511; i++) 
    22f8:	80 e0       	ldi	r24, 0x00	; 0
    22fa:	90 e0       	ldi	r25, 0x00	; 0
	{
		if (i % 2 == 0)
    22fc:	80 fd       	sbrc	r24, 0
    22fe:	20 c0       	rjmp	.+64     	; 0x2340 <_ZN11UnitHandler10UpdateTimeEhPh+0x94>

// =============================================================
// METHOD : UpdateTime()
// DESCR. : Sends updated timetable for one specified unit, on one specified day
// =============================================================
bool UnitHandler::UpdateTime(unsigned char unitID, unsigned char schedule[])
    2300:	e1 e0       	ldi	r30, 0x01	; 1
    2302:	f0 e0       	ldi	r31, 0x00	; 0
    2304:	ec 0f       	add	r30, r28
    2306:	fd 1f       	adc	r31, r29
    2308:	e8 0f       	add	r30, r24
    230a:	f9 1f       	adc	r31, r25
	// looping to find storage location
	for (int i = 0; i <= 511; i++) 
	{
		if (i % 2 == 0)
		{
			if (tempList[i] == unitID)
    230c:	20 81       	ld	r18, Z
    230e:	20 17       	cp	r18, r16
    2310:	b9 f4       	brne	.+46     	; 0x2340 <_ZN11UnitHandler10UpdateTimeEhPh+0x94>
			{
				// set j equal to the starting block representation for the specified unit.
				int j = i + 1;
				block_representation = tempList[j];  
    2312:	8c 0f       	add	r24, r28
    2314:	9d 1f       	adc	r25, r29
    2316:	fc 01       	movw	r30, r24
    2318:	12 81       	ldd	r17, Z+2	; 0x02
				
				// calculate start block
				int y = tempList[j] - 1;
    231a:	21 2f       	mov	r18, r17
    231c:	30 e0       	ldi	r19, 0x00	; 0
    231e:	21 50       	subi	r18, 0x01	; 1
    2320:	30 40       	sbci	r19, 0x00	; 0
				unit_start_block = (2 + (y * 7)); 
    2322:	c9 01       	movw	r24, r18
    2324:	88 0f       	add	r24, r24
    2326:	99 1f       	adc	r25, r25
    2328:	88 0f       	add	r24, r24
    232a:	99 1f       	adc	r25, r25
    232c:	88 0f       	add	r24, r24
    232e:	99 1f       	adc	r25, r25
    2330:	82 1b       	sub	r24, r18
    2332:	93 0b       	sbc	r25, r19
    2334:	02 96       	adiw	r24, 0x02	; 2
    2336:	aa 27       	eor	r26, r26
    2338:	97 fd       	sbrc	r25, 7
    233a:	a0 95       	com	r26
    233c:	ba 2f       	mov	r27, r26
    233e:	08 c0       	rjmp	.+16     	; 0x2350 <_ZN11UnitHandler10UpdateTimeEhPh+0xa4>
	
	unsigned long unit_start_block = 0x00000000;
	unsigned char block_representation;
	
	// looping to find storage location
	for (int i = 0; i <= 511; i++) 
    2340:	01 96       	adiw	r24, 0x01	; 1
    2342:	f2 e0       	ldi	r31, 0x02	; 2
    2344:	80 30       	cpi	r24, 0x00	; 0
    2346:	9f 07       	cpc	r25, r31
    2348:	c9 f6       	brne	.-78     	; 0x22fc <_ZN11UnitHandler10UpdateTimeEhPh+0x50>
    234a:	80 e0       	ldi	r24, 0x00	; 0
    234c:	90 e0       	ldi	r25, 0x00	; 0
    234e:	dc 01       	movw	r26, r24
			}
		}
	}
	
	// extract day from schedule array
	unsigned char day = schedule[3];
    2350:	f5 01       	movw	r30, r10
    2352:	c3 80       	ldd	r12, Z+3	; 0x03
	
	unsigned long daylocation = 0x00000000;
	
	// testing if day is within legal range
	if (day < 8 && day > 0) 
    2354:	2c 2d       	mov	r18, r12
    2356:	21 50       	subi	r18, 0x01	; 1
    2358:	27 30       	cpi	r18, 0x07	; 7
    235a:	e8 f4       	brcc	.+58     	; 0x2396 <_ZN11UnitHandler10UpdateTimeEhPh+0xea>
	{
		// calculate the block location of the block we use.
		daylocation = unit_start_block + (day - 1); 
    235c:	dd 24       	eor	r13, r13
    235e:	08 94       	sec
    2360:	c1 08       	sbc	r12, r1
    2362:	d1 08       	sbc	r13, r1
    2364:	ee 24       	eor	r14, r14
    2366:	d7 fc       	sbrc	r13, 7
    2368:	e0 94       	com	r14
    236a:	fe 2c       	mov	r15, r14
    236c:	c8 0e       	add	r12, r24
    236e:	d9 1e       	adc	r13, r25
    2370:	ea 1e       	adc	r14, r26
    2372:	fb 1e       	adc	r15, r27
		// if not within range of 1 to 7 return false
		return false;
	}
	
	// add correct starting block representation, to the new array.
	schedule[1] = block_representation;
    2374:	11 83       	std	Z+1, r17	; 0x01
    2376:	09 e0       	ldi	r16, 0x09	; 9
    2378:	10 e0       	ldi	r17, 0x00	; 0
	
	//Loop to give each write operation 9 tries to succeed.
	for (int i = 0; i < 9; i++) 
	{
		if (SD->writeBlock(daylocation, schedule))
    237a:	f4 01       	movw	r30, r8
    237c:	80 81       	ld	r24, Z
    237e:	91 81       	ldd	r25, Z+1	; 0x01
    2380:	b7 01       	movw	r22, r14
    2382:	a6 01       	movw	r20, r12
    2384:	95 01       	movw	r18, r10
    2386:	0e 94 80 0a 	call	0x1500	; 0x1500 <_ZN6sdCard10writeBlockEmPKh>
    238a:	88 23       	and	r24, r24
    238c:	31 f4       	brne	.+12     	; 0x239a <_ZN11UnitHandler10UpdateTimeEhPh+0xee>
    238e:	01 50       	subi	r16, 0x01	; 1
    2390:	10 40       	sbci	r17, 0x00	; 0
	
	// add correct starting block representation, to the new array.
	schedule[1] = block_representation;
	
	//Loop to give each write operation 9 tries to succeed.
	for (int i = 0; i < 9; i++) 
    2392:	99 f7       	brne	.-26     	; 0x237a <_ZN11UnitHandler10UpdateTimeEhPh+0xce>
    2394:	03 c0       	rjmp	.+6      	; 0x239c <_ZN11UnitHandler10UpdateTimeEhPh+0xf0>
		daylocation = unit_start_block + (day - 1); 
	}
	else
	{
		// if not within range of 1 to 7 return false
		return false;
    2396:	80 e0       	ldi	r24, 0x00	; 0
    2398:	01 c0       	rjmp	.+2      	; 0x239c <_ZN11UnitHandler10UpdateTimeEhPh+0xf0>
	for (int i = 0; i < 9; i++) 
	{
		if (SD->writeBlock(daylocation, schedule))
		{
			i = 10;		//If write attempt succeeds, leave loop.
			return true;
    239a:	81 e0       	ldi	r24, 0x01	; 1
		}
	}
	// write failed more than 9 times.
	return false; 
}
    239c:	c0 50       	subi	r28, 0x00	; 0
    239e:	de 4f       	sbci	r29, 0xFE	; 254
    23a0:	0f b6       	in	r0, 0x3f	; 63
    23a2:	f8 94       	cli
    23a4:	de bf       	out	0x3e, r29	; 62
    23a6:	0f be       	out	0x3f, r0	; 63
    23a8:	cd bf       	out	0x3d, r28	; 61
    23aa:	df 91       	pop	r29
    23ac:	cf 91       	pop	r28
    23ae:	1f 91       	pop	r17
    23b0:	0f 91       	pop	r16
    23b2:	ff 90       	pop	r15
    23b4:	ef 90       	pop	r14
    23b6:	df 90       	pop	r13
    23b8:	cf 90       	pop	r12
    23ba:	bf 90       	pop	r11
    23bc:	af 90       	pop	r10
    23be:	9f 90       	pop	r9
    23c0:	8f 90       	pop	r8
    23c2:	08 95       	ret

000023c4 <_ZN11UnitHandler12getTimeTableEhhPh>:
// =============================================================
// METHOD : getTimeTable()
// DESCR. : fills a 512 byte array with the data in the block for the requested day and unit.
// =============================================================
bool UnitHandler::getTimeTable(unsigned char day, unsigned char UnitID, unsigned char schedule[]) 
{
    23c4:	8f 92       	push	r8
    23c6:	9f 92       	push	r9
    23c8:	af 92       	push	r10
    23ca:	bf 92       	push	r11
    23cc:	cf 92       	push	r12
    23ce:	df 92       	push	r13
    23d0:	ef 92       	push	r14
    23d2:	ff 92       	push	r15
    23d4:	0f 93       	push	r16
    23d6:	1f 93       	push	r17
    23d8:	cf 93       	push	r28
    23da:	df 93       	push	r29
    23dc:	cd b7       	in	r28, 0x3d	; 61
    23de:	de b7       	in	r29, 0x3e	; 62
    23e0:	c0 50       	subi	r28, 0x00	; 0
    23e2:	d2 40       	sbci	r29, 0x02	; 2
    23e4:	0f b6       	in	r0, 0x3f	; 63
    23e6:	f8 94       	cli
    23e8:	de bf       	out	0x3e, r29	; 62
    23ea:	0f be       	out	0x3f, r0	; 63
    23ec:	cd bf       	out	0x3d, r28	; 61
    23ee:	5c 01       	movw	r10, r24
    23f0:	c6 2e       	mov	r12, r22
    23f2:	04 2f       	mov	r16, r20
    23f4:	49 01       	movw	r8, r18
	unsigned char tempList[512] = {0x00};
    23f6:	be 01       	movw	r22, r28
    23f8:	6f 5f       	subi	r22, 0xFF	; 255
    23fa:	7f 4f       	sbci	r23, 0xFF	; 255
    23fc:	80 e0       	ldi	r24, 0x00	; 0
    23fe:	92 e0       	ldi	r25, 0x02	; 2
    2400:	fb 01       	movw	r30, r22
    2402:	9c 01       	movw	r18, r24
    2404:	11 92       	st	Z+, r1
    2406:	21 50       	subi	r18, 0x01	; 1
    2408:	30 40       	sbci	r19, 0x00	; 0
    240a:	e1 f7       	brne	.-8      	; 0x2404 <_ZN11UnitHandler12getTimeTableEhhPh+0x40>
	getUnitList(tempList);
    240c:	c5 01       	movw	r24, r10
    240e:	0e 94 2b 0c 	call	0x1856	; 0x1856 <_ZN11UnitHandler11getUnitListEPh>
	
	unsigned long unit_start_block = 0x00000000; // address storage
	
	// loop to find the value used for calculating the storage adress;
	for (int i = 0; i < 512; i++) 
    2412:	80 e0       	ldi	r24, 0x00	; 0
    2414:	90 e0       	ldi	r25, 0x00	; 0
	{
		if (i % 2 == 0)
    2416:	80 fd       	sbrc	r24, 0
    2418:	1f c0       	rjmp	.+62     	; 0x2458 <_ZN11UnitHandler12getTimeTableEhhPh+0x94>

// =============================================================
// METHOD : getTimeTable()
// DESCR. : fills a 512 byte array with the data in the block for the requested day and unit.
// =============================================================
bool UnitHandler::getTimeTable(unsigned char day, unsigned char UnitID, unsigned char schedule[]) 
    241a:	e1 e0       	ldi	r30, 0x01	; 1
    241c:	f0 e0       	ldi	r31, 0x00	; 0
    241e:	ec 0f       	add	r30, r28
    2420:	fd 1f       	adc	r31, r29
    2422:	e8 0f       	add	r30, r24
    2424:	f9 1f       	adc	r31, r25
	// loop to find the value used for calculating the storage adress;
	for (int i = 0; i < 512; i++) 
	{
		if (i % 2 == 0)
		{
			if (tempList[i] == UnitID)
    2426:	20 81       	ld	r18, Z
    2428:	20 17       	cp	r18, r16
    242a:	b1 f4       	brne	.+44     	; 0x2458 <_ZN11UnitHandler12getTimeTableEhhPh+0x94>
			{
				int j = i + 1;
				int y = tempList[j] - 1;
    242c:	8c 0f       	add	r24, r28
    242e:	9d 1f       	adc	r25, r29
    2430:	fc 01       	movw	r30, r24
    2432:	22 81       	ldd	r18, Z+2	; 0x02
    2434:	30 e0       	ldi	r19, 0x00	; 0
    2436:	21 50       	subi	r18, 0x01	; 1
    2438:	30 40       	sbci	r19, 0x00	; 0
				unit_start_block = (2 + (y * 7));
    243a:	c9 01       	movw	r24, r18
    243c:	88 0f       	add	r24, r24
    243e:	99 1f       	adc	r25, r25
    2440:	88 0f       	add	r24, r24
    2442:	99 1f       	adc	r25, r25
    2444:	88 0f       	add	r24, r24
    2446:	99 1f       	adc	r25, r25
    2448:	82 1b       	sub	r24, r18
    244a:	93 0b       	sbc	r25, r19
    244c:	02 96       	adiw	r24, 0x02	; 2
    244e:	aa 27       	eor	r26, r26
    2450:	97 fd       	sbrc	r25, 7
    2452:	a0 95       	com	r26
    2454:	ba 2f       	mov	r27, r26
    2456:	08 c0       	rjmp	.+16     	; 0x2468 <_ZN11UnitHandler12getTimeTableEhhPh+0xa4>
	getUnitList(tempList);
	
	unsigned long unit_start_block = 0x00000000; // address storage
	
	// loop to find the value used for calculating the storage adress;
	for (int i = 0; i < 512; i++) 
    2458:	01 96       	adiw	r24, 0x01	; 1
    245a:	f2 e0       	ldi	r31, 0x02	; 2
    245c:	80 30       	cpi	r24, 0x00	; 0
    245e:	9f 07       	cpc	r25, r31
    2460:	d1 f6       	brne	.-76     	; 0x2416 <_ZN11UnitHandler12getTimeTableEhhPh+0x52>
    2462:	80 e0       	ldi	r24, 0x00	; 0
    2464:	90 e0       	ldi	r25, 0x00	; 0
    2466:	dc 01       	movw	r26, r24
			}
		}
	}
	
	unsigned long daylocation = 0x00000000;
	if (day < 8 && day > 0)
    2468:	2c 2d       	mov	r18, r12
    246a:	21 50       	subi	r18, 0x01	; 1
    246c:	27 30       	cpi	r18, 0x07	; 7
    246e:	e0 f4       	brcc	.+56     	; 0x24a8 <_ZN11UnitHandler12getTimeTableEhhPh+0xe4>
	{
		daylocation = unit_start_block + (day - 1);
    2470:	dd 24       	eor	r13, r13
    2472:	08 94       	sec
    2474:	c1 08       	sbc	r12, r1
    2476:	d1 08       	sbc	r13, r1
    2478:	ee 24       	eor	r14, r14
    247a:	d7 fc       	sbrc	r13, 7
    247c:	e0 94       	com	r14
    247e:	fe 2c       	mov	r15, r14
    2480:	c8 0e       	add	r12, r24
    2482:	d9 1e       	adc	r13, r25
    2484:	ea 1e       	adc	r14, r26
    2486:	fb 1e       	adc	r15, r27
    2488:	09 e0       	ldi	r16, 0x09	; 9
    248a:	10 e0       	ldi	r17, 0x00	; 0
	{
		return false;
	}
	for (int i = 0; i < 9; i++)
	{
		if (SD->readBlock(daylocation, schedule))
    248c:	f5 01       	movw	r30, r10
    248e:	80 81       	ld	r24, Z
    2490:	91 81       	ldd	r25, Z+1	; 0x01
    2492:	b7 01       	movw	r22, r14
    2494:	a6 01       	movw	r20, r12
    2496:	94 01       	movw	r18, r8
    2498:	0e 94 08 0a 	call	0x1410	; 0x1410 <_ZN6sdCard9readBlockEmPh>
    249c:	88 23       	and	r24, r24
    249e:	31 f4       	brne	.+12     	; 0x24ac <_ZN11UnitHandler12getTimeTableEhhPh+0xe8>
    24a0:	01 50       	subi	r16, 0x01	; 1
    24a2:	10 40       	sbci	r17, 0x00	; 0
	}
	else
	{
		return false;
	}
	for (int i = 0; i < 9; i++)
    24a4:	99 f7       	brne	.-26     	; 0x248c <_ZN11UnitHandler12getTimeTableEhhPh+0xc8>
    24a6:	03 c0       	rjmp	.+6      	; 0x24ae <_ZN11UnitHandler12getTimeTableEhhPh+0xea>
	{
		daylocation = unit_start_block + (day - 1);
	}
	else
	{
		return false;
    24a8:	80 e0       	ldi	r24, 0x00	; 0
    24aa:	01 c0       	rjmp	.+2      	; 0x24ae <_ZN11UnitHandler12getTimeTableEhhPh+0xea>
	for (int i = 0; i < 9; i++)
	{
		if (SD->readBlock(daylocation, schedule))
		{
			i = 10;
			return true;
    24ac:	81 e0       	ldi	r24, 0x01	; 1
		}
	}
	return false;
}
    24ae:	c0 50       	subi	r28, 0x00	; 0
    24b0:	de 4f       	sbci	r29, 0xFE	; 254
    24b2:	0f b6       	in	r0, 0x3f	; 63
    24b4:	f8 94       	cli
    24b6:	de bf       	out	0x3e, r29	; 62
    24b8:	0f be       	out	0x3f, r0	; 63
    24ba:	cd bf       	out	0x3d, r28	; 61
    24bc:	df 91       	pop	r29
    24be:	cf 91       	pop	r28
    24c0:	1f 91       	pop	r17
    24c2:	0f 91       	pop	r16
    24c4:	ff 90       	pop	r15
    24c6:	ef 90       	pop	r14
    24c8:	df 90       	pop	r13
    24ca:	cf 90       	pop	r12
    24cc:	bf 90       	pop	r11
    24ce:	af 90       	pop	r10
    24d0:	9f 90       	pop	r9
    24d2:	8f 90       	pop	r8
    24d4:	08 95       	ret

000024d6 <_ZN11UnitHandler8editUnitEhhh>:
// =============================================================
// METHOD : editUnit()
// DESCR. : fills a 512 byte array with the data in the block for the requested day and unit.
// =============================================================
bool UnitHandler::editUnit(unsigned char previusUnitID, unsigned char newUnitID, unsigned char roomID)
{
    24d6:	5f 92       	push	r5
    24d8:	6f 92       	push	r6
    24da:	7f 92       	push	r7
    24dc:	8f 92       	push	r8
    24de:	9f 92       	push	r9
    24e0:	af 92       	push	r10
    24e2:	bf 92       	push	r11
    24e4:	cf 92       	push	r12
    24e6:	df 92       	push	r13
    24e8:	ef 92       	push	r14
    24ea:	ff 92       	push	r15
    24ec:	0f 93       	push	r16
    24ee:	1f 93       	push	r17
    24f0:	cf 93       	push	r28
    24f2:	df 93       	push	r29
    24f4:	cd b7       	in	r28, 0x3d	; 61
    24f6:	de b7       	in	r29, 0x3e	; 62
    24f8:	c0 50       	subi	r28, 0x00	; 0
    24fa:	d4 40       	sbci	r29, 0x04	; 4
    24fc:	0f b6       	in	r0, 0x3f	; 63
    24fe:	f8 94       	cli
    2500:	de bf       	out	0x3e, r29	; 62
    2502:	0f be       	out	0x3f, r0	; 63
    2504:	cd bf       	out	0x3d, r28	; 61
    2506:	3c 01       	movw	r6, r24
    2508:	16 2f       	mov	r17, r22
    250a:	54 2e       	mov	r5, r20
    250c:	02 2f       	mov	r16, r18
	unsigned char data2[512];
	
	unsigned char point = 0x01;
	
	
	getUnitList(data);
    250e:	be 01       	movw	r22, r28
    2510:	6f 5f       	subi	r22, 0xFF	; 255
    2512:	7d 4f       	sbci	r23, 0xFD	; 253
    2514:	0e 94 2b 0c 	call	0x1856	; 0x1856 <_ZN11UnitHandler11getUnitListEPh>
	
	//Find the starting point representation of the unit we want too update.
	for (int i = 0; i <= 511; i++)
    2518:	80 e0       	ldi	r24, 0x00	; 0
    251a:	90 e0       	ldi	r25, 0x00	; 0
	{
		if (i % 2 == 0)
    251c:	80 fd       	sbrc	r24, 0
    251e:	1d c0       	rjmp	.+58     	; 0x255a <_ZN11UnitHandler8editUnitEhhh+0x84>

// =============================================================
// METHOD : editUnit()
// DESCR. : fills a 512 byte array with the data in the block for the requested day and unit.
// =============================================================
bool UnitHandler::editUnit(unsigned char previusUnitID, unsigned char newUnitID, unsigned char roomID)
    2520:	e1 e0       	ldi	r30, 0x01	; 1
    2522:	f2 e0       	ldi	r31, 0x02	; 2
    2524:	ec 0f       	add	r30, r28
    2526:	fd 1f       	adc	r31, r29
    2528:	e8 0f       	add	r30, r24
    252a:	f9 1f       	adc	r31, r25
	//Find the starting point representation of the unit we want too update.
	for (int i = 0; i <= 511; i++)
	{
		if (i % 2 == 0)
		{
			if (data[i] == previusUnitID)
    252c:	20 81       	ld	r18, Z
    252e:	21 17       	cp	r18, r17
    2530:	a1 f4       	brne	.+40     	; 0x255a <_ZN11UnitHandler8editUnitEhhh+0x84>
			{
				point = data[i + 1];
    2532:	e1 e0       	ldi	r30, 0x01	; 1
    2534:	f2 e0       	ldi	r31, 0x02	; 2
    2536:	ec 0f       	add	r30, r28
    2538:	fd 1f       	adc	r31, r29
    253a:	e8 0f       	add	r30, r24
    253c:	f9 1f       	adc	r31, r25
    253e:	11 81       	ldd	r17, Z+1	; 0x01
				data[i] = newUnitID;
    2540:	50 82       	st	Z, r5
				SD->writeBlock(0x00, data);
    2542:	f3 01       	movw	r30, r6
    2544:	80 81       	ld	r24, Z
    2546:	91 81       	ldd	r25, Z+1	; 0x01
    2548:	40 e0       	ldi	r20, 0x00	; 0
    254a:	50 e0       	ldi	r21, 0x00	; 0
    254c:	ba 01       	movw	r22, r20
    254e:	9e 01       	movw	r18, r28
    2550:	2f 5f       	subi	r18, 0xFF	; 255
    2552:	3d 4f       	sbci	r19, 0xFD	; 253
    2554:	0e 94 80 0a 	call	0x1500	; 0x1500 <_ZN6sdCard10writeBlockEmPKh>
    2558:	06 c0       	rjmp	.+12     	; 0x2566 <_ZN11UnitHandler8editUnitEhhh+0x90>
	
	
	getUnitList(data);
	
	//Find the starting point representation of the unit we want too update.
	for (int i = 0; i <= 511; i++)
    255a:	01 96       	adiw	r24, 0x01	; 1
    255c:	f2 e0       	ldi	r31, 0x02	; 2
    255e:	80 30       	cpi	r24, 0x00	; 0
    2560:	9f 07       	cpc	r25, r31
    2562:	e1 f6       	brne	.-72     	; 0x251c <_ZN11UnitHandler8editUnitEhhh+0x46>
    2564:	11 e0       	ldi	r17, 0x01	; 1
		}
	}
	
	
	
	unsigned long address = (2 + ((point - 1) * 7));
    2566:	81 2f       	mov	r24, r17
    2568:	90 e0       	ldi	r25, 0x00	; 0
    256a:	01 97       	sbiw	r24, 0x01	; 1
    256c:	4c 01       	movw	r8, r24
    256e:	88 0c       	add	r8, r8
    2570:	99 1c       	adc	r9, r9
    2572:	88 0c       	add	r8, r8
    2574:	99 1c       	adc	r9, r9
    2576:	88 0c       	add	r8, r8
    2578:	99 1c       	adc	r9, r9
    257a:	94 01       	movw	r18, r8
    257c:	28 1b       	sub	r18, r24
    257e:	39 0b       	sbc	r19, r25
    2580:	c9 01       	movw	r24, r18
    2582:	02 96       	adiw	r24, 0x02	; 2
    2584:	4c 01       	movw	r8, r24
    2586:	aa 24       	eor	r10, r10
    2588:	97 fc       	sbrc	r9, 7
    258a:	a0 94       	com	r10
    258c:	ba 2c       	mov	r11, r10
	
	SD->readBlock(address, data2);
    258e:	f3 01       	movw	r30, r6
    2590:	80 81       	ld	r24, Z
    2592:	91 81       	ldd	r25, Z+1	; 0x01
    2594:	b5 01       	movw	r22, r10
    2596:	a4 01       	movw	r20, r8
    2598:	9e 01       	movw	r18, r28
    259a:	2f 5f       	subi	r18, 0xFF	; 255
    259c:	3f 4f       	sbci	r19, 0xFF	; 255
    259e:	0e 94 08 0a 	call	0x1410	; 0x1410 <_ZN6sdCard9readBlockEmPh>
	unsigned char oldRoom = data2[2];
    25a2:	1b 81       	ldd	r17, Y+3	; 0x03
	
	getRoomList(data);
    25a4:	c3 01       	movw	r24, r6
    25a6:	be 01       	movw	r22, r28
    25a8:	6f 5f       	subi	r22, 0xFF	; 255
    25aa:	7d 4f       	sbci	r23, 0xFD	; 253
    25ac:	0e 94 8f 0d 	call	0x1b1e	; 0x1b1e <_ZN11UnitHandler11getRoomListEPh>
	
	for (int i = 0; i <= 511; i++)
    25b0:	80 e0       	ldi	r24, 0x00	; 0
    25b2:	90 e0       	ldi	r25, 0x00	; 0
	{
		if (i % 2 == 0)
    25b4:	80 fd       	sbrc	r24, 0
    25b6:	16 c0       	rjmp	.+44     	; 0x25e4 <_ZN11UnitHandler8editUnitEhhh+0x10e>

// =============================================================
// METHOD : editUnit()
// DESCR. : fills a 512 byte array with the data in the block for the requested day and unit.
// =============================================================
bool UnitHandler::editUnit(unsigned char previusUnitID, unsigned char newUnitID, unsigned char roomID)
    25b8:	e1 e0       	ldi	r30, 0x01	; 1
    25ba:	f2 e0       	ldi	r31, 0x02	; 2
    25bc:	ec 0f       	add	r30, r28
    25be:	fd 1f       	adc	r31, r29
    25c0:	e8 0f       	add	r30, r24
    25c2:	f9 1f       	adc	r31, r25
	
	for (int i = 0; i <= 511; i++)
	{
		if (i % 2 == 0)
		{
			if (data[i] == oldRoom)
    25c4:	20 81       	ld	r18, Z
    25c6:	21 17       	cp	r18, r17
    25c8:	69 f4       	brne	.+26     	; 0x25e4 <_ZN11UnitHandler8editUnitEhhh+0x10e>
			{
				int j = i + 1;
    25ca:	01 96       	adiw	r24, 0x01	; 1
				
					if (data[j] != 0x00)
    25cc:	e1 e0       	ldi	r30, 0x01	; 1
    25ce:	f2 e0       	ldi	r31, 0x02	; 2
    25d0:	ec 0f       	add	r30, r28
    25d2:	fd 1f       	adc	r31, r29
    25d4:	e8 0f       	add	r30, r24
    25d6:	f9 1f       	adc	r31, r25
    25d8:	20 81       	ld	r18, Z
    25da:	22 23       	and	r18, r18
    25dc:	41 f0       	breq	.+16     	; 0x25ee <_ZN11UnitHandler8editUnitEhhh+0x118>
					{
						data[j]--;
    25de:	21 50       	subi	r18, 0x01	; 1
    25e0:	20 83       	st	Z, r18
    25e2:	05 c0       	rjmp	.+10     	; 0x25ee <_ZN11UnitHandler8editUnitEhhh+0x118>
	SD->readBlock(address, data2);
	unsigned char oldRoom = data2[2];
	
	getRoomList(data);
	
	for (int i = 0; i <= 511; i++)
    25e4:	01 96       	adiw	r24, 0x01	; 1
    25e6:	f2 e0       	ldi	r31, 0x02	; 2
    25e8:	80 30       	cpi	r24, 0x00	; 0
    25ea:	9f 07       	cpc	r25, r31
    25ec:	19 f7       	brne	.-58     	; 0x25b4 <_ZN11UnitHandler8editUnitEhhh+0xde>
    25ee:	80 e0       	ldi	r24, 0x00	; 0
    25f0:	90 e0       	ldi	r25, 0x00	; 0
	}
	
	bool roomExists = false;
	for (int i = 0; i<= 511; i++) // looping to see if new room allready exists
	{
		if(i % 2 == 0)
    25f2:	80 fd       	sbrc	r24, 0
    25f4:	20 c0       	rjmp	.+64     	; 0x2636 <_ZN11UnitHandler8editUnitEhhh+0x160>

// =============================================================
// METHOD : editUnit()
// DESCR. : fills a 512 byte array with the data in the block for the requested day and unit.
// =============================================================
bool UnitHandler::editUnit(unsigned char previusUnitID, unsigned char newUnitID, unsigned char roomID)
    25f6:	e1 e0       	ldi	r30, 0x01	; 1
    25f8:	f2 e0       	ldi	r31, 0x02	; 2
    25fa:	ec 0f       	add	r30, r28
    25fc:	fd 1f       	adc	r31, r29
    25fe:	e8 0f       	add	r30, r24
    2600:	f9 1f       	adc	r31, r25
	bool roomExists = false;
	for (int i = 0; i<= 511; i++) // looping to see if new room allready exists
	{
		if(i % 2 == 0)
		{
			if(data[i] == roomID)
    2602:	20 81       	ld	r18, Z
    2604:	20 17       	cp	r18, r16
    2606:	b9 f4       	brne	.+46     	; 0x2636 <_ZN11UnitHandler8editUnitEhhh+0x160>
			{
				data[i + 1] = data[i + 1] + 1; // adds 1 to the unit count in new room
    2608:	01 96       	adiw	r24, 0x01	; 1
    260a:	e1 e0       	ldi	r30, 0x01	; 1
    260c:	f2 e0       	ldi	r31, 0x02	; 2
    260e:	ec 0f       	add	r30, r28
    2610:	fd 1f       	adc	r31, r29
    2612:	e8 0f       	add	r30, r24
    2614:	f9 1f       	adc	r31, r25
    2616:	80 81       	ld	r24, Z
    2618:	8f 5f       	subi	r24, 0xFF	; 255
    261a:	80 83       	st	Z, r24
				i = 512; // exit loop
			}
		}
	}
	
	SD->writeBlock(0x01, data); 
    261c:	f3 01       	movw	r30, r6
    261e:	80 81       	ld	r24, Z
    2620:	91 81       	ldd	r25, Z+1	; 0x01
    2622:	41 e0       	ldi	r20, 0x01	; 1
    2624:	50 e0       	ldi	r21, 0x00	; 0
    2626:	60 e0       	ldi	r22, 0x00	; 0
    2628:	70 e0       	ldi	r23, 0x00	; 0
    262a:	9e 01       	movw	r18, r28
    262c:	2f 5f       	subi	r18, 0xFF	; 255
    262e:	3d 4f       	sbci	r19, 0xFD	; 253
    2630:	0e 94 80 0a 	call	0x1500	; 0x1500 <_ZN6sdCard10writeBlockEmPKh>
    2634:	19 c0       	rjmp	.+50     	; 0x2668 <_ZN11UnitHandler8editUnitEhhh+0x192>
			}
		}
	}
	
	bool roomExists = false;
	for (int i = 0; i<= 511; i++) // looping to see if new room allready exists
    2636:	01 96       	adiw	r24, 0x01	; 1
    2638:	f2 e0       	ldi	r31, 0x02	; 2
    263a:	80 30       	cpi	r24, 0x00	; 0
    263c:	9f 07       	cpc	r25, r31
    263e:	c9 f6       	brne	.-78     	; 0x25f2 <_ZN11UnitHandler8editUnitEhhh+0x11c>
				i = 512; // exit loop
			}
		}
	}
	
	SD->writeBlock(0x01, data); 
    2640:	f3 01       	movw	r30, r6
    2642:	80 81       	ld	r24, Z
    2644:	91 81       	ldd	r25, Z+1	; 0x01
    2646:	41 e0       	ldi	r20, 0x01	; 1
    2648:	50 e0       	ldi	r21, 0x00	; 0
    264a:	60 e0       	ldi	r22, 0x00	; 0
    264c:	70 e0       	ldi	r23, 0x00	; 0
    264e:	9e 01       	movw	r18, r28
    2650:	2f 5f       	subi	r18, 0xFF	; 255
    2652:	3d 4f       	sbci	r19, 0xFD	; 253
    2654:	0e 94 80 0a 	call	0x1500	; 0x1500 <_ZN6sdCard10writeBlockEmPKh>
	
	// create room and add unit if room does not exits
	if(roomExists == false)
	{ 
		createNewRoom(roomID);
    2658:	c3 01       	movw	r24, r6
    265a:	60 2f       	mov	r22, r16
    265c:	0e 94 69 0e 	call	0x1cd2	; 0x1cd2 <_ZN11UnitHandler13createNewRoomEh>
		addUnitToRoom(roomID);
    2660:	c3 01       	movw	r24, r6
    2662:	60 2f       	mov	r22, r16
    2664:	0e 94 c4 0e 	call	0x1d88	; 0x1d88 <_ZN11UnitHandler13addUnitToRoomEh>

// =============================================================
// METHOD : editUnit()
// DESCR. : fills a 512 byte array with the data in the block for the requested day and unit.
// =============================================================
bool UnitHandler::editUnit(unsigned char previusUnitID, unsigned char newUnitID, unsigned char roomID)
    2668:	0f 2e       	mov	r0, r31
    266a:	f7 e0       	ldi	r31, 0x07	; 7
    266c:	cf 2e       	mov	r12, r31
    266e:	f0 e0       	ldi	r31, 0x00	; 0
    2670:	df 2e       	mov	r13, r31
    2672:	f0 e0       	ldi	r31, 0x00	; 0
    2674:	ef 2e       	mov	r14, r31
    2676:	f0 e0       	ldi	r31, 0x00	; 0
    2678:	ff 2e       	mov	r15, r31
    267a:	f0 2d       	mov	r31, r0
    267c:	c8 0c       	add	r12, r8
    267e:	d9 1c       	adc	r13, r9
    2680:	ea 1c       	adc	r14, r10
    2682:	fb 1c       	adc	r15, r11
	}
	

	for (int i = 0; i <= 6; i++)
	{
		SD->readBlock(address, data2);
    2684:	f3 01       	movw	r30, r6
    2686:	80 81       	ld	r24, Z
    2688:	91 81       	ldd	r25, Z+1	; 0x01
    268a:	b5 01       	movw	r22, r10
    268c:	a4 01       	movw	r20, r8
    268e:	9e 01       	movw	r18, r28
    2690:	2f 5f       	subi	r18, 0xFF	; 255
    2692:	3f 4f       	sbci	r19, 0xFF	; 255
    2694:	0e 94 08 0a 	call	0x1410	; 0x1410 <_ZN6sdCard9readBlockEmPh>
		data2[0] = newUnitID;
    2698:	59 82       	std	Y+1, r5	; 0x01
		data2[2] = roomID;
    269a:	0b 83       	std	Y+3, r16	; 0x03
		SD->writeBlock(address, data2);
    269c:	f3 01       	movw	r30, r6
    269e:	80 81       	ld	r24, Z
    26a0:	91 81       	ldd	r25, Z+1	; 0x01
    26a2:	b5 01       	movw	r22, r10
    26a4:	a4 01       	movw	r20, r8
    26a6:	9e 01       	movw	r18, r28
    26a8:	2f 5f       	subi	r18, 0xFF	; 255
    26aa:	3f 4f       	sbci	r19, 0xFF	; 255
    26ac:	0e 94 80 0a 	call	0x1500	; 0x1500 <_ZN6sdCard10writeBlockEmPKh>
		address++;
    26b0:	08 94       	sec
    26b2:	81 1c       	adc	r8, r1
    26b4:	91 1c       	adc	r9, r1
    26b6:	a1 1c       	adc	r10, r1
    26b8:	b1 1c       	adc	r11, r1
		createNewRoom(roomID);
		addUnitToRoom(roomID);
	}
	

	for (int i = 0; i <= 6; i++)
    26ba:	8c 14       	cp	r8, r12
    26bc:	9d 04       	cpc	r9, r13
    26be:	ae 04       	cpc	r10, r14
    26c0:	bf 04       	cpc	r11, r15
    26c2:	01 f7       	brne	.-64     	; 0x2684 <_ZN11UnitHandler8editUnitEhhh+0x1ae>
		data2[2] = roomID;
		SD->writeBlock(address, data2);
		address++;
	}

}
    26c4:	c0 50       	subi	r28, 0x00	; 0
    26c6:	dc 4f       	sbci	r29, 0xFC	; 252
    26c8:	0f b6       	in	r0, 0x3f	; 63
    26ca:	f8 94       	cli
    26cc:	de bf       	out	0x3e, r29	; 62
    26ce:	0f be       	out	0x3f, r0	; 63
    26d0:	cd bf       	out	0x3d, r28	; 61
    26d2:	df 91       	pop	r29
    26d4:	cf 91       	pop	r28
    26d6:	1f 91       	pop	r17
    26d8:	0f 91       	pop	r16
    26da:	ff 90       	pop	r15
    26dc:	ef 90       	pop	r14
    26de:	df 90       	pop	r13
    26e0:	cf 90       	pop	r12
    26e2:	bf 90       	pop	r11
    26e4:	af 90       	pop	r10
    26e6:	9f 90       	pop	r9
    26e8:	8f 90       	pop	r8
    26ea:	7f 90       	pop	r7
    26ec:	6f 90       	pop	r6
    26ee:	5f 90       	pop	r5
    26f0:	08 95       	ret

000026f2 <_ZN11UnitHandler12getUnitCountEv>:
// DESCR. : returns numbers of units.
// =============================================================
unsigned char UnitHandler::getUnitCount()
{
	return numberOfUnits;
    26f2:	fc 01       	movw	r30, r24
    26f4:	82 81       	ldd	r24, Z+2	; 0x02
    26f6:	08 95       	ret

000026f8 <_ZN3X10C1Ehh>:

//=============================================================
// METHOD :
// DESCR. :
//=============================================================
X10::X10(unsigned char houseCode, unsigned char adress) : modtager_(houseCode, adress)
    26f8:	1f 93       	push	r17
    26fa:	cf 93       	push	r28
    26fc:	df 93       	push	r29
    26fe:	ec 01       	movw	r28, r24
    2700:	16 2f       	mov	r17, r22
    2702:	02 96       	adiw	r24, 0x02	; 2
    2704:	0e 94 1b 15 	call	0x2a36	; 0x2a36 <_ZN12X10_modtagerC1Ehh>
    2708:	ce 01       	movw	r24, r28
    270a:	42 96       	adiw	r24, 0x12	; 18
    270c:	0e 94 d1 16 	call	0x2da2	; 0x2da2 <_ZN10X10_senderC1Ev>
{
	houseCode_ = houseCode;
    2710:	18 83       	st	Y, r17
	unitStatus_ = false;
    2712:	19 82       	std	Y+1, r1	; 0x01
	//timer
	TCNT4 = 34286;
    2714:	8e ee       	ldi	r24, 0xEE	; 238
    2716:	95 e8       	ldi	r25, 0x85	; 133
    2718:	90 93 a5 00 	sts	0x00A5, r25
    271c:	80 93 a4 00 	sts	0x00A4, r24
	
	
}
    2720:	df 91       	pop	r29
    2722:	cf 91       	pop	r28
    2724:	1f 91       	pop	r17
    2726:	08 95       	ret

00002728 <_ZN3X1013getUnitStatusEhRb>:
//=============================================================
// METHOD :
// DESCR. :
//=============================================================
bool X10::getUnitStatus(unsigned char unitID, bool& status)
{
    2728:	cf 92       	push	r12
    272a:	df 92       	push	r13
    272c:	ef 92       	push	r14
    272e:	ff 92       	push	r15
    2730:	0f 93       	push	r16
    2732:	1f 93       	push	r17
    2734:	cf 93       	push	r28
    2736:	df 93       	push	r29
    2738:	00 d0       	rcall	.+0      	; 0x273a <_ZN3X1013getUnitStatusEhRb+0x12>
    273a:	cd b7       	in	r28, 0x3d	; 61
    273c:	de b7       	in	r29, 0x3e	; 62
    273e:	7c 01       	movw	r14, r24
    2740:	26 2f       	mov	r18, r22
    2742:	6a 01       	movw	r12, r20
	sender_.sendCommand(houseCode_, unitID, 0b000);
    2744:	42 96       	adiw	r24, 0x12	; 18
    2746:	f7 01       	movw	r30, r14
    2748:	60 81       	ld	r22, Z
    274a:	42 2f       	mov	r20, r18
    274c:	20 e0       	ldi	r18, 0x00	; 0
    274e:	00 e0       	ldi	r16, 0x00	; 0
    2750:	0e 94 87 17 	call	0x2f0e	; 0x2f0e <_ZN10X10_sender11sendCommandEhhhh>
	
	TCCR4B |= (1 << CS42) | (1 << CS40); //start timer
    2754:	e1 ea       	ldi	r30, 0xA1	; 161
    2756:	f0 e0       	ldi	r31, 0x00	; 0
    2758:	80 81       	ld	r24, Z
    275a:	85 60       	ori	r24, 0x05	; 5
    275c:	80 83       	st	Z, r24
	
	while(modtager_.isDataReady() != false)
    275e:	87 01       	movw	r16, r14
    2760:	0e 5f       	subi	r16, 0xFE	; 254
    2762:	1f 4f       	sbci	r17, 0xFF	; 255
    2764:	10 c0       	rjmp	.+32     	; 0x2786 <_ZN3X1013getUnitStatusEhRb+0x5e>
	{
		if(TIFR4 & (1 << TOV4))
    2766:	c8 9b       	sbis	0x19, 0	; 25
    2768:	0e c0       	rjmp	.+28     	; 0x2786 <_ZN3X1013getUnitStatusEhRb+0x5e>
		{
			TIFR4 |= (1 << TOV4); //stop timer
    276a:	c8 9a       	sbi	0x19, 0	; 25
			TCCR4B &= ~((1 << CS42) | (1 << CS40));
    276c:	e1 ea       	ldi	r30, 0xA1	; 161
    276e:	f0 e0       	ldi	r31, 0x00	; 0
    2770:	80 81       	ld	r24, Z
    2772:	8a 7f       	andi	r24, 0xFA	; 250
    2774:	80 83       	st	Z, r24
			TCNT4 = 34286;
    2776:	8e ee       	ldi	r24, 0xEE	; 238
    2778:	95 e8       	ldi	r25, 0x85	; 133
    277a:	90 93 a5 00 	sts	0x00A5, r25
    277e:	80 93 a4 00 	sts	0x00A4, r24
			return false;
    2782:	80 e0       	ldi	r24, 0x00	; 0
    2784:	34 c0       	rjmp	.+104    	; 0x27ee <_ZN3X1013getUnitStatusEhRb+0xc6>
{
	sender_.sendCommand(houseCode_, unitID, 0b000);
	
	TCCR4B |= (1 << CS42) | (1 << CS40); //start timer
	
	while(modtager_.isDataReady() != false)
    2786:	c8 01       	movw	r24, r16
    2788:	0e 94 73 16 	call	0x2ce6	; 0x2ce6 <_ZN12X10_modtager11isDataReadyEv>
    278c:	88 23       	and	r24, r24
    278e:	59 f7       	brne	.-42     	; 0x2766 <_ZN3X1013getUnitStatusEhRb+0x3e>
			TCCR4B &= ~((1 << CS42) | (1 << CS40));
			TCNT4 = 34286;
			return false;
		}
	}
	TCCR4B &= ~((1 << CS42) | (1 << CS40)); //stop timer
    2790:	e1 ea       	ldi	r30, 0xA1	; 161
    2792:	f0 e0       	ldi	r31, 0x00	; 0
    2794:	80 81       	ld	r24, Z
    2796:	8a 7f       	andi	r24, 0xFA	; 250
    2798:	80 83       	st	Z, r24
	TCNT4 = 34286;
    279a:	8e ee       	ldi	r24, 0xEE	; 238
    279c:	95 e8       	ldi	r25, 0x85	; 133
    279e:	90 93 a5 00 	sts	0x00A5, r25
    27a2:	80 93 a4 00 	sts	0x00A4, r24
	
	unsigned char type, data;
	bool vali;
	modtager_.fetchData(type, data, vali);
    27a6:	80 2f       	mov	r24, r16
    27a8:	91 2f       	mov	r25, r17
    27aa:	be 01       	movw	r22, r28
    27ac:	6d 5f       	subi	r22, 0xFD	; 253
    27ae:	7f 4f       	sbci	r23, 0xFF	; 255
    27b0:	ae 01       	movw	r20, r28
    27b2:	4e 5f       	subi	r20, 0xFE	; 254
    27b4:	5f 4f       	sbci	r21, 0xFF	; 255
    27b6:	9e 01       	movw	r18, r28
    27b8:	2f 5f       	subi	r18, 0xFF	; 255
    27ba:	3f 4f       	sbci	r19, 0xFF	; 255
    27bc:	0e 94 5b 16 	call	0x2cb6	; 0x2cb6 <_ZN12X10_modtager9fetchDataERhS0_Rb>
	if(vali == false)
    27c0:	89 81       	ldd	r24, Y+1	; 0x01
    27c2:	88 23       	and	r24, r24
    27c4:	79 f0       	breq	.+30     	; 0x27e4 <_ZN3X1013getUnitStatusEhRb+0xbc>
		return false;
	else
	{
		if(type == 0b001)
    27c6:	8b 81       	ldd	r24, Y+3	; 0x03
    27c8:	81 30       	cpi	r24, 0x01	; 1
    27ca:	71 f4       	brne	.+28     	; 0x27e8 <_ZN3X1013getUnitStatusEhRb+0xc0>
		{
			if(data == 0b0)
    27cc:	8a 81       	ldd	r24, Y+2	; 0x02
    27ce:	88 23       	and	r24, r24
    27d0:	21 f4       	brne	.+8      	; 0x27da <_ZN3X1013getUnitStatusEhRb+0xb2>
			{
				status = false;
    27d2:	f6 01       	movw	r30, r12
    27d4:	10 82       	st	Z, r1
				return true;
    27d6:	81 e0       	ldi	r24, 0x01	; 1
    27d8:	0a c0       	rjmp	.+20     	; 0x27ee <_ZN3X1013getUnitStatusEhRb+0xc6>
			}					
			else if(data == 0b1)
    27da:	81 30       	cpi	r24, 0x01	; 1
    27dc:	39 f4       	brne	.+14     	; 0x27ec <_ZN3X1013getUnitStatusEhRb+0xc4>
			{
				status = true;
    27de:	f6 01       	movw	r30, r12
    27e0:	80 83       	st	Z, r24
				return true;
    27e2:	05 c0       	rjmp	.+10     	; 0x27ee <_ZN3X1013getUnitStatusEhRb+0xc6>
	
	unsigned char type, data;
	bool vali;
	modtager_.fetchData(type, data, vali);
	if(vali == false)
		return false;
    27e4:	80 e0       	ldi	r24, 0x00	; 0
    27e6:	03 c0       	rjmp	.+6      	; 0x27ee <_ZN3X1013getUnitStatusEhRb+0xc6>
			}		
			else
				return false;				
		}		
		else
			return false;		
    27e8:	80 e0       	ldi	r24, 0x00	; 0
    27ea:	01 c0       	rjmp	.+2      	; 0x27ee <_ZN3X1013getUnitStatusEhRb+0xc6>
			{
				status = true;
				return true;
			}		
			else
				return false;				
    27ec:	80 e0       	ldi	r24, 0x00	; 0
		}		
		else
			return false;		
	}
}	
    27ee:	0f 90       	pop	r0
    27f0:	0f 90       	pop	r0
    27f2:	0f 90       	pop	r0
    27f4:	df 91       	pop	r29
    27f6:	cf 91       	pop	r28
    27f8:	1f 91       	pop	r17
    27fa:	0f 91       	pop	r16
    27fc:	ff 90       	pop	r15
    27fe:	ef 90       	pop	r14
    2800:	df 90       	pop	r13
    2802:	cf 90       	pop	r12
    2804:	08 95       	ret

00002806 <_ZN3X1011switchStateEhb>:
//=============================================================
// METHOD :
// DESCR. :
//=============================================================
bool X10::switchState(unsigned char unitID, bool newStatus)
{
    2806:	ef 92       	push	r14
    2808:	ff 92       	push	r15
    280a:	0f 93       	push	r16
    280c:	1f 93       	push	r17
    280e:	cf 93       	push	r28
    2810:	df 93       	push	r29
    2812:	00 d0       	rcall	.+0      	; 0x2814 <_ZN3X1011switchStateEhb+0xe>
    2814:	cd b7       	in	r28, 0x3d	; 61
    2816:	de b7       	in	r29, 0x3e	; 62
    2818:	7c 01       	movw	r14, r24
    281a:	26 2f       	mov	r18, r22
    281c:	04 2f       	mov	r16, r20
	sender_.sendCommand(houseCode_, unitID, 0b010, (newStatus == true ? 0b1 : 0b0));
    281e:	42 96       	adiw	r24, 0x12	; 18
    2820:	f7 01       	movw	r30, r14
    2822:	60 81       	ld	r22, Z
    2824:	42 2f       	mov	r20, r18
    2826:	22 e0       	ldi	r18, 0x02	; 2
    2828:	0e 94 87 17 	call	0x2f0e	; 0x2f0e <_ZN10X10_sender11sendCommandEhhhh>
	
	TCCR4B |= (1 << CS42) | (1 << CS40); //start timer
    282c:	e1 ea       	ldi	r30, 0xA1	; 161
    282e:	f0 e0       	ldi	r31, 0x00	; 0
    2830:	80 81       	ld	r24, Z
    2832:	85 60       	ori	r24, 0x05	; 5
    2834:	80 83       	st	Z, r24
	
	while(modtager_.isDataReady() != false)
    2836:	87 01       	movw	r16, r14
    2838:	0e 5f       	subi	r16, 0xFE	; 254
    283a:	1f 4f       	sbci	r17, 0xFF	; 255
    283c:	10 c0       	rjmp	.+32     	; 0x285e <_ZN3X1011switchStateEhb+0x58>
	{
		if(TIFR4 & (1 << TOV4))
    283e:	c8 9b       	sbis	0x19, 0	; 25
    2840:	0e c0       	rjmp	.+28     	; 0x285e <_ZN3X1011switchStateEhb+0x58>
		{
			TIFR4 |= (1 << TOV4); //stop timer
    2842:	c8 9a       	sbi	0x19, 0	; 25
			TCCR4B &= ~((1 << CS42) | (1 << CS40));
    2844:	e1 ea       	ldi	r30, 0xA1	; 161
    2846:	f0 e0       	ldi	r31, 0x00	; 0
    2848:	80 81       	ld	r24, Z
    284a:	8a 7f       	andi	r24, 0xFA	; 250
    284c:	80 83       	st	Z, r24
			TCNT4 = 34286;
    284e:	8e ee       	ldi	r24, 0xEE	; 238
    2850:	95 e8       	ldi	r25, 0x85	; 133
    2852:	90 93 a5 00 	sts	0x00A5, r25
    2856:	80 93 a4 00 	sts	0x00A4, r24
			return false;
    285a:	80 e0       	ldi	r24, 0x00	; 0
    285c:	27 c0       	rjmp	.+78     	; 0x28ac <_ZN3X1011switchStateEhb+0xa6>
{
	sender_.sendCommand(houseCode_, unitID, 0b010, (newStatus == true ? 0b1 : 0b0));
	
	TCCR4B |= (1 << CS42) | (1 << CS40); //start timer
	
	while(modtager_.isDataReady() != false)
    285e:	c8 01       	movw	r24, r16
    2860:	0e 94 73 16 	call	0x2ce6	; 0x2ce6 <_ZN12X10_modtager11isDataReadyEv>
    2864:	88 23       	and	r24, r24
    2866:	59 f7       	brne	.-42     	; 0x283e <_ZN3X1011switchStateEhb+0x38>
			TCCR4B &= ~((1 << CS42) | (1 << CS40));
			TCNT4 = 34286;
			return false;
		}
	}
	TCCR4B &= ~((1 << CS42) | (1 << CS40)); //stop timer
    2868:	e1 ea       	ldi	r30, 0xA1	; 161
    286a:	f0 e0       	ldi	r31, 0x00	; 0
    286c:	80 81       	ld	r24, Z
    286e:	8a 7f       	andi	r24, 0xFA	; 250
    2870:	80 83       	st	Z, r24
	TCNT4 = 34286;
    2872:	8e ee       	ldi	r24, 0xEE	; 238
    2874:	95 e8       	ldi	r25, 0x85	; 133
    2876:	90 93 a5 00 	sts	0x00A5, r25
    287a:	80 93 a4 00 	sts	0x00A4, r24
	
	unsigned char type, data;
	bool vali;
	modtager_.fetchData(type, data, vali);
    287e:	80 2f       	mov	r24, r16
    2880:	91 2f       	mov	r25, r17
    2882:	be 01       	movw	r22, r28
    2884:	6d 5f       	subi	r22, 0xFD	; 253
    2886:	7f 4f       	sbci	r23, 0xFF	; 255
    2888:	ae 01       	movw	r20, r28
    288a:	4e 5f       	subi	r20, 0xFE	; 254
    288c:	5f 4f       	sbci	r21, 0xFF	; 255
    288e:	9e 01       	movw	r18, r28
    2890:	2f 5f       	subi	r18, 0xFF	; 255
    2892:	3f 4f       	sbci	r19, 0xFF	; 255
    2894:	0e 94 5b 16 	call	0x2cb6	; 0x2cb6 <_ZN12X10_modtager9fetchDataERhS0_Rb>
	if(vali == false)
    2898:	89 81       	ldd	r24, Y+1	; 0x01
    289a:	88 23       	and	r24, r24
    289c:	31 f0       	breq	.+12     	; 0x28aa <_ZN3X1011switchStateEhb+0xa4>

//=============================================================
// METHOD :
// DESCR. :
//=============================================================
bool X10::switchState(unsigned char unitID, bool newStatus)
    289e:	81 e0       	ldi	r24, 0x01	; 1
    28a0:	9b 81       	ldd	r25, Y+3	; 0x03
    28a2:	95 30       	cpi	r25, 0x05	; 5
    28a4:	19 f0       	breq	.+6      	; 0x28ac <_ZN3X1011switchStateEhb+0xa6>
    28a6:	80 e0       	ldi	r24, 0x00	; 0
    28a8:	01 c0       	rjmp	.+2      	; 0x28ac <_ZN3X1011switchStateEhb+0xa6>
	
	unsigned char type, data;
	bool vali;
	modtager_.fetchData(type, data, vali);
	if(vali == false)
		return false;
    28aa:	80 e0       	ldi	r24, 0x00	; 0
			return true;	
							
		else
			return false;		
	}
}
    28ac:	0f 90       	pop	r0
    28ae:	0f 90       	pop	r0
    28b0:	0f 90       	pop	r0
    28b2:	df 91       	pop	r29
    28b4:	cf 91       	pop	r28
    28b6:	1f 91       	pop	r17
    28b8:	0f 91       	pop	r16
    28ba:	ff 90       	pop	r15
    28bc:	ef 90       	pop	r14
    28be:	08 95       	ret

000028c0 <_ZN3X1011replyStatusEb>:
//=============================================================
// METHOD :
// DESCR. :
//=============================================================
void X10::replyStatus(bool status)
{
    28c0:	0f 93       	push	r16
    28c2:	fc 01       	movw	r30, r24
    28c4:	06 2f       	mov	r16, r22
	sender_.sendCommand(houseCode_, 0, 0b001, (status == true ? 0b1 : 0b0));
    28c6:	42 96       	adiw	r24, 0x12	; 18
    28c8:	60 81       	ld	r22, Z
    28ca:	40 e0       	ldi	r20, 0x00	; 0
    28cc:	21 e0       	ldi	r18, 0x01	; 1
    28ce:	0e 94 87 17 	call	0x2f0e	; 0x2f0e <_ZN10X10_sender11sendCommandEhhhh>
}
    28d2:	0f 91       	pop	r16
    28d4:	08 95       	ret

000028d6 <_ZN3X107replyOkEv>:
//=============================================================
// METHOD :
// DESCR. :
//=============================================================
void X10::replyOk()
{
    28d6:	0f 93       	push	r16
    28d8:	fc 01       	movw	r30, r24
	sender_.sendCommand(houseCode_, 0, 0b101);
    28da:	42 96       	adiw	r24, 0x12	; 18
    28dc:	60 81       	ld	r22, Z
    28de:	40 e0       	ldi	r20, 0x00	; 0
    28e0:	25 e0       	ldi	r18, 0x05	; 5
    28e2:	00 e0       	ldi	r16, 0x00	; 0
    28e4:	0e 94 87 17 	call	0x2f0e	; 0x2f0e <_ZN10X10_sender11sendCommandEhhhh>
}
    28e8:	0f 91       	pop	r16
    28ea:	08 95       	ret

000028ec <_ZN3X1011recieveDataEv>:
//=============================================================
// METHOD :
// DESCR. :
//=============================================================
void X10::recieveData()
{
    28ec:	ef 92       	push	r14
    28ee:	ff 92       	push	r15
    28f0:	0f 93       	push	r16
    28f2:	1f 93       	push	r17
    28f4:	cf 93       	push	r28
    28f6:	df 93       	push	r29
    28f8:	00 d0       	rcall	.+0      	; 0x28fa <_ZN3X1011recieveDataEv+0xe>
    28fa:	cd b7       	in	r28, 0x3d	; 61
    28fc:	de b7       	in	r29, 0x3e	; 62
    28fe:	7c 01       	movw	r14, r24
	if(modtager_.isDataReady())
    2900:	8c 01       	movw	r16, r24
    2902:	0e 5f       	subi	r16, 0xFE	; 254
    2904:	1f 4f       	sbci	r17, 0xFF	; 255
    2906:	c8 01       	movw	r24, r16
    2908:	0e 94 73 16 	call	0x2ce6	; 0x2ce6 <_ZN12X10_modtager11isDataReadyEv>
    290c:	88 23       	and	r24, r24
    290e:	89 f1       	breq	.+98     	; 0x2972 <_ZN3X1011recieveDataEv+0x86>
	{
		unsigned char type;
		unsigned char data;
		bool vali;
		modtager_.fetchData(type, data, vali);
    2910:	c8 01       	movw	r24, r16
    2912:	be 01       	movw	r22, r28
    2914:	6d 5f       	subi	r22, 0xFD	; 253
    2916:	7f 4f       	sbci	r23, 0xFF	; 255
    2918:	ae 01       	movw	r20, r28
    291a:	4e 5f       	subi	r20, 0xFE	; 254
    291c:	5f 4f       	sbci	r21, 0xFF	; 255
    291e:	9e 01       	movw	r18, r28
    2920:	2f 5f       	subi	r18, 0xFF	; 255
    2922:	3f 4f       	sbci	r19, 0xFF	; 255
    2924:	0e 94 5b 16 	call	0x2cb6	; 0x2cb6 <_ZN12X10_modtager9fetchDataERhS0_Rb>
		if(vali == false)
    2928:	89 81       	ldd	r24, Y+1	; 0x01
    292a:	88 23       	and	r24, r24
    292c:	51 f4       	brne	.+20     	; 0x2942 <_ZN3X1011recieveDataEv+0x56>
		{
			sender_.sendCommand(houseCode_, 0, 111, 0b00);
    292e:	c7 01       	movw	r24, r14
    2930:	42 96       	adiw	r24, 0x12	; 18
    2932:	f7 01       	movw	r30, r14
    2934:	60 81       	ld	r22, Z
    2936:	40 e0       	ldi	r20, 0x00	; 0
    2938:	2f e6       	ldi	r18, 0x6F	; 111
    293a:	00 e0       	ldi	r16, 0x00	; 0
    293c:	0e 94 87 17 	call	0x2f0e	; 0x2f0e <_ZN10X10_sender11sendCommandEhhhh>
    2940:	18 c0       	rjmp	.+48     	; 0x2972 <_ZN3X1011recieveDataEv+0x86>
		}			
		else
		{
			if(type == 0b000)
    2942:	8b 81       	ldd	r24, Y+3	; 0x03
    2944:	88 23       	and	r24, r24
    2946:	31 f4       	brne	.+12     	; 0x2954 <_ZN3X1011recieveDataEv+0x68>
			{
				replyStatus(unitStatus_);
    2948:	c7 01       	movw	r24, r14
    294a:	f7 01       	movw	r30, r14
    294c:	61 81       	ldd	r22, Z+1	; 0x01
    294e:	0e 94 60 14 	call	0x28c0	; 0x28c0 <_ZN3X1011replyStatusEb>
    2952:	0f c0       	rjmp	.+30     	; 0x2972 <_ZN3X1011recieveDataEv+0x86>
			}
			else if(type == 0b010)
    2954:	82 30       	cpi	r24, 0x02	; 2
    2956:	21 f4       	brne	.+8      	; 0x2960 <_ZN3X1011recieveDataEv+0x74>
			{
				switchLight((data == 0b0 ? false : true));
				replyOk();
    2958:	c7 01       	movw	r24, r14
    295a:	0e 94 6b 14 	call	0x28d6	; 0x28d6 <_ZN3X107replyOkEv>
    295e:	09 c0       	rjmp	.+18     	; 0x2972 <_ZN3X1011recieveDataEv+0x86>
			}
			else
				sender_.sendCommand(houseCode_, 0, 111, 0b01);
    2960:	c7 01       	movw	r24, r14
    2962:	42 96       	adiw	r24, 0x12	; 18
    2964:	f7 01       	movw	r30, r14
    2966:	60 81       	ld	r22, Z
    2968:	40 e0       	ldi	r20, 0x00	; 0
    296a:	2f e6       	ldi	r18, 0x6F	; 111
    296c:	01 e0       	ldi	r16, 0x01	; 1
    296e:	0e 94 87 17 	call	0x2f0e	; 0x2f0e <_ZN10X10_sender11sendCommandEhhhh>
		}
	}
	else{}
}
    2972:	0f 90       	pop	r0
    2974:	0f 90       	pop	r0
    2976:	0f 90       	pop	r0
    2978:	df 91       	pop	r29
    297a:	cf 91       	pop	r28
    297c:	1f 91       	pop	r17
    297e:	0f 91       	pop	r16
    2980:	ff 90       	pop	r15
    2982:	ef 90       	pop	r14
    2984:	08 95       	ret

00002986 <_ZN3X1011switchLightEb>:
// DESCR. :
//=============================================================
void X10::switchLight(bool newState)
{
	//dummy
}
    2986:	08 95       	ret

00002988 <_ZN3X1022reciveSendHighInteruptEv>:
//=============================================================
// METHOD :
// DESCR. :
//=============================================================
void X10::reciveSendHighInterupt()
{
    2988:	0f 93       	push	r16
    298a:	1f 93       	push	r17
    298c:	cf 93       	push	r28
    298e:	df 93       	push	r29
    2990:	ec 01       	movw	r28, r24
	if(sender_.getSendMode())
    2992:	8c 01       	movw	r16, r24
    2994:	0e 5e       	subi	r16, 0xEE	; 238
    2996:	1f 4f       	sbci	r17, 0xFF	; 255
    2998:	c8 01       	movw	r24, r16
    299a:	0e 94 43 17 	call	0x2e86	; 0x2e86 <_ZN10X10_sender11getSendModeEv>
    299e:	88 23       	and	r24, r24
    29a0:	21 f0       	breq	.+8      	; 0x29aa <_ZN3X1022reciveSendHighInteruptEv+0x22>
		sender_.sendHigh();
    29a2:	c8 01       	movw	r24, r16
    29a4:	0e 94 37 18 	call	0x306e	; 0x306e <_ZN10X10_sender8sendHighEv>
    29a8:	04 c0       	rjmp	.+8      	; 0x29b2 <_ZN3X1022reciveSendHighInteruptEv+0x2a>
	else
		modtager_.receiveHigh();
    29aa:	ce 01       	movw	r24, r28
    29ac:	02 96       	adiw	r24, 0x02	; 2
    29ae:	0e 94 8b 16 	call	0x2d16	; 0x2d16 <_ZN12X10_modtager11receiveHighEv>
}
    29b2:	df 91       	pop	r29
    29b4:	cf 91       	pop	r28
    29b6:	1f 91       	pop	r17
    29b8:	0f 91       	pop	r16
    29ba:	08 95       	ret

000029bc <_ZN3X1021reciveSendLowInteruptEv>:
//=============================================================
// METHOD :
// DESCR. :
//=============================================================
void X10::reciveSendLowInterupt()
{
    29bc:	0f 93       	push	r16
    29be:	1f 93       	push	r17
    29c0:	cf 93       	push	r28
    29c2:	df 93       	push	r29
    29c4:	ec 01       	movw	r28, r24
	if(sender_.getSendMode())
    29c6:	8c 01       	movw	r16, r24
    29c8:	0e 5e       	subi	r16, 0xEE	; 238
    29ca:	1f 4f       	sbci	r17, 0xFF	; 255
    29cc:	c8 01       	movw	r24, r16
    29ce:	0e 94 43 17 	call	0x2e86	; 0x2e86 <_ZN10X10_sender11getSendModeEv>
    29d2:	88 23       	and	r24, r24
    29d4:	21 f0       	breq	.+8      	; 0x29de <_ZN3X1021reciveSendLowInteruptEv+0x22>
		sender_.sendLow();
    29d6:	c8 01       	movw	r24, r16
    29d8:	0e 94 98 18 	call	0x3130	; 0x3130 <_ZN10X10_sender7sendLowEv>
    29dc:	04 c0       	rjmp	.+8      	; 0x29e6 <_ZN3X1021reciveSendLowInteruptEv+0x2a>
	else
		modtager_.receiveLow();
    29de:	ce 01       	movw	r24, r28
    29e0:	02 96       	adiw	r24, 0x02	; 2
    29e2:	0e 94 ac 16 	call	0x2d58	; 0x2d58 <_ZN12X10_modtager10receiveLowEv>
}
    29e6:	df 91       	pop	r29
    29e8:	cf 91       	pop	r28
    29ea:	1f 91       	pop	r17
    29ec:	0f 91       	pop	r16
    29ee:	08 95       	ret

000029f0 <_ZN3X1015stop120InteruptEv>:
// METHOD :
// DESCR. :
//=============================================================
void X10::stop120Interupt()
{
	sender_.stop120();
    29f0:	42 96       	adiw	r24, 0x12	; 18
    29f2:	0e 94 30 17 	call	0x2e60	; 0x2e60 <_ZN10X10_sender7stop120Ev>
}
    29f6:	08 95       	ret

000029f8 <_ZN3X1020resetReciverInteruptEv>:
// METHOD :
// DESCR. :
//=============================================================
void X10::resetReciverInterupt()
{
	modtager_.resetReceiver();
    29f8:	02 96       	adiw	r24, 0x02	; 2
    29fa:	0e 94 05 15 	call	0x2a0a	; 0x2a0a <_ZN12X10_modtager13resetReceiverEv>
	PORTB |= 1;
    29fe:	28 9a       	sbi	0x05, 0	; 5
}
    2a00:	08 95       	ret

00002a02 <_ZN3X1021inputCompleteInteruptEv>:
// METHOD :
// DESCR. :
//=============================================================
void X10::inputCompleteInterupt()
{
	modtager_.inputComplete();
    2a02:	02 96       	adiw	r24, 0x02	; 2
    2a04:	0e 94 7c 16 	call	0x2cf8	; 0x2cf8 <_ZN12X10_modtager13inputCompleteEv>
    2a08:	08 95       	ret

00002a0a <_ZN12X10_modtager13resetReceiverEv>:
//=============================================================
// METHOD : resetReceiver
// DESCR. : resets the receiver
//=============================================================
void X10_modtager::resetReceiver()
{
    2a0a:	fc 01       	movw	r30, r24
	packet1_ = 0;
    2a0c:	11 82       	std	Z+1, r1	; 0x01
    2a0e:	10 82       	st	Z, r1
	packet2_ = 0;
    2a10:	13 82       	std	Z+3, r1	; 0x03
    2a12:	12 82       	std	Z+2, r1	; 0x02
	currentPos1_ = 0;
    2a14:	14 82       	std	Z+4, r1	; 0x04
	currentPos2_ = 0;
    2a16:	15 82       	std	Z+5, r1	; 0x05
	currentPacket_ = 1;
    2a18:	81 e0       	ldi	r24, 0x01	; 1
    2a1a:	86 83       	std	Z+6, r24	; 0x06
	numberOfData_ = 0;
    2a1c:	13 86       	std	Z+11, r1	; 0x0b
	notReciving_ = false;
    2a1e:	17 82       	std	Z+7, r1	; 0x07
	dataReady_ = false;
    2a20:	16 86       	std	Z+14, r1	; 0x0e
	type_ = 0;
    2a22:	12 86       	std	Z+10, r1	; 0x0a
	data_ = 0;
    2a24:	14 86       	std	Z+12, r1	; 0x0c
	numberOfZero_ = 0;
    2a26:	17 86       	std	Z+15, r1	; 0x0f
	packetValidity_ = false;
    2a28:	15 86       	std	Z+13, r1	; 0x0d
	TCCR3B &= ~(1 << CS31);
    2a2a:	e1 e9       	ldi	r30, 0x91	; 145
    2a2c:	f0 e0       	ldi	r31, 0x00	; 0
    2a2e:	80 81       	ld	r24, Z
    2a30:	8d 7f       	andi	r24, 0xFD	; 253
    2a32:	80 83       	st	Z, r24
}
    2a34:	08 95       	ret

00002a36 <_ZN12X10_modtagerC1Ehh>:
// METHOD : Explicit constructor
// DESCR. : Receives the unit housecode and adress
//=============================================================
X10_modtager::X10_modtager(unsigned char houseCode, unsigned char adress)
{
	houseCode_ = houseCode;
    2a36:	fc 01       	movw	r30, r24
    2a38:	60 87       	std	Z+8, r22	; 0x08
	adress_ = adress;
    2a3a:	41 87       	std	Z+9, r20	; 0x09
	
	
	//timeout timer
	// interupt
	TIMSK3 |= (1 << TOIE3);
    2a3c:	e1 e7       	ldi	r30, 0x71	; 113
    2a3e:	f0 e0       	ldi	r31, 0x00	; 0
    2a40:	20 81       	ld	r18, Z
    2a42:	21 60       	ori	r18, 0x01	; 1
    2a44:	20 83       	st	Z, r18
	TCNT2 = 0;
    2a46:	10 92 b2 00 	sts	0x00B2, r1

	
	resetReceiver();
    2a4a:	0e 94 05 15 	call	0x2a0a	; 0x2a0a <_ZN12X10_modtager13resetReceiverEv>
}
    2a4e:	08 95       	ret

00002a50 <_ZN12X10_modtager11startTimoutEv>:
// METHOD : startTimout
// DESCR. : starts the countdown to time out
//=============================================================
void X10_modtager::startTimout()
{
	TCCR3B |= (1 << CS31);
    2a50:	e1 e9       	ldi	r30, 0x91	; 145
    2a52:	f0 e0       	ldi	r31, 0x00	; 0
    2a54:	80 81       	ld	r24, Z
    2a56:	82 60       	ori	r24, 0x02	; 2
    2a58:	80 83       	st	Z, r24
	TCNT3 = 5000;
    2a5a:	88 e8       	ldi	r24, 0x88	; 136
    2a5c:	93 e1       	ldi	r25, 0x13	; 19
    2a5e:	90 93 95 00 	sts	0x0095, r25
    2a62:	80 93 94 00 	sts	0x0094, r24
}
    2a66:	08 95       	ret

00002a68 <_ZN12X10_modtager11resetTimoutEv>:
// METHOD : resetTimout
// DESCR. : resets the time for the time out
//=============================================================
void X10_modtager::resetTimout()
{
	TCNT3 = 5000;
    2a68:	88 e8       	ldi	r24, 0x88	; 136
    2a6a:	93 e1       	ldi	r25, 0x13	; 19
    2a6c:	90 93 95 00 	sts	0x0095, r25
    2a70:	80 93 94 00 	sts	0x0094, r24
}
    2a74:	08 95       	ret

00002a76 <_ZN12X10_modtager18writeDataToPacket1Eh>:
//=============================================================
// METHOD : writeDataToPacket1
// DESCR. : writes the given data to packet 1
//=============================================================
void X10_modtager::writeDataToPacket1(unsigned char data)
{
    2a76:	fc 01       	movw	r30, r24
	if(currentPos1_ > 0)
    2a78:	24 81       	ldd	r18, Z+4	; 0x04
    2a7a:	22 23       	and	r18, r18
    2a7c:	61 f0       	breq	.+24     	; 0x2a96 <_ZN12X10_modtager18writeDataToPacket1Eh+0x20>
		packet1_ = (packet1_ << 1) | data;
    2a7e:	70 e0       	ldi	r23, 0x00	; 0
    2a80:	80 81       	ld	r24, Z
    2a82:	91 81       	ldd	r25, Z+1	; 0x01
    2a84:	88 0f       	add	r24, r24
    2a86:	99 1f       	adc	r25, r25
    2a88:	68 2b       	or	r22, r24
    2a8a:	79 2b       	or	r23, r25
    2a8c:	71 83       	std	Z+1, r23	; 0x01
    2a8e:	60 83       	st	Z, r22
	else
		packet1_ |= data;
		
	if(currentPos1_ < 15)
    2a90:	2f 30       	cpi	r18, 0x0F	; 15
    2a92:	58 f4       	brcc	.+22     	; 0x2aaa <_ZN12X10_modtager18writeDataToPacket1Eh+0x34>
    2a94:	07 c0       	rjmp	.+14     	; 0x2aa4 <_ZN12X10_modtager18writeDataToPacket1Eh+0x2e>
void X10_modtager::writeDataToPacket1(unsigned char data)
{
	if(currentPos1_ > 0)
		packet1_ = (packet1_ << 1) | data;
	else
		packet1_ |= data;
    2a96:	70 e0       	ldi	r23, 0x00	; 0
    2a98:	80 81       	ld	r24, Z
    2a9a:	91 81       	ldd	r25, Z+1	; 0x01
    2a9c:	68 2b       	or	r22, r24
    2a9e:	79 2b       	or	r23, r25
    2aa0:	71 83       	std	Z+1, r23	; 0x01
    2aa2:	60 83       	st	Z, r22
		
	if(currentPos1_ < 15)
	{
		++currentPos1_;
    2aa4:	2f 5f       	subi	r18, 0xFF	; 255
    2aa6:	24 83       	std	Z+4, r18	; 0x04
    2aa8:	08 95       	ret
	}		
	else
	{
		++currentPos1_;
    2aaa:	2f 5f       	subi	r18, 0xFF	; 255
    2aac:	24 83       	std	Z+4, r18	; 0x04
    2aae:	08 95       	ret

00002ab0 <_ZN12X10_modtager18writeDataToPacket2Eh>:
//=============================================================
// METHOD : writeDataToPacket2
// DESCR. : writes the given data to packet 2
//=============================================================
void X10_modtager::writeDataToPacket2(unsigned char data)
{
    2ab0:	fc 01       	movw	r30, r24
	if(currentPos2_ > 0)
    2ab2:	25 81       	ldd	r18, Z+5	; 0x05
    2ab4:	22 23       	and	r18, r18
    2ab6:	59 f0       	breq	.+22     	; 0x2ace <_ZN12X10_modtager18writeDataToPacket2Eh+0x1e>
		packet2_ = (packet2_ << 1) | data;
    2ab8:	86 2f       	mov	r24, r22
    2aba:	90 e0       	ldi	r25, 0x00	; 0
    2abc:	62 81       	ldd	r22, Z+2	; 0x02
    2abe:	73 81       	ldd	r23, Z+3	; 0x03
    2ac0:	66 0f       	add	r22, r22
    2ac2:	77 1f       	adc	r23, r23
    2ac4:	68 2b       	or	r22, r24
    2ac6:	79 2b       	or	r23, r25
    2ac8:	73 83       	std	Z+3, r23	; 0x03
    2aca:	62 83       	std	Z+2, r22	; 0x02
    2acc:	07 c0       	rjmp	.+14     	; 0x2adc <_ZN12X10_modtager18writeDataToPacket2Eh+0x2c>
	else
		packet2_ |= data;
    2ace:	70 e0       	ldi	r23, 0x00	; 0
    2ad0:	82 81       	ldd	r24, Z+2	; 0x02
    2ad2:	93 81       	ldd	r25, Z+3	; 0x03
    2ad4:	68 2b       	or	r22, r24
    2ad6:	79 2b       	or	r23, r25
    2ad8:	73 83       	std	Z+3, r23	; 0x03
    2ada:	62 83       	std	Z+2, r22	; 0x02
	
	if(currentPos2_ < (8 + numberOfData_))
    2adc:	42 2f       	mov	r20, r18
    2ade:	50 e0       	ldi	r21, 0x00	; 0
    2ae0:	83 85       	ldd	r24, Z+11	; 0x0b
    2ae2:	90 e0       	ldi	r25, 0x00	; 0
    2ae4:	08 96       	adiw	r24, 0x08	; 8
    2ae6:	48 17       	cp	r20, r24
    2ae8:	59 07       	cpc	r21, r25
    2aea:	1c f4       	brge	.+6      	; 0x2af2 <_ZN12X10_modtager18writeDataToPacket2Eh+0x42>
		++currentPos2_;
    2aec:	2f 5f       	subi	r18, 0xFF	; 255
    2aee:	25 83       	std	Z+5, r18	; 0x05
    2af0:	08 95       	ret
	else
	{
		++currentPos2_;
    2af2:	2f 5f       	subi	r18, 0xFF	; 255
    2af4:	25 83       	std	Z+5, r18	; 0x05
		currentPacket_ = 0;
    2af6:	16 82       	std	Z+6, r1	; 0x06
    2af8:	08 95       	ret

00002afa <_ZN12X10_modtager13isPacketForMeEv>:
//=============================================================
// METHOD : isPacketForMe
// DESCR. : checks if the adress in the packet match up with the units adress
//=============================================================
bool X10_modtager::isPacketForMe()
{
    2afa:	fc 01       	movw	r30, r24
	if(houseCode_ == ((packet1_ >> 8) & 0xF))
    2afc:	20 81       	ld	r18, Z
    2afe:	31 81       	ldd	r19, Z+1	; 0x01
    2b00:	40 85       	ldd	r20, Z+8	; 0x08
    2b02:	50 e0       	ldi	r21, 0x00	; 0
    2b04:	83 2f       	mov	r24, r19
    2b06:	99 27       	eor	r25, r25
    2b08:	8f 70       	andi	r24, 0x0F	; 15
    2b0a:	90 70       	andi	r25, 0x00	; 0
    2b0c:	48 17       	cp	r20, r24
    2b0e:	59 07       	cpc	r21, r25
    2b10:	49 f4       	brne	.+18     	; 0x2b24 <_ZN12X10_modtager13isPacketForMeEv+0x2a>
		{
			if(adress_ == (packet1_ & 0xFF))
    2b12:	41 85       	ldd	r20, Z+9	; 0x09
    2b14:	50 e0       	ldi	r21, 0x00	; 0
    2b16:	30 70       	andi	r19, 0x00	; 0

//=============================================================
// METHOD : isPacketForMe
// DESCR. : checks if the adress in the packet match up with the units adress
//=============================================================
bool X10_modtager::isPacketForMe()
    2b18:	81 e0       	ldi	r24, 0x01	; 1
    2b1a:	42 17       	cp	r20, r18
    2b1c:	53 07       	cpc	r21, r19
    2b1e:	19 f0       	breq	.+6      	; 0x2b26 <_ZN12X10_modtager13isPacketForMeEv+0x2c>
    2b20:	80 e0       	ldi	r24, 0x00	; 0
    2b22:	08 95       	ret
				return true;
			else
				return false;
		}
	else
		return false;
    2b24:	80 e0       	ldi	r24, 0x00	; 0
}
    2b26:	08 95       	ret

00002b28 <_ZN12X10_modtager13getPacketTypeEv>:
// METHOD : getPacketType
// DESCR. : Retrieve the packet type from the packet
//=============================================================
unsigned char X10_modtager::getPacketType()
{
	return (packet2_ & 0b111);
    2b28:	fc 01       	movw	r30, r24
    2b2a:	82 81       	ldd	r24, Z+2	; 0x02
}
    2b2c:	87 70       	andi	r24, 0x07	; 7
    2b2e:	08 95       	ret

00002b30 <_ZN12X10_modtager13getPacketDataEv>:
//=============================================================
// METHOD : getPacketData
// DESCR. : Retrieve the packet data from the packet
//=============================================================
unsigned char X10_modtager::getPacketData()
{
    2b30:	fc 01       	movw	r30, r24
	if(numberOfData_ == 1)
    2b32:	83 85       	ldd	r24, Z+11	; 0x0b
    2b34:	81 30       	cpi	r24, 0x01	; 1
    2b36:	49 f4       	brne	.+18     	; 0x2b4a <_ZN12X10_modtager13getPacketDataEv+0x1a>
		return ((packet2_ >> 7) & 1);
    2b38:	82 81       	ldd	r24, Z+2	; 0x02
    2b3a:	93 81       	ldd	r25, Z+3	; 0x03
    2b3c:	88 0f       	add	r24, r24
    2b3e:	89 2f       	mov	r24, r25
    2b40:	88 1f       	adc	r24, r24
    2b42:	99 0b       	sbc	r25, r25
    2b44:	91 95       	neg	r25
    2b46:	81 70       	andi	r24, 0x01	; 1
    2b48:	08 95       	ret
	else if(numberOfData_ == 2)
    2b4a:	82 30       	cpi	r24, 0x02	; 2
    2b4c:	49 f4       	brne	.+18     	; 0x2b60 <_ZN12X10_modtager13getPacketDataEv+0x30>
		return ((packet2_ >> 7) & 3);
    2b4e:	82 81       	ldd	r24, Z+2	; 0x02
    2b50:	93 81       	ldd	r25, Z+3	; 0x03
    2b52:	88 0f       	add	r24, r24
    2b54:	89 2f       	mov	r24, r25
    2b56:	88 1f       	adc	r24, r24
    2b58:	99 0b       	sbc	r25, r25
    2b5a:	91 95       	neg	r25
    2b5c:	83 70       	andi	r24, 0x03	; 3
    2b5e:	08 95       	ret
	else
		return 0;
    2b60:	80 e0       	ldi	r24, 0x00	; 0
}
    2b62:	08 95       	ret

00002b64 <_ZN12X10_modtager12isValidStartEv>:
//=============================================================
// METHOD : isValidStart
// DESCR. : checks if the first 4 bits are a valid start
//=============================================================
bool X10_modtager::isValidStart()
{
    2b64:	fc 01       	movw	r30, r24

//=============================================================
// METHOD : isValidStart
// DESCR. : checks if the first 4 bits are a valid start
//=============================================================
bool X10_modtager::isValidStart()
    2b66:	81 e0       	ldi	r24, 0x01	; 1
    2b68:	20 81       	ld	r18, Z
    2b6a:	31 81       	ldd	r19, Z+1	; 0x01
    2b6c:	2e 30       	cpi	r18, 0x0E	; 14
    2b6e:	31 05       	cpc	r19, r1
    2b70:	09 f0       	breq	.+2      	; 0x2b74 <_ZN12X10_modtager12isValidStartEv+0x10>
    2b72:	80 e0       	ldi	r24, 0x00	; 0
{
	if(packet1_ == 0b1110)
		return true;
	else
		return false;
}
    2b74:	08 95       	ret

00002b76 <_ZN12X10_modtager12checkForZeroEh>:

//=============================================================
// METHOD : checkForZero
// DESCR. : check if last received data was a zero
//=============================================================
bool X10_modtager::checkForZero(unsigned char data)
    2b76:	81 e0       	ldi	r24, 0x01	; 1
    2b78:	61 30       	cpi	r22, 0x01	; 1
    2b7a:	09 f4       	brne	.+2      	; 0x2b7e <_ZN12X10_modtager12checkForZeroEh+0x8>
    2b7c:	80 e0       	ldi	r24, 0x00	; 0
{
	if(data ^ 1)
		return true;
	else
		return false;
}
    2b7e:	08 95       	ret

00002b80 <_ZN12X10_modtager15validatePacketsEv>:
//=============================================================
// METHOD : validatePackets
// DESCR. : checks if the whole packet is valid
//=============================================================
bool X10_modtager::validatePackets()
{
    2b80:	fc 01       	movw	r30, r24
	unsigned char parity = 0;
	
	for (unsigned char i = 0; i < 16; i++)
	{
		parity = (parity ^ ((packet1_ >> i) & 1));
    2b82:	40 81       	ld	r20, Z
    2b84:	51 81       	ldd	r21, Z+1	; 0x01
    2b86:	80 e0       	ldi	r24, 0x00	; 0
    2b88:	90 e0       	ldi	r25, 0x00	; 0
// METHOD : validatePackets
// DESCR. : checks if the whole packet is valid
//=============================================================
bool X10_modtager::validatePackets()
{
	unsigned char parity = 0;
    2b8a:	60 e0       	ldi	r22, 0x00	; 0
	
	for (unsigned char i = 0; i < 16; i++)
	{
		parity = (parity ^ ((packet1_ >> i) & 1));
    2b8c:	9a 01       	movw	r18, r20
    2b8e:	08 2e       	mov	r0, r24
    2b90:	02 c0       	rjmp	.+4      	; 0x2b96 <_ZN12X10_modtager15validatePacketsEv+0x16>
    2b92:	36 95       	lsr	r19
    2b94:	27 95       	ror	r18
    2b96:	0a 94       	dec	r0
    2b98:	e2 f7       	brpl	.-8      	; 0x2b92 <_ZN12X10_modtager15validatePacketsEv+0x12>
    2b9a:	21 70       	andi	r18, 0x01	; 1
    2b9c:	62 27       	eor	r22, r18
    2b9e:	01 96       	adiw	r24, 0x01	; 1
//=============================================================
bool X10_modtager::validatePackets()
{
	unsigned char parity = 0;
	
	for (unsigned char i = 0; i < 16; i++)
    2ba0:	80 31       	cpi	r24, 0x10	; 16
    2ba2:	91 05       	cpc	r25, r1
    2ba4:	99 f7       	brne	.-26     	; 0x2b8c <_ZN12X10_modtager15validatePacketsEv+0xc>
		parity = (parity ^ ((packet1_ >> i) & 1));
	}
	
	for (unsigned char i = 0; i < (12); i++)
	{
		parity = (parity ^ ((packet2_ >> i) & 1));
    2ba6:	42 81       	ldd	r20, Z+2	; 0x02
    2ba8:	53 81       	ldd	r21, Z+3	; 0x03
    2baa:	80 e0       	ldi	r24, 0x00	; 0
    2bac:	90 e0       	ldi	r25, 0x00	; 0
    2bae:	9a 01       	movw	r18, r20
    2bb0:	08 2e       	mov	r0, r24
    2bb2:	02 c0       	rjmp	.+4      	; 0x2bb8 <_ZN12X10_modtager15validatePacketsEv+0x38>
    2bb4:	36 95       	lsr	r19
    2bb6:	27 95       	ror	r18
    2bb8:	0a 94       	dec	r0
    2bba:	e2 f7       	brpl	.-8      	; 0x2bb4 <_ZN12X10_modtager15validatePacketsEv+0x34>
    2bbc:	21 70       	andi	r18, 0x01	; 1
    2bbe:	62 27       	eor	r22, r18
    2bc0:	01 96       	adiw	r24, 0x01	; 1
	for (unsigned char i = 0; i < 16; i++)
	{
		parity = (parity ^ ((packet1_ >> i) & 1));
	}
	
	for (unsigned char i = 0; i < (12); i++)
    2bc2:	8c 30       	cpi	r24, 0x0C	; 12
    2bc4:	91 05       	cpc	r25, r1
    2bc6:	99 f7       	brne	.-26     	; 0x2bae <_ZN12X10_modtager15validatePacketsEv+0x2e>

//=============================================================
// METHOD : validatePackets
// DESCR. : checks if the whole packet is valid
//=============================================================
bool X10_modtager::validatePackets()
    2bc8:	81 e0       	ldi	r24, 0x01	; 1
    2bca:	61 11       	cpse	r22, r1
    2bcc:	80 e0       	ldi	r24, 0x00	; 0
	
	if(parity != 0)
		return false;
	else
		return true;
}
    2bce:	08 95       	ret

00002bd0 <_ZN12X10_modtager11receiveDataEh>:
//=============================================================
// METHOD : receiveData
// DESCR. : Handles receiving data, and the compilation of type and data
//=============================================================
void X10_modtager::receiveData(unsigned char data)
{	
    2bd0:	1f 93       	push	r17
    2bd2:	cf 93       	push	r28
    2bd4:	df 93       	push	r29
    2bd6:	ec 01       	movw	r28, r24
    2bd8:	16 2f       	mov	r17, r22
// 		startTimout();
// 	else
// 		resetTimout();
		
	
	if(notReciving_ == false)
    2bda:	8f 81       	ldd	r24, Y+7	; 0x07
    2bdc:	88 23       	and	r24, r24
    2bde:	09 f0       	breq	.+2      	; 0x2be2 <_ZN12X10_modtager11receiveDataEh+0x12>
    2be0:	54 c0       	rjmp	.+168    	; 0x2c8a <_ZN12X10_modtager11receiveDataEh+0xba>
	{
		if(currentPacket_ == 1)
    2be2:	8e 81       	ldd	r24, Y+6	; 0x06
    2be4:	81 30       	cpi	r24, 0x01	; 1
    2be6:	e1 f4       	brne	.+56     	; 0x2c20 <_ZN12X10_modtager11receiveDataEh+0x50>
		{
			writeDataToPacket1(data);
    2be8:	ce 01       	movw	r24, r28
    2bea:	0e 94 3b 15 	call	0x2a76	; 0x2a76 <_ZN12X10_modtager18writeDataToPacket1Eh>
			if(currentPos1_ == 4)
    2bee:	8c 81       	ldd	r24, Y+4	; 0x04
    2bf0:	84 30       	cpi	r24, 0x04	; 4
    2bf2:	49 f4       	brne	.+18     	; 0x2c06 <_ZN12X10_modtager11receiveDataEh+0x36>
			{
				if(isValidStart())
    2bf4:	ce 01       	movw	r24, r28
    2bf6:	0e 94 b2 15 	call	0x2b64	; 0x2b64 <_ZN12X10_modtager12isValidStartEv>
    2bfa:	88 23       	and	r24, r24
    2bfc:	09 f0       	breq	.+2      	; 0x2c00 <_ZN12X10_modtager11receiveDataEh+0x30>
    2bfe:	42 c0       	rjmp	.+132    	; 0x2c84 <_ZN12X10_modtager11receiveDataEh+0xb4>
				{
				}
				else
				{
					notReciving_ = true;
    2c00:	81 e0       	ldi	r24, 0x01	; 1
    2c02:	8f 83       	std	Y+7, r24	; 0x07
    2c04:	42 c0       	rjmp	.+132    	; 0x2c8a <_ZN12X10_modtager11receiveDataEh+0xba>
				}
			}
			else if (currentPos1_ == 16)
    2c06:	80 31       	cpi	r24, 0x10	; 16
    2c08:	e9 f5       	brne	.+122    	; 0x2c84 <_ZN12X10_modtager11receiveDataEh+0xb4>
			{
				if(isPacketForMe())
    2c0a:	ce 01       	movw	r24, r28
    2c0c:	0e 94 7d 15 	call	0x2afa	; 0x2afa <_ZN12X10_modtager13isPacketForMeEv>
    2c10:	88 23       	and	r24, r24
    2c12:	19 f0       	breq	.+6      	; 0x2c1a <_ZN12X10_modtager11receiveDataEh+0x4a>
				{
					currentPacket_ = 2;
    2c14:	82 e0       	ldi	r24, 0x02	; 2
    2c16:	8e 83       	std	Y+6, r24	; 0x06
    2c18:	35 c0       	rjmp	.+106    	; 0x2c84 <_ZN12X10_modtager11receiveDataEh+0xb4>
				}
				else
				{
					notReciving_ = true;
    2c1a:	81 e0       	ldi	r24, 0x01	; 1
    2c1c:	8f 83       	std	Y+7, r24	; 0x07
    2c1e:	35 c0       	rjmp	.+106    	; 0x2c8a <_ZN12X10_modtager11receiveDataEh+0xba>
				}
				
			}
		}
		
		else if(currentPacket_ == 2)
    2c20:	82 30       	cpi	r24, 0x02	; 2
    2c22:	f9 f4       	brne	.+62     	; 0x2c62 <_ZN12X10_modtager11receiveDataEh+0x92>
		{
			
			writeDataToPacket2(data);
    2c24:	ce 01       	movw	r24, r28
    2c26:	0e 94 58 15 	call	0x2ab0	; 0x2ab0 <_ZN12X10_modtager18writeDataToPacket2Eh>
			if(currentPos2_ == 3)
    2c2a:	8d 81       	ldd	r24, Y+5	; 0x05
    2c2c:	83 30       	cpi	r24, 0x03	; 3
    2c2e:	51 f5       	brne	.+84     	; 0x2c84 <_ZN12X10_modtager11receiveDataEh+0xb4>
			{
				type_ = getPacketType();
    2c30:	ce 01       	movw	r24, r28
    2c32:	0e 94 94 15 	call	0x2b28	; 0x2b28 <_ZN12X10_modtager13getPacketTypeEv>
    2c36:	8a 87       	std	Y+10, r24	; 0x0a
				if(type_ == 0b000 || type_ == 0b011 || type_ == 0b100)
    2c38:	88 23       	and	r24, r24
    2c3a:	21 f0       	breq	.+8      	; 0x2c44 <_ZN12X10_modtager11receiveDataEh+0x74>
    2c3c:	83 30       	cpi	r24, 0x03	; 3
    2c3e:	11 f0       	breq	.+4      	; 0x2c44 <_ZN12X10_modtager11receiveDataEh+0x74>
    2c40:	84 30       	cpi	r24, 0x04	; 4
    2c42:	11 f4       	brne	.+4      	; 0x2c48 <_ZN12X10_modtager11receiveDataEh+0x78>
				{
					numberOfData_ = 0;
    2c44:	1b 86       	std	Y+11, r1	; 0x0b
    2c46:	1e c0       	rjmp	.+60     	; 0x2c84 <_ZN12X10_modtager11receiveDataEh+0xb4>
				}
				else if(type_ == 0b001 || type_ == 0b010)
    2c48:	98 2f       	mov	r25, r24
    2c4a:	91 50       	subi	r25, 0x01	; 1
    2c4c:	92 30       	cpi	r25, 0x02	; 2
    2c4e:	18 f4       	brcc	.+6      	; 0x2c56 <_ZN12X10_modtager11receiveDataEh+0x86>
				{
					numberOfData_ = 1;
    2c50:	81 e0       	ldi	r24, 0x01	; 1
    2c52:	8b 87       	std	Y+11, r24	; 0x0b
    2c54:	17 c0       	rjmp	.+46     	; 0x2c84 <_ZN12X10_modtager11receiveDataEh+0xb4>
				}
				else if(type_ == 0b110 || type_ == 0b101)
    2c56:	85 50       	subi	r24, 0x05	; 5
    2c58:	82 30       	cpi	r24, 0x02	; 2
    2c5a:	a0 f4       	brcc	.+40     	; 0x2c84 <_ZN12X10_modtager11receiveDataEh+0xb4>
				{
					numberOfData_ = 2;
    2c5c:	82 e0       	ldi	r24, 0x02	; 2
    2c5e:	8b 87       	std	Y+11, r24	; 0x0b
    2c60:	11 c0       	rjmp	.+34     	; 0x2c84 <_ZN12X10_modtager11receiveDataEh+0xb4>
				else
				{
				}
			}
		}
		else if(currentPacket_ == 0)
    2c62:	88 23       	and	r24, r24
    2c64:	79 f4       	brne	.+30     	; 0x2c84 <_ZN12X10_modtager11receiveDataEh+0xb4>
		{
			TCCR3B &= ~(1 << CS31); //stop timeout
    2c66:	e1 e9       	ldi	r30, 0x91	; 145
    2c68:	f0 e0       	ldi	r31, 0x00	; 0
    2c6a:	80 81       	ld	r24, Z
    2c6c:	8d 7f       	andi	r24, 0xFD	; 253
    2c6e:	80 83       	st	Z, r24
			data_ = getPacketData();
    2c70:	ce 01       	movw	r24, r28
    2c72:	0e 94 98 15 	call	0x2b30	; 0x2b30 <_ZN12X10_modtager13getPacketDataEv>
    2c76:	8c 87       	std	Y+12, r24	; 0x0c
			packetValidity_ = validatePackets();
    2c78:	ce 01       	movw	r24, r28
    2c7a:	0e 94 c0 15 	call	0x2b80	; 0x2b80 <_ZN12X10_modtager15validatePacketsEv>
    2c7e:	8d 87       	std	Y+13, r24	; 0x0d
			dataReady_ = true;
    2c80:	81 e0       	ldi	r24, 0x01	; 1
    2c82:	8e 87       	std	Y+14, r24	; 0x0e
		}
	}
	else{}
		
	if(notReciving_)
    2c84:	8f 81       	ldd	r24, Y+7	; 0x07
    2c86:	88 23       	and	r24, r24
    2c88:	91 f0       	breq	.+36     	; 0x2cae <_ZN12X10_modtager11receiveDataEh+0xde>
	{
		PORTB |= (1 << 7);
    2c8a:	2f 9a       	sbi	0x05, 7	; 5
		
		if(checkForZero(data))
    2c8c:	ce 01       	movw	r24, r28
    2c8e:	61 2f       	mov	r22, r17
    2c90:	0e 94 bb 15 	call	0x2b76	; 0x2b76 <_ZN12X10_modtager12checkForZeroEh>
    2c94:	88 23       	and	r24, r24
    2c96:	31 f0       	breq	.+12     	; 0x2ca4 <_ZN12X10_modtager11receiveDataEh+0xd4>
			++numberOfZero_;
    2c98:	8f 85       	ldd	r24, Y+15	; 0x0f
    2c9a:	8f 5f       	subi	r24, 0xFF	; 255
    2c9c:	8f 87       	std	Y+15, r24	; 0x0f
		else
			numberOfZero_ = 0;
		
		if(numberOfZero_ >= 6)
    2c9e:	86 30       	cpi	r24, 0x06	; 6
    2ca0:	18 f4       	brcc	.+6      	; 0x2ca8 <_ZN12X10_modtager11receiveDataEh+0xd8>
    2ca2:	05 c0       	rjmp	.+10     	; 0x2cae <_ZN12X10_modtager11receiveDataEh+0xde>
		PORTB |= (1 << 7);
		
		if(checkForZero(data))
			++numberOfZero_;
		else
			numberOfZero_ = 0;
    2ca4:	1f 86       	std	Y+15, r1	; 0x0f
    2ca6:	03 c0       	rjmp	.+6      	; 0x2cae <_ZN12X10_modtager11receiveDataEh+0xde>
		
		if(numberOfZero_ >= 6)
			resetReceiver();
    2ca8:	ce 01       	movw	r24, r28
    2caa:	0e 94 05 15 	call	0x2a0a	; 0x2a0a <_ZN12X10_modtager13resetReceiverEv>
		else{}
			
	}
	else{}	
}
    2cae:	df 91       	pop	r29
    2cb0:	cf 91       	pop	r28
    2cb2:	1f 91       	pop	r17
    2cb4:	08 95       	ret

00002cb6 <_ZN12X10_modtager9fetchDataERhS0_Rb>:
//=============================================================
// METHOD : fetchData
// DESCR. : Extracts the type, data and the validity of the message received
//=============================================================
void X10_modtager::fetchData(unsigned char& type, unsigned char& data, bool& validity)
{
    2cb6:	fc 01       	movw	r30, r24
	if(dataReady_)
    2cb8:	86 85       	ldd	r24, Z+14	; 0x0e
    2cba:	88 23       	and	r24, r24
    2cbc:	69 f0       	breq	.+26     	; 0x2cd8 <_ZN12X10_modtager9fetchDataERhS0_Rb+0x22>
	{
		type = type_;
    2cbe:	82 85       	ldd	r24, Z+10	; 0x0a
    2cc0:	db 01       	movw	r26, r22
    2cc2:	8c 93       	st	X, r24
		data = data_;
    2cc4:	84 85       	ldd	r24, Z+12	; 0x0c
    2cc6:	da 01       	movw	r26, r20
    2cc8:	8c 93       	st	X, r24
		validity = packetValidity_;
    2cca:	85 85       	ldd	r24, Z+13	; 0x0d
    2ccc:	d9 01       	movw	r26, r18
    2cce:	8c 93       	st	X, r24
		resetReceiver();
    2cd0:	cf 01       	movw	r24, r30
    2cd2:	0e 94 05 15 	call	0x2a0a	; 0x2a0a <_ZN12X10_modtager13resetReceiverEv>
    2cd6:	08 95       	ret
	}
	else
	{
		type = 0;
    2cd8:	fb 01       	movw	r30, r22
    2cda:	10 82       	st	Z, r1
		data = 0;
    2cdc:	da 01       	movw	r26, r20
    2cde:	1c 92       	st	X, r1
		validity = 0;
    2ce0:	f9 01       	movw	r30, r18
    2ce2:	10 82       	st	Z, r1
    2ce4:	08 95       	ret

00002ce6 <_ZN12X10_modtager11isDataReadyEv>:
// DESCR. : Returns true if there currently is data ready to be read
//=============================================================
bool X10_modtager::isDataReady()
{
	return dataReady_;
}
    2ce6:	fc 01       	movw	r30, r24
    2ce8:	86 85       	ldd	r24, Z+14	; 0x0e
    2cea:	08 95       	ret

00002cec <_ZN12X10_modtager10startInputEv>:
// METHOD : startInput
// DESCR. : Start the timer for cheeking the input for a fixed time
//=============================================================
void X10_modtager::startInput()
{
	TCCR2B |= (1 << CS22);
    2cec:	e1 eb       	ldi	r30, 0xB1	; 177
    2cee:	f0 e0       	ldi	r31, 0x00	; 0
    2cf0:	80 81       	ld	r24, Z
    2cf2:	84 60       	ori	r24, 0x04	; 4
    2cf4:	80 83       	st	Z, r24
}
    2cf6:	08 95       	ret

00002cf8 <_ZN12X10_modtager13inputCompleteEv>:
// METHOD : inputComplete
// DESCR. : Stops the timer and reset overflow flag in TIFR2
//=============================================================
void X10_modtager::inputComplete()
{
	TCCR2B &= ~(1 << CS22);
    2cf8:	e1 eb       	ldi	r30, 0xB1	; 177
    2cfa:	f0 e0       	ldi	r31, 0x00	; 0
    2cfc:	80 81       	ld	r24, Z
    2cfe:	8b 7f       	andi	r24, 0xFB	; 251
    2d00:	80 83       	st	Z, r24
	TCCR2B &= ~(1 << CS12);
    2d02:	80 81       	ld	r24, Z
    2d04:	8b 7f       	andi	r24, 0xFB	; 251
    2d06:	80 83       	st	Z, r24
	TCCR2B &= ~(1 << CS02);
    2d08:	80 81       	ld	r24, Z
    2d0a:	8b 7f       	andi	r24, 0xFB	; 251
    2d0c:	80 83       	st	Z, r24
	TCNT2 = 0;
    2d0e:	10 92 b2 00 	sts	0x00B2, r1
	TIFR2 |= (1 << TOV2);
    2d12:	b8 9a       	sbi	0x17, 0	; 23
}
    2d14:	08 95       	ret

00002d16 <_ZN12X10_modtager11receiveHighEv>:
//=============================================================
// METHOD : 
// DESCR. : 
//=============================================================
void X10_modtager::receiveHigh()
{
    2d16:	0f 93       	push	r16
    2d18:	1f 93       	push	r17
    2d1a:	cf 93       	push	r28
    2d1c:	df 93       	push	r29
    2d1e:	ec 01       	movw	r28, r24
	startInput();
    2d20:	0e 94 76 16 	call	0x2cec	; 0x2cec <_ZN12X10_modtager10startInputEv>
	bool recived = false;
    2d24:	80 e0       	ldi	r24, 0x00	; 0
	while((TIFR2 & (1 << TOV2)) == 0 && recived == false)
	{
		
		if((PINH & (1 << PINH6)) != 0)
    2d26:	00 e0       	ldi	r16, 0x00	; 0
    2d28:	11 e0       	ldi	r17, 0x01	; 1
//=============================================================
void X10_modtager::receiveHigh()
{
	startInput();
	bool recived = false;
	while((TIFR2 & (1 << TOV2)) == 0 && recived == false)
    2d2a:	05 c0       	rjmp	.+10     	; 0x2d36 <_ZN12X10_modtager11receiveHighEv+0x20>
	{
		
		if((PINH & (1 << PINH6)) != 0)
		{
			recived = true;
			receiveData(1);
    2d2c:	ce 01       	movw	r24, r28
    2d2e:	61 e0       	ldi	r22, 0x01	; 1
    2d30:	0e 94 e8 15 	call	0x2bd0	; 0x2bd0 <_ZN12X10_modtager11receiveDataEh>
	while((TIFR2 & (1 << TOV2)) == 0 && recived == false)
	{
		
		if((PINH & (1 << PINH6)) != 0)
		{
			recived = true;
    2d34:	81 e0       	ldi	r24, 0x01	; 1
//=============================================================
void X10_modtager::receiveHigh()
{
	startInput();
	bool recived = false;
	while((TIFR2 & (1 << TOV2)) == 0 && recived == false)
    2d36:	b8 99       	sbic	0x17, 0	; 23
    2d38:	07 c0       	rjmp	.+14     	; 0x2d48 <_ZN12X10_modtager11receiveHighEv+0x32>
    2d3a:	88 23       	and	r24, r24
    2d3c:	29 f4       	brne	.+10     	; 0x2d48 <_ZN12X10_modtager11receiveHighEv+0x32>
	{
		
		if((PINH & (1 << PINH6)) != 0)
    2d3e:	f8 01       	movw	r30, r16
    2d40:	90 81       	ld	r25, Z
    2d42:	96 ff       	sbrs	r25, 6
    2d44:	f8 cf       	rjmp	.-16     	; 0x2d36 <_ZN12X10_modtager11receiveHighEv+0x20>
    2d46:	f2 cf       	rjmp	.-28     	; 0x2d2c <_ZN12X10_modtager11receiveHighEv+0x16>
		{
			recived = true;
			receiveData(1);
		}
	}
	inputComplete();
    2d48:	ce 01       	movw	r24, r28
    2d4a:	0e 94 7c 16 	call	0x2cf8	; 0x2cf8 <_ZN12X10_modtager13inputCompleteEv>
}
    2d4e:	df 91       	pop	r29
    2d50:	cf 91       	pop	r28
    2d52:	1f 91       	pop	r17
    2d54:	0f 91       	pop	r16
    2d56:	08 95       	ret

00002d58 <_ZN12X10_modtager10receiveLowEv>:
//=============================================================
// METHOD :
// DESCR. :
//=============================================================
void X10_modtager::receiveLow()
{
    2d58:	ff 92       	push	r15
    2d5a:	0f 93       	push	r16
    2d5c:	1f 93       	push	r17
    2d5e:	cf 93       	push	r28
    2d60:	df 93       	push	r29
    2d62:	ec 01       	movw	r28, r24
	startInput();
    2d64:	0e 94 76 16 	call	0x2cec	; 0x2cec <_ZN12X10_modtager10startInputEv>
	bool recived = false;
    2d68:	80 e0       	ldi	r24, 0x00	; 0
	while((TIFR2 & (1 << TOV2)) == 0 && recived == false)
	{
		if((PINH & (1 << PINH6)) != 0)
    2d6a:	00 e0       	ldi	r16, 0x00	; 0
    2d6c:	11 e0       	ldi	r17, 0x01	; 1
		{
			recived = true;
    2d6e:	ff 24       	eor	r15, r15
    2d70:	f3 94       	inc	r15
//=============================================================
void X10_modtager::receiveLow()
{
	startInput();
	bool recived = false;
	while((TIFR2 & (1 << TOV2)) == 0 && recived == false)
    2d72:	05 c0       	rjmp	.+10     	; 0x2d7e <_ZN12X10_modtager10receiveLowEv+0x26>
	{
		if((PINH & (1 << PINH6)) != 0)
		{
			recived = true;
			receiveData(0);
    2d74:	ce 01       	movw	r24, r28
    2d76:	60 e0       	ldi	r22, 0x00	; 0
    2d78:	0e 94 e8 15 	call	0x2bd0	; 0x2bd0 <_ZN12X10_modtager11receiveDataEh>
	bool recived = false;
	while((TIFR2 & (1 << TOV2)) == 0 && recived == false)
	{
		if((PINH & (1 << PINH6)) != 0)
		{
			recived = true;
    2d7c:	8f 2d       	mov	r24, r15
//=============================================================
void X10_modtager::receiveLow()
{
	startInput();
	bool recived = false;
	while((TIFR2 & (1 << TOV2)) == 0 && recived == false)
    2d7e:	b8 99       	sbic	0x17, 0	; 23
    2d80:	07 c0       	rjmp	.+14     	; 0x2d90 <_ZN12X10_modtager10receiveLowEv+0x38>
    2d82:	88 23       	and	r24, r24
    2d84:	29 f4       	brne	.+10     	; 0x2d90 <_ZN12X10_modtager10receiveLowEv+0x38>
	{
		if((PINH & (1 << PINH6)) != 0)
    2d86:	f8 01       	movw	r30, r16
    2d88:	90 81       	ld	r25, Z
    2d8a:	96 ff       	sbrs	r25, 6
    2d8c:	f8 cf       	rjmp	.-16     	; 0x2d7e <_ZN12X10_modtager10receiveLowEv+0x26>
    2d8e:	f2 cf       	rjmp	.-28     	; 0x2d74 <_ZN12X10_modtager10receiveLowEv+0x1c>
		{
			recived = true;
			receiveData(0);
		}
	}
	inputComplete();
    2d90:	ce 01       	movw	r24, r28
    2d92:	0e 94 7c 16 	call	0x2cf8	; 0x2cf8 <_ZN12X10_modtager13inputCompleteEv>
    2d96:	df 91       	pop	r29
    2d98:	cf 91       	pop	r28
    2d9a:	1f 91       	pop	r17
    2d9c:	0f 91       	pop	r16
    2d9e:	ff 90       	pop	r15
    2da0:	08 95       	ret

00002da2 <_ZN10X10_senderC1Ev>:

//=============================================================
// METHOD : Default constructor
// DESCR. :
//=============================================================
X10_sender::X10_sender()
    2da2:	fc 01       	movw	r30, r24
{
	outGoingPacket1_ = 0;
    2da4:	11 82       	std	Z+1, r1	; 0x01
    2da6:	10 82       	st	Z, r1
	outGoingPacket2_ = 0;
    2da8:	13 82       	std	Z+3, r1	; 0x03
    2daa:	12 82       	std	Z+2, r1	; 0x02
	currentPacket_ = 0;
    2dac:	16 82       	std	Z+6, r1	; 0x06
	currentPos1_ = 0;
    2dae:	14 82       	std	Z+4, r1	; 0x04
	currentPos2_ = 0;
    2db0:	15 82       	std	Z+5, r1	; 0x05
	sendMode_ = 0;
    2db2:	17 82       	std	Z+7, r1	; 0x07
	startBit_ = 0b1110;
    2db4:	8e e0       	ldi	r24, 0x0E	; 14
    2db6:	80 87       	std	Z+8, r24	; 0x08
	sendMode_ = false;
	
	
	// MODE 8: PWM freq og fase corret
	TCCR1B |= (1 << WGM13);
    2db8:	e1 e8       	ldi	r30, 0x81	; 129
    2dba:	f0 e0       	ldi	r31, 0x00	; 0
    2dbc:	80 81       	ld	r24, Z
    2dbe:	80 61       	ori	r24, 0x10	; 16
    2dc0:	80 83       	st	Z, r24
	TCCR1B &= ~(1 << WGM12);
    2dc2:	80 81       	ld	r24, Z
    2dc4:	87 7f       	andi	r24, 0xF7	; 247
    2dc6:	80 83       	st	Z, r24
	TCCR1A &= ~(1 << WGM11);
    2dc8:	a0 e8       	ldi	r26, 0x80	; 128
    2dca:	b0 e0       	ldi	r27, 0x00	; 0
    2dcc:	8c 91       	ld	r24, X
    2dce:	8d 7f       	andi	r24, 0xFD	; 253
    2dd0:	8c 93       	st	X, r24
	TCCR1A &= ~(1 << WGM10);
    2dd2:	8c 91       	ld	r24, X
    2dd4:	8e 7f       	andi	r24, 0xFE	; 254
    2dd6:	8c 93       	st	X, r24
	
	// No prescaler
	TCCR1B &= ~(1 << CS12);
    2dd8:	80 81       	ld	r24, Z
    2dda:	8b 7f       	andi	r24, 0xFB	; 251
    2ddc:	80 83       	st	Z, r24
	TCCR1B &= ~(1 << CS11);
    2dde:	80 81       	ld	r24, Z
    2de0:	8d 7f       	andi	r24, 0xFD	; 253
    2de2:	80 83       	st	Z, r24
	TCCR1B |= (1 << CS10);
    2de4:	80 81       	ld	r24, Z
    2de6:	81 60       	ori	r24, 0x01	; 1
    2de8:	80 83       	st	Z, r24
	
	// Set TOP, for rigtig frekvens (120kHz)
	ICR1 = 67;
    2dea:	83 e4       	ldi	r24, 0x43	; 67
    2dec:	90 e0       	ldi	r25, 0x00	; 0
    2dee:	90 93 87 00 	sts	0x0087, r25
    2df2:	80 93 86 00 	sts	0x0086, r24

	// Set det til A systemmet, PB5
	TCCR1A |= (1 << COM1A1);
    2df6:	8c 91       	ld	r24, X
    2df8:	80 68       	ori	r24, 0x80	; 128
    2dfa:	8c 93       	st	X, r24
	TCCR1A &= ~(1 << COM1A0);
    2dfc:	8c 91       	ld	r24, X
    2dfe:	8f 7b       	andi	r24, 0xBF	; 191
    2e00:	8c 93       	st	X, r24
	
	// duty 0%
	OCR1A = 0;
    2e02:	10 92 89 00 	sts	0x0089, r1
    2e06:	10 92 88 00 	sts	0x0088, r1
	
	// PB5 Output
	DDRB |= (1 << 5);
    2e0a:	25 9a       	sbi	0x04, 5	; 4
	
	
	//MODE 0: Normal tmer
	TCCR0B &= ~(1 << WGM02);
    2e0c:	85 b5       	in	r24, 0x25	; 37
    2e0e:	87 7f       	andi	r24, 0xF7	; 247
    2e10:	85 bd       	out	0x25, r24	; 37
	TCCR0A &= ~(1 << WGM01);
    2e12:	84 b5       	in	r24, 0x24	; 36
    2e14:	8d 7f       	andi	r24, 0xFD	; 253
    2e16:	84 bd       	out	0x24, r24	; 36
	TCCR0A &= ~(1 << WGM00);
    2e18:	84 b5       	in	r24, 0x24	; 36
    2e1a:	8e 7f       	andi	r24, 0xFE	; 254
    2e1c:	84 bd       	out	0x24, r24	; 36
	
	//no timer
	TCCR0B &= ~(1 << CS02);
    2e1e:	85 b5       	in	r24, 0x25	; 37
    2e20:	8b 7f       	andi	r24, 0xFB	; 251
    2e22:	85 bd       	out	0x25, r24	; 37
	TCCR0B &= ~(1 << CS01);
    2e24:	85 b5       	in	r24, 0x25	; 37
    2e26:	8d 7f       	andi	r24, 0xFD	; 253
    2e28:	85 bd       	out	0x25, r24	; 37
	TCCR0B &= ~(1 << CS00);
    2e2a:	85 b5       	in	r24, 0x25	; 37
    2e2c:	8e 7f       	andi	r24, 0xFE	; 254
    2e2e:	85 bd       	out	0x25, r24	; 37
	
	// interupt
	TIMSK0 |= (1 << TOIE0);
    2e30:	ee e6       	ldi	r30, 0x6E	; 110
    2e32:	f0 e0       	ldi	r31, 0x00	; 0
    2e34:	80 81       	ld	r24, Z
    2e36:	81 60       	ori	r24, 0x01	; 1
    2e38:	80 83       	st	Z, r24
	TCNT0 = 6;
    2e3a:	86 e0       	ldi	r24, 0x06	; 6
    2e3c:	86 bd       	out	0x26, r24	; 38
}
    2e3e:	08 95       	ret

00002e40 <_ZN10X10_sender8start120Ev>:
// DESCR. : produce a 120 kHz PWM signal and starts a timer to stop it
//=============================================================
void X10_sender::start120()
{
	// duty 50%
	OCR1A = 33;
    2e40:	81 e2       	ldi	r24, 0x21	; 33
    2e42:	90 e0       	ldi	r25, 0x00	; 0
    2e44:	90 93 89 00 	sts	0x0089, r25
    2e48:	80 93 88 00 	sts	0x0088, r24
		
	//64 prescaler
	TCCR0B &= ~(1 << CS02);
    2e4c:	85 b5       	in	r24, 0x25	; 37
    2e4e:	8b 7f       	andi	r24, 0xFB	; 251
    2e50:	85 bd       	out	0x25, r24	; 37
	TCCR0B |= (1 << CS01);
    2e52:	85 b5       	in	r24, 0x25	; 37
    2e54:	82 60       	ori	r24, 0x02	; 2
    2e56:	85 bd       	out	0x25, r24	; 37
	TCCR0B |= (1 << CS00);
    2e58:	85 b5       	in	r24, 0x25	; 37
    2e5a:	81 60       	ori	r24, 0x01	; 1
    2e5c:	85 bd       	out	0x25, r24	; 37
}
    2e5e:	08 95       	ret

00002e60 <_ZN10X10_sender7stop120Ev>:
// METHOD : stop120
// DESCR. : stops the 120 kHz PWM and stops the timer
//=============================================================
void X10_sender::stop120()
{
	TCCR0B &= ~(1 << CS02);
    2e60:	85 b5       	in	r24, 0x25	; 37
    2e62:	8b 7f       	andi	r24, 0xFB	; 251
    2e64:	85 bd       	out	0x25, r24	; 37
	TCCR0B &= ~(1 << CS01);
    2e66:	85 b5       	in	r24, 0x25	; 37
    2e68:	8d 7f       	andi	r24, 0xFD	; 253
    2e6a:	85 bd       	out	0x25, r24	; 37
	TCCR0B &= ~(1 << CS00);
    2e6c:	85 b5       	in	r24, 0x25	; 37
    2e6e:	8e 7f       	andi	r24, 0xFE	; 254
    2e70:	85 bd       	out	0x25, r24	; 37
	TCNT0 = 6;
    2e72:	86 e0       	ldi	r24, 0x06	; 6
    2e74:	86 bd       	out	0x26, r24	; 38
	
	OCR1A = 0;	
    2e76:	10 92 89 00 	sts	0x0089, r1
    2e7a:	10 92 88 00 	sts	0x0088, r1
}
    2e7e:	08 95       	ret

00002e80 <_ZN10X10_sender11setSendModeEb>:
// METHOD : setSendMode
// DESCR. : sets the send mode to true or false
//=============================================================
void X10_sender::setSendMode(bool newSendMode)
{
	sendMode_ = newSendMode;
    2e80:	fc 01       	movw	r30, r24
    2e82:	67 83       	std	Z+7, r22	; 0x07
}
    2e84:	08 95       	ret

00002e86 <_ZN10X10_sender11getSendModeEv>:
// DESCR. : retrive the current send mode
//=============================================================
bool X10_sender::getSendMode()
{
	return sendMode_;
}
    2e86:	fc 01       	movw	r30, r24
    2e88:	87 81       	ldd	r24, Z+7	; 0x07
    2e8a:	08 95       	ret

00002e8c <_ZN10X10_sender10getPacket1Ev>:
//=============================================================
// METHOD : getPacket1
// DESCR. : retrieve packet 1
//=============================================================
unsigned int X10_sender::getPacket1()
{
    2e8c:	fc 01       	movw	r30, r24
	return outGoingPacket1_;
}
    2e8e:	80 81       	ld	r24, Z
    2e90:	91 81       	ldd	r25, Z+1	; 0x01
    2e92:	08 95       	ret

00002e94 <_ZN10X10_sender10getPacket2Ev>:
//=============================================================
// METHOD : getPacket2
// DESCR. : retrieve packet 1
//=============================================================
unsigned int X10_sender::getPacket2()
{
    2e94:	fc 01       	movw	r30, r24
	return outGoingPacket2_;
}
    2e96:	82 81       	ldd	r24, Z+2	; 0x02
    2e98:	93 81       	ldd	r25, Z+3	; 0x03
    2e9a:	08 95       	ret

00002e9c <_ZN10X10_sender16getCurrentPacketEv>:
// DESCR. : retrieve what packet part is being send
//=============================================================
unsigned char X10_sender::getCurrentPacket()
{
	return currentPacket_;
}
    2e9c:	fc 01       	movw	r30, r24
    2e9e:	86 81       	ldd	r24, Z+6	; 0x06
    2ea0:	08 95       	ret

00002ea2 <_ZN10X10_sender16setCurrentPacketEh>:
// METHOD : setCurrentPacket
// DESCR. : changes what packet part to send
//=============================================================
void X10_sender::setCurrentPacket(unsigned char packet)
{
	currentPacket_ = packet;
    2ea2:	fc 01       	movw	r30, r24
    2ea4:	66 83       	std	Z+6, r22	; 0x06
}
    2ea6:	08 95       	ret

00002ea8 <_ZN10X10_sender20decrementCurrentPos1Ev>:
//=============================================================
// METHOD : decrementCurrentPos1
// DESCR. : decrement the current pos for the current bit to send on packet 1
//=============================================================
void X10_sender::decrementCurrentPos1()
{
    2ea8:	fc 01       	movw	r30, r24
	--currentPos1_;
    2eaa:	84 81       	ldd	r24, Z+4	; 0x04
    2eac:	81 50       	subi	r24, 0x01	; 1
    2eae:	84 83       	std	Z+4, r24	; 0x04
}
    2eb0:	08 95       	ret

00002eb2 <_ZN10X10_sender14getCurrentPos1Ev>:
// DESCR. : retrieve the current pos of the bit to send
//=============================================================
unsigned char X10_sender::getCurrentPos1()
{
	return currentPos1_;
}
    2eb2:	fc 01       	movw	r30, r24
    2eb4:	84 81       	ldd	r24, Z+4	; 0x04
    2eb6:	08 95       	ret

00002eb8 <_ZN10X10_sender20decrementCurrentPos2Ev>:
//=============================================================
// METHOD : decrementCurrentPos2
// DESCR. : decrement the current pos for the current bit to send on packet 2
//=============================================================
void X10_sender::decrementCurrentPos2()
{
    2eb8:	fc 01       	movw	r30, r24
	--currentPos2_;
    2eba:	85 81       	ldd	r24, Z+5	; 0x05
    2ebc:	81 50       	subi	r24, 0x01	; 1
    2ebe:	85 83       	std	Z+5, r24	; 0x05
}
    2ec0:	08 95       	ret

00002ec2 <_ZN10X10_sender14getCurrentPos2Ev>:
// DESCR. : retrieve the current pos of the bit to send
//=============================================================
unsigned char X10_sender::getCurrentPos2()
{
	return currentPos2_;
}
    2ec2:	fc 01       	movw	r30, r24
    2ec4:	85 81       	ldd	r24, Z+5	; 0x05
    2ec6:	08 95       	ret

00002ec8 <_ZN10X10_sender14generateParityEjj>:
//=============================================================
// METHOD : generateParity
// DESCR. : generates a parity bit for the whole packet
//=============================================================
unsigned char X10_sender::generateParity(unsigned int packet1, unsigned int packet2)
{
    2ec8:	fa 01       	movw	r30, r20
    2eca:	20 e0       	ldi	r18, 0x00	; 0
    2ecc:	30 e0       	ldi	r19, 0x00	; 0
	unsigned char parity = 0;
    2ece:	80 e0       	ldi	r24, 0x00	; 0
	
	for (unsigned char i = 0; i < 16; i++)
	{
		parity = parity ^ ((packet1 >> i) & 1);
    2ed0:	ab 01       	movw	r20, r22
    2ed2:	02 2e       	mov	r0, r18
    2ed4:	02 c0       	rjmp	.+4      	; 0x2eda <_ZN10X10_sender14generateParityEjj+0x12>
    2ed6:	56 95       	lsr	r21
    2ed8:	47 95       	ror	r20
    2eda:	0a 94       	dec	r0
    2edc:	e2 f7       	brpl	.-8      	; 0x2ed6 <_ZN10X10_sender14generateParityEjj+0xe>
    2ede:	41 70       	andi	r20, 0x01	; 1
    2ee0:	84 27       	eor	r24, r20
    2ee2:	2f 5f       	subi	r18, 0xFF	; 255
    2ee4:	3f 4f       	sbci	r19, 0xFF	; 255
//=============================================================
unsigned char X10_sender::generateParity(unsigned int packet1, unsigned int packet2)
{
	unsigned char parity = 0;
	
	for (unsigned char i = 0; i < 16; i++)
    2ee6:	20 31       	cpi	r18, 0x10	; 16
    2ee8:	31 05       	cpc	r19, r1
    2eea:	91 f7       	brne	.-28     	; 0x2ed0 <_ZN10X10_sender14generateParityEjj+0x8>
    2eec:	20 e0       	ldi	r18, 0x00	; 0
    2eee:	30 e0       	ldi	r19, 0x00	; 0
		parity = parity ^ ((packet1 >> i) & 1);
	}
	
	for (unsigned char i = 0; i < 4; i++)
	{
		parity = parity ^ ((packet2 >> i) & 1);
    2ef0:	af 01       	movw	r20, r30
    2ef2:	02 2e       	mov	r0, r18
    2ef4:	02 c0       	rjmp	.+4      	; 0x2efa <_ZN10X10_sender14generateParityEjj+0x32>
    2ef6:	56 95       	lsr	r21
    2ef8:	47 95       	ror	r20
    2efa:	0a 94       	dec	r0
    2efc:	e2 f7       	brpl	.-8      	; 0x2ef6 <_ZN10X10_sender14generateParityEjj+0x2e>
    2efe:	41 70       	andi	r20, 0x01	; 1
    2f00:	84 27       	eor	r24, r20
    2f02:	2f 5f       	subi	r18, 0xFF	; 255
    2f04:	3f 4f       	sbci	r19, 0xFF	; 255
	for (unsigned char i = 0; i < 16; i++)
	{
		parity = parity ^ ((packet1 >> i) & 1);
	}
	
	for (unsigned char i = 0; i < 4; i++)
    2f06:	24 30       	cpi	r18, 0x04	; 4
    2f08:	31 05       	cpc	r19, r1
    2f0a:	91 f7       	brne	.-28     	; 0x2ef0 <_ZN10X10_sender14generateParityEjj+0x28>
		parity = parity ^ ((packet2 >> i) & 1);
	}
	
	return parity;
		
}
    2f0c:	08 95       	ret

00002f0e <_ZN10X10_sender11sendCommandEhhhh>:
//=============================================================
// METHOD : sendCommand
// DESCR. : Handles compiling a packet to send, and sets the unit to send the packet
//=============================================================
void X10_sender::sendCommand(unsigned char houseCode, unsigned char adress, unsigned char type, unsigned char data)
{
    2f0e:	ef 92       	push	r14
    2f10:	ff 92       	push	r15
    2f12:	0f 93       	push	r16
    2f14:	1f 93       	push	r17
    2f16:	cf 93       	push	r28
    2f18:	df 93       	push	r29
    2f1a:	00 d0       	rcall	.+0      	; 0x2f1c <_ZN10X10_sender11sendCommandEhhhh+0xe>
    2f1c:	0f 92       	push	r0
    2f1e:	cd b7       	in	r28, 0x3d	; 61
    2f20:	de b7       	in	r29, 0x3e	; 62
    2f22:	7c 01       	movw	r14, r24
    2f24:	34 2f       	mov	r19, r20
	volatile unsigned int tempPacketData1 = 0;
    2f26:	1c 82       	std	Y+4, r1	; 0x04
    2f28:	1b 82       	std	Y+3, r1	; 0x03
	volatile unsigned int tempPacketData2 = 0;
    2f2a:	1a 82       	std	Y+2, r1	; 0x02
    2f2c:	19 82       	std	Y+1, r1	; 0x01
	unsigned char tempPacketSize = 0;
	
	
	tempPacketData1 |= startBit_;
    2f2e:	4b 81       	ldd	r20, Y+3	; 0x03
    2f30:	5c 81       	ldd	r21, Y+4	; 0x04
    2f32:	dc 01       	movw	r26, r24
    2f34:	18 96       	adiw	r26, 0x08	; 8
    2f36:	ec 91       	ld	r30, X
    2f38:	18 97       	sbiw	r26, 0x08	; 8
    2f3a:	f0 e0       	ldi	r31, 0x00	; 0
    2f3c:	4e 2b       	or	r20, r30
    2f3e:	5f 2b       	or	r21, r31
    2f40:	5c 83       	std	Y+4, r21	; 0x04
    2f42:	4b 83       	std	Y+3, r20	; 0x03
	
	tempPacketData1 = tempPacketData1 << 4;
    2f44:	8b 81       	ldd	r24, Y+3	; 0x03
    2f46:	9c 81       	ldd	r25, Y+4	; 0x04
    2f48:	82 95       	swap	r24
    2f4a:	92 95       	swap	r25
    2f4c:	90 7f       	andi	r25, 0xF0	; 240
    2f4e:	98 27       	eor	r25, r24
    2f50:	80 7f       	andi	r24, 0xF0	; 240
    2f52:	98 27       	eor	r25, r24
    2f54:	9c 83       	std	Y+4, r25	; 0x04
    2f56:	8b 83       	std	Y+3, r24	; 0x03
	tempPacketData1 |= houseCode;
    2f58:	8b 81       	ldd	r24, Y+3	; 0x03
    2f5a:	9c 81       	ldd	r25, Y+4	; 0x04
    2f5c:	70 e0       	ldi	r23, 0x00	; 0
    2f5e:	86 2b       	or	r24, r22
    2f60:	97 2b       	or	r25, r23
    2f62:	9c 83       	std	Y+4, r25	; 0x04
    2f64:	8b 83       	std	Y+3, r24	; 0x03
	
	tempPacketData1 = tempPacketData1 << 8;
    2f66:	8b 81       	ldd	r24, Y+3	; 0x03
    2f68:	9c 81       	ldd	r25, Y+4	; 0x04
    2f6a:	98 2f       	mov	r25, r24
    2f6c:	88 27       	eor	r24, r24
    2f6e:	9c 83       	std	Y+4, r25	; 0x04
    2f70:	8b 83       	std	Y+3, r24	; 0x03
	tempPacketData1 |= adress;
    2f72:	8b 81       	ldd	r24, Y+3	; 0x03
    2f74:	9c 81       	ldd	r25, Y+4	; 0x04
    2f76:	43 2f       	mov	r20, r19
    2f78:	50 e0       	ldi	r21, 0x00	; 0
    2f7a:	84 2b       	or	r24, r20
    2f7c:	95 2b       	or	r25, r21
    2f7e:	9c 83       	std	Y+4, r25	; 0x04
    2f80:	8b 83       	std	Y+3, r24	; 0x03
	
	tempPacketData2 |= type;
    2f82:	89 81       	ldd	r24, Y+1	; 0x01
    2f84:	9a 81       	ldd	r25, Y+2	; 0x02
    2f86:	42 2f       	mov	r20, r18
    2f88:	50 e0       	ldi	r21, 0x00	; 0
    2f8a:	84 2b       	or	r24, r20
    2f8c:	95 2b       	or	r25, r21
    2f8e:	9a 83       	std	Y+2, r25	; 0x02
    2f90:	89 83       	std	Y+1, r24	; 0x01
	
	if(type == 0b000 || type == 0b011 || type == 0b100)
    2f92:	22 23       	and	r18, r18
    2f94:	61 f1       	breq	.+88     	; 0x2fee <_ZN10X10_sender11sendCommandEhhhh+0xe0>
    2f96:	23 30       	cpi	r18, 0x03	; 3
    2f98:	61 f1       	breq	.+88     	; 0x2ff2 <_ZN10X10_sender11sendCommandEhhhh+0xe4>
    2f9a:	24 30       	cpi	r18, 0x04	; 4
    2f9c:	61 f1       	breq	.+88     	; 0x2ff6 <_ZN10X10_sender11sendCommandEhhhh+0xe8>
	{
		tempPacketSize = 9;
	}
	
	else if(type == 0b001 || type == 0b010)
    2f9e:	82 2f       	mov	r24, r18
    2fa0:	81 50       	subi	r24, 0x01	; 1
    2fa2:	82 30       	cpi	r24, 0x02	; 2
    2fa4:	78 f4       	brcc	.+30     	; 0x2fc4 <_ZN10X10_sender11sendCommandEhhhh+0xb6>
	{
		tempPacketData2 = tempPacketData2 << 1;
    2fa6:	89 81       	ldd	r24, Y+1	; 0x01
    2fa8:	9a 81       	ldd	r25, Y+2	; 0x02
    2faa:	88 0f       	add	r24, r24
    2fac:	99 1f       	adc	r25, r25
    2fae:	9a 83       	std	Y+2, r25	; 0x02
    2fb0:	89 83       	std	Y+1, r24	; 0x01
		tempPacketData2 |= data;
    2fb2:	89 81       	ldd	r24, Y+1	; 0x01
    2fb4:	9a 81       	ldd	r25, Y+2	; 0x02
    2fb6:	10 e0       	ldi	r17, 0x00	; 0
    2fb8:	08 2b       	or	r16, r24
    2fba:	19 2b       	or	r17, r25
    2fbc:	1a 83       	std	Y+2, r17	; 0x02
    2fbe:	09 83       	std	Y+1, r16	; 0x01
				
		tempPacketSize = 10;
    2fc0:	0a e0       	ldi	r16, 0x0A	; 10
    2fc2:	1a c0       	rjmp	.+52     	; 0x2ff8 <_ZN10X10_sender11sendCommandEhhhh+0xea>
	}
	
	else if(type == 0b110 || type == 0b101)
    2fc4:	25 50       	subi	r18, 0x05	; 5
    2fc6:	22 30       	cpi	r18, 0x02	; 2
    2fc8:	08 f0       	brcs	.+2      	; 0x2fcc <_ZN10X10_sender11sendCommandEhhhh+0xbe>
    2fca:	46 c0       	rjmp	.+140    	; 0x3058 <_ZN10X10_sender11sendCommandEhhhh+0x14a>
	{
		tempPacketData2 = tempPacketData2 << 2;
    2fcc:	89 81       	ldd	r24, Y+1	; 0x01
    2fce:	9a 81       	ldd	r25, Y+2	; 0x02
    2fd0:	88 0f       	add	r24, r24
    2fd2:	99 1f       	adc	r25, r25
    2fd4:	88 0f       	add	r24, r24
    2fd6:	99 1f       	adc	r25, r25
    2fd8:	9a 83       	std	Y+2, r25	; 0x02
    2fda:	89 83       	std	Y+1, r24	; 0x01
		tempPacketData2 |= data;
    2fdc:	89 81       	ldd	r24, Y+1	; 0x01
    2fde:	9a 81       	ldd	r25, Y+2	; 0x02
    2fe0:	10 e0       	ldi	r17, 0x00	; 0
    2fe2:	08 2b       	or	r16, r24
    2fe4:	19 2b       	or	r17, r25
    2fe6:	1a 83       	std	Y+2, r17	; 0x02
    2fe8:	09 83       	std	Y+1, r16	; 0x01
	
		tempPacketSize = 11;
    2fea:	0b e0       	ldi	r16, 0x0B	; 11
    2fec:	05 c0       	rjmp	.+10     	; 0x2ff8 <_ZN10X10_sender11sendCommandEhhhh+0xea>
	
	tempPacketData2 |= type;
	
	if(type == 0b000 || type == 0b011 || type == 0b100)
	{
		tempPacketSize = 9;
    2fee:	09 e0       	ldi	r16, 0x09	; 9
    2ff0:	03 c0       	rjmp	.+6      	; 0x2ff8 <_ZN10X10_sender11sendCommandEhhhh+0xea>
    2ff2:	09 e0       	ldi	r16, 0x09	; 9
    2ff4:	01 c0       	rjmp	.+2      	; 0x2ff8 <_ZN10X10_sender11sendCommandEhhhh+0xea>
    2ff6:	09 e0       	ldi	r16, 0x09	; 9
	else
	{
		return;
	}
		
	tempPacketData2 = tempPacketData2 << 1;
    2ff8:	89 81       	ldd	r24, Y+1	; 0x01
    2ffa:	9a 81       	ldd	r25, Y+2	; 0x02
    2ffc:	88 0f       	add	r24, r24
    2ffe:	99 1f       	adc	r25, r25
    3000:	9a 83       	std	Y+2, r25	; 0x02
    3002:	89 83       	std	Y+1, r24	; 0x01
	tempPacketData2 |= generateParity(tempPacketData1, tempPacketData2);
    3004:	6b 81       	ldd	r22, Y+3	; 0x03
    3006:	7c 81       	ldd	r23, Y+4	; 0x04
    3008:	49 81       	ldd	r20, Y+1	; 0x01
    300a:	5a 81       	ldd	r21, Y+2	; 0x02
    300c:	c7 01       	movw	r24, r14
    300e:	0e 94 64 17 	call	0x2ec8	; 0x2ec8 <_ZN10X10_sender14generateParityEjj>
    3012:	29 81       	ldd	r18, Y+1	; 0x01
    3014:	3a 81       	ldd	r19, Y+2	; 0x02
    3016:	90 e0       	ldi	r25, 0x00	; 0
    3018:	28 2b       	or	r18, r24
    301a:	39 2b       	or	r19, r25
    301c:	3a 83       	std	Y+2, r19	; 0x02
    301e:	29 83       	std	Y+1, r18	; 0x01
	
	tempPacketData2 = tempPacketData2 << 6;
    3020:	89 81       	ldd	r24, Y+1	; 0x01
    3022:	9a 81       	ldd	r25, Y+2	; 0x02
    3024:	00 24       	eor	r0, r0
    3026:	96 95       	lsr	r25
    3028:	87 95       	ror	r24
    302a:	07 94       	ror	r0
    302c:	96 95       	lsr	r25
    302e:	87 95       	ror	r24
    3030:	07 94       	ror	r0
    3032:	98 2f       	mov	r25, r24
    3034:	80 2d       	mov	r24, r0
    3036:	9a 83       	std	Y+2, r25	; 0x02
    3038:	89 83       	std	Y+1, r24	; 0x01
		
	outGoingPacket1_ = tempPacketData1;
    303a:	8b 81       	ldd	r24, Y+3	; 0x03
    303c:	9c 81       	ldd	r25, Y+4	; 0x04
    303e:	f7 01       	movw	r30, r14
    3040:	91 83       	std	Z+1, r25	; 0x01
    3042:	80 83       	st	Z, r24
	outGoingPacket2_ = tempPacketData2;
    3044:	89 81       	ldd	r24, Y+1	; 0x01
    3046:	9a 81       	ldd	r25, Y+2	; 0x02
    3048:	93 83       	std	Z+3, r25	; 0x03
    304a:	82 83       	std	Z+2, r24	; 0x02
	currentPos1_ = 15;
    304c:	8f e0       	ldi	r24, 0x0F	; 15
    304e:	84 83       	std	Z+4, r24	; 0x04
	currentPos2_ = tempPacketSize;
    3050:	05 83       	std	Z+5, r16	; 0x05
	sendMode_ = true;
    3052:	81 e0       	ldi	r24, 0x01	; 1
    3054:	87 83       	std	Z+7, r24	; 0x07
	currentPacket_ = 1;
    3056:	86 83       	std	Z+6, r24	; 0x06
}
    3058:	0f 90       	pop	r0
    305a:	0f 90       	pop	r0
    305c:	0f 90       	pop	r0
    305e:	0f 90       	pop	r0
    3060:	df 91       	pop	r29
    3062:	cf 91       	pop	r28
    3064:	1f 91       	pop	r17
    3066:	0f 91       	pop	r16
    3068:	ff 90       	pop	r15
    306a:	ef 90       	pop	r14
    306c:	08 95       	ret

0000306e <_ZN10X10_sender8sendHighEv>:
//=============================================================
// METHOD : sendHigh
// DESCR. : 
//=============================================================
void X10_sender::sendHigh()
{
    306e:	0f 93       	push	r16
    3070:	1f 93       	push	r17
    3072:	cf 93       	push	r28
    3074:	df 93       	push	r29
    3076:	ec 01       	movw	r28, r24
	if(getSendMode() == true)
    3078:	0e 94 43 17 	call	0x2e86	; 0x2e86 <_ZN10X10_sender11getSendModeEv>
    307c:	88 23       	and	r24, r24
    307e:	09 f4       	brne	.+2      	; 0x3082 <_ZN10X10_sender8sendHighEv+0x14>
    3080:	52 c0       	rjmp	.+164    	; 0x3126 <_ZN10X10_sender8sendHighEv+0xb8>
	{
		//PORTB |= 1 << 1;
		if(getCurrentPacket() == 1)
    3082:	ce 01       	movw	r24, r28
    3084:	0e 94 4e 17 	call	0x2e9c	; 0x2e9c <_ZN10X10_sender16getCurrentPacketEv>
    3088:	81 30       	cpi	r24, 0x01	; 1
    308a:	21 f5       	brne	.+72     	; 0x30d4 <_ZN10X10_sender8sendHighEv+0x66>
		{
			if(getPacket1() & (1 << getCurrentPos1()))
    308c:	ce 01       	movw	r24, r28
    308e:	0e 94 46 17 	call	0x2e8c	; 0x2e8c <_ZN10X10_sender10getPacket1Ev>
    3092:	8c 01       	movw	r16, r24
    3094:	ce 01       	movw	r24, r28
    3096:	0e 94 59 17 	call	0x2eb2	; 0x2eb2 <_ZN10X10_sender14getCurrentPos1Ev>
    309a:	21 e0       	ldi	r18, 0x01	; 1
    309c:	30 e0       	ldi	r19, 0x00	; 0
    309e:	02 c0       	rjmp	.+4      	; 0x30a4 <_ZN10X10_sender8sendHighEv+0x36>
    30a0:	22 0f       	add	r18, r18
    30a2:	33 1f       	adc	r19, r19
    30a4:	8a 95       	dec	r24
    30a6:	e2 f7       	brpl	.-8      	; 0x30a0 <_ZN10X10_sender8sendHighEv+0x32>
    30a8:	02 23       	and	r16, r18
    30aa:	13 23       	and	r17, r19
    30ac:	01 15       	cp	r16, r1
    30ae:	11 05       	cpc	r17, r1
    30b0:	d1 f1       	breq	.+116    	; 0x3126 <_ZN10X10_sender8sendHighEv+0xb8>
			{
				start120();
    30b2:	ce 01       	movw	r24, r28
    30b4:	0e 94 20 17 	call	0x2e40	; 0x2e40 <_ZN10X10_sender8start120Ev>
				
				if(getCurrentPos1() > 0)
    30b8:	ce 01       	movw	r24, r28
    30ba:	0e 94 59 17 	call	0x2eb2	; 0x2eb2 <_ZN10X10_sender14getCurrentPos1Ev>
    30be:	88 23       	and	r24, r24
    30c0:	21 f0       	breq	.+8      	; 0x30ca <_ZN10X10_sender8sendHighEv+0x5c>
				decrementCurrentPos1();
    30c2:	ce 01       	movw	r24, r28
    30c4:	0e 94 54 17 	call	0x2ea8	; 0x2ea8 <_ZN10X10_sender20decrementCurrentPos1Ev>
    30c8:	2e c0       	rjmp	.+92     	; 0x3126 <_ZN10X10_sender8sendHighEv+0xb8>
				else
				setCurrentPacket(2);
    30ca:	ce 01       	movw	r24, r28
    30cc:	62 e0       	ldi	r22, 0x02	; 2
    30ce:	0e 94 51 17 	call	0x2ea2	; 0x2ea2 <_ZN10X10_sender16setCurrentPacketEh>
    30d2:	29 c0       	rjmp	.+82     	; 0x3126 <_ZN10X10_sender8sendHighEv+0xb8>
				//PORTB |= 1 << 2;
			}
		else{}
	}
	
	else if(getCurrentPacket() == 2)
    30d4:	82 30       	cpi	r24, 0x02	; 2
    30d6:	39 f5       	brne	.+78     	; 0x3126 <_ZN10X10_sender8sendHighEv+0xb8>
	{
		if(getPacket2() & (1 << getCurrentPos2()))
    30d8:	ce 01       	movw	r24, r28
    30da:	0e 94 4a 17 	call	0x2e94	; 0x2e94 <_ZN10X10_sender10getPacket2Ev>
    30de:	8c 01       	movw	r16, r24
    30e0:	ce 01       	movw	r24, r28
    30e2:	0e 94 61 17 	call	0x2ec2	; 0x2ec2 <_ZN10X10_sender14getCurrentPos2Ev>
    30e6:	21 e0       	ldi	r18, 0x01	; 1
    30e8:	30 e0       	ldi	r19, 0x00	; 0
    30ea:	02 c0       	rjmp	.+4      	; 0x30f0 <_ZN10X10_sender8sendHighEv+0x82>
    30ec:	22 0f       	add	r18, r18
    30ee:	33 1f       	adc	r19, r19
    30f0:	8a 95       	dec	r24
    30f2:	e2 f7       	brpl	.-8      	; 0x30ec <_ZN10X10_sender8sendHighEv+0x7e>
    30f4:	02 23       	and	r16, r18
    30f6:	13 23       	and	r17, r19
    30f8:	01 15       	cp	r16, r1
    30fa:	11 05       	cpc	r17, r1
    30fc:	a1 f0       	breq	.+40     	; 0x3126 <_ZN10X10_sender8sendHighEv+0xb8>
		{
			start120();
    30fe:	ce 01       	movw	r24, r28
    3100:	0e 94 20 17 	call	0x2e40	; 0x2e40 <_ZN10X10_sender8start120Ev>
			
			if(getCurrentPos2() > 0)
    3104:	ce 01       	movw	r24, r28
    3106:	0e 94 61 17 	call	0x2ec2	; 0x2ec2 <_ZN10X10_sender14getCurrentPos2Ev>
    310a:	88 23       	and	r24, r24
    310c:	21 f0       	breq	.+8      	; 0x3116 <_ZN10X10_sender8sendHighEv+0xa8>
			{
				decrementCurrentPos2();
    310e:	ce 01       	movw	r24, r28
    3110:	0e 94 5c 17 	call	0x2eb8	; 0x2eb8 <_ZN10X10_sender20decrementCurrentPos2Ev>
    3114:	08 c0       	rjmp	.+16     	; 0x3126 <_ZN10X10_sender8sendHighEv+0xb8>
			}
			else
			{
				setSendMode(false);
    3116:	ce 01       	movw	r24, r28
    3118:	60 e0       	ldi	r22, 0x00	; 0
    311a:	0e 94 40 17 	call	0x2e80	; 0x2e80 <_ZN10X10_sender11setSendModeEb>
				setCurrentPacket(0);
    311e:	ce 01       	movw	r24, r28
    3120:	60 e0       	ldi	r22, 0x00	; 0
    3122:	0e 94 51 17 	call	0x2ea2	; 0x2ea2 <_ZN10X10_sender16setCurrentPacketEh>
		}
	else{}
}
		else{}
	}
}
    3126:	df 91       	pop	r29
    3128:	cf 91       	pop	r28
    312a:	1f 91       	pop	r17
    312c:	0f 91       	pop	r16
    312e:	08 95       	ret

00003130 <_ZN10X10_sender7sendLowEv>:
//=============================================================
// METHOD : sendLow
// DESCR. : 
//=============================================================
void X10_sender::sendLow()
{
    3130:	0f 93       	push	r16
    3132:	1f 93       	push	r17
    3134:	cf 93       	push	r28
    3136:	df 93       	push	r29
    3138:	ec 01       	movw	r28, r24
	//PORTB &= ~(3 << 1);
	if(getSendMode() == true)
    313a:	0e 94 43 17 	call	0x2e86	; 0x2e86 <_ZN10X10_sender11getSendModeEv>
    313e:	88 23       	and	r24, r24
    3140:	09 f4       	brne	.+2      	; 0x3144 <_ZN10X10_sender7sendLowEv+0x14>
    3142:	58 c0       	rjmp	.+176    	; 0x31f4 <_ZN10X10_sender7sendLowEv+0xc4>
	{
		if(getCurrentPacket() == 1)
    3144:	ce 01       	movw	r24, r28
    3146:	0e 94 4e 17 	call	0x2e9c	; 0x2e9c <_ZN10X10_sender16getCurrentPacketEv>
    314a:	81 30       	cpi	r24, 0x01	; 1
    314c:	39 f5       	brne	.+78     	; 0x319c <_ZN10X10_sender7sendLowEv+0x6c>
		{
			//PORTB |= 1 << 3;
			if(~getPacket1() & (1 << getCurrentPos1()))
    314e:	ce 01       	movw	r24, r28
    3150:	0e 94 46 17 	call	0x2e8c	; 0x2e8c <_ZN10X10_sender10getPacket1Ev>
    3154:	8c 01       	movw	r16, r24
    3156:	ce 01       	movw	r24, r28
    3158:	0e 94 59 17 	call	0x2eb2	; 0x2eb2 <_ZN10X10_sender14getCurrentPos1Ev>
    315c:	21 e0       	ldi	r18, 0x01	; 1
    315e:	30 e0       	ldi	r19, 0x00	; 0
    3160:	a9 01       	movw	r20, r18
    3162:	02 c0       	rjmp	.+4      	; 0x3168 <_ZN10X10_sender7sendLowEv+0x38>
    3164:	44 0f       	add	r20, r20
    3166:	55 1f       	adc	r21, r21
    3168:	8a 95       	dec	r24
    316a:	e2 f7       	brpl	.-8      	; 0x3164 <_ZN10X10_sender7sendLowEv+0x34>
    316c:	ca 01       	movw	r24, r20
    316e:	00 95       	com	r16
    3170:	10 95       	com	r17
    3172:	80 23       	and	r24, r16
    3174:	91 23       	and	r25, r17
    3176:	00 97       	sbiw	r24, 0x00	; 0
    3178:	e9 f1       	breq	.+122    	; 0x31f4 <_ZN10X10_sender7sendLowEv+0xc4>
			{
				start120();
    317a:	ce 01       	movw	r24, r28
    317c:	0e 94 20 17 	call	0x2e40	; 0x2e40 <_ZN10X10_sender8start120Ev>
				
				if(getCurrentPos1() > 0)
    3180:	ce 01       	movw	r24, r28
    3182:	0e 94 59 17 	call	0x2eb2	; 0x2eb2 <_ZN10X10_sender14getCurrentPos1Ev>
    3186:	88 23       	and	r24, r24
    3188:	21 f0       	breq	.+8      	; 0x3192 <_ZN10X10_sender7sendLowEv+0x62>
				decrementCurrentPos1();
    318a:	ce 01       	movw	r24, r28
    318c:	0e 94 54 17 	call	0x2ea8	; 0x2ea8 <_ZN10X10_sender20decrementCurrentPos1Ev>
    3190:	31 c0       	rjmp	.+98     	; 0x31f4 <_ZN10X10_sender7sendLowEv+0xc4>
				else
				setCurrentPacket(2);
    3192:	ce 01       	movw	r24, r28
    3194:	62 e0       	ldi	r22, 0x02	; 2
    3196:	0e 94 51 17 	call	0x2ea2	; 0x2ea2 <_ZN10X10_sender16setCurrentPacketEh>
    319a:	2c c0       	rjmp	.+88     	; 0x31f4 <_ZN10X10_sender7sendLowEv+0xc4>
				//PORTB |= 1 << 4;
			}
		else{}
	}
	
	else if(getCurrentPacket() == 2)
    319c:	82 30       	cpi	r24, 0x02	; 2
    319e:	51 f5       	brne	.+84     	; 0x31f4 <_ZN10X10_sender7sendLowEv+0xc4>
	{
		if(~getPacket2() & (1 << getCurrentPos2()))
    31a0:	ce 01       	movw	r24, r28
    31a2:	0e 94 4a 17 	call	0x2e94	; 0x2e94 <_ZN10X10_sender10getPacket2Ev>
    31a6:	8c 01       	movw	r16, r24
    31a8:	ce 01       	movw	r24, r28
    31aa:	0e 94 61 17 	call	0x2ec2	; 0x2ec2 <_ZN10X10_sender14getCurrentPos2Ev>
    31ae:	21 e0       	ldi	r18, 0x01	; 1
    31b0:	30 e0       	ldi	r19, 0x00	; 0
    31b2:	a9 01       	movw	r20, r18
    31b4:	02 c0       	rjmp	.+4      	; 0x31ba <_ZN10X10_sender7sendLowEv+0x8a>
    31b6:	44 0f       	add	r20, r20
    31b8:	55 1f       	adc	r21, r21
    31ba:	8a 95       	dec	r24
    31bc:	e2 f7       	brpl	.-8      	; 0x31b6 <_ZN10X10_sender7sendLowEv+0x86>
    31be:	ca 01       	movw	r24, r20
    31c0:	00 95       	com	r16
    31c2:	10 95       	com	r17
    31c4:	80 23       	and	r24, r16
    31c6:	91 23       	and	r25, r17
    31c8:	00 97       	sbiw	r24, 0x00	; 0
    31ca:	a1 f0       	breq	.+40     	; 0x31f4 <_ZN10X10_sender7sendLowEv+0xc4>
		{
			start120();
    31cc:	ce 01       	movw	r24, r28
    31ce:	0e 94 20 17 	call	0x2e40	; 0x2e40 <_ZN10X10_sender8start120Ev>
			
			if(getCurrentPos2() > 0)
    31d2:	ce 01       	movw	r24, r28
    31d4:	0e 94 61 17 	call	0x2ec2	; 0x2ec2 <_ZN10X10_sender14getCurrentPos2Ev>
    31d8:	88 23       	and	r24, r24
    31da:	21 f0       	breq	.+8      	; 0x31e4 <_ZN10X10_sender7sendLowEv+0xb4>
			{
				decrementCurrentPos2();
    31dc:	ce 01       	movw	r24, r28
    31de:	0e 94 5c 17 	call	0x2eb8	; 0x2eb8 <_ZN10X10_sender20decrementCurrentPos2Ev>
    31e2:	08 c0       	rjmp	.+16     	; 0x31f4 <_ZN10X10_sender7sendLowEv+0xc4>
			}
			else
			{
				setSendMode(false);
    31e4:	ce 01       	movw	r24, r28
    31e6:	60 e0       	ldi	r22, 0x00	; 0
    31e8:	0e 94 40 17 	call	0x2e80	; 0x2e80 <_ZN10X10_sender11setSendModeEb>
				setCurrentPacket(0);
    31ec:	ce 01       	movw	r24, r28
    31ee:	60 e0       	ldi	r22, 0x00	; 0
    31f0:	0e 94 51 17 	call	0x2ea2	; 0x2ea2 <_ZN10X10_sender16setCurrentPacketEh>
		}
	else{}
}
		else{}	
	}
    31f4:	df 91       	pop	r29
    31f6:	cf 91       	pop	r28
    31f8:	1f 91       	pop	r17
    31fa:	0f 91       	pop	r16
    31fc:	08 95       	ret

000031fe <__udivmodqi4>:
    31fe:	99 1b       	sub	r25, r25
    3200:	79 e0       	ldi	r23, 0x09	; 9
    3202:	04 c0       	rjmp	.+8      	; 0x320c <__udivmodqi4_ep>

00003204 <__udivmodqi4_loop>:
    3204:	99 1f       	adc	r25, r25
    3206:	96 17       	cp	r25, r22
    3208:	08 f0       	brcs	.+2      	; 0x320c <__udivmodqi4_ep>
    320a:	96 1b       	sub	r25, r22

0000320c <__udivmodqi4_ep>:
    320c:	88 1f       	adc	r24, r24
    320e:	7a 95       	dec	r23
    3210:	c9 f7       	brne	.-14     	; 0x3204 <__udivmodqi4_loop>
    3212:	80 95       	com	r24
    3214:	08 95       	ret

00003216 <__udivmodsi4>:
    3216:	a1 e2       	ldi	r26, 0x21	; 33
    3218:	1a 2e       	mov	r1, r26
    321a:	aa 1b       	sub	r26, r26
    321c:	bb 1b       	sub	r27, r27
    321e:	fd 01       	movw	r30, r26
    3220:	0d c0       	rjmp	.+26     	; 0x323c <__udivmodsi4_ep>

00003222 <__udivmodsi4_loop>:
    3222:	aa 1f       	adc	r26, r26
    3224:	bb 1f       	adc	r27, r27
    3226:	ee 1f       	adc	r30, r30
    3228:	ff 1f       	adc	r31, r31
    322a:	a2 17       	cp	r26, r18
    322c:	b3 07       	cpc	r27, r19
    322e:	e4 07       	cpc	r30, r20
    3230:	f5 07       	cpc	r31, r21
    3232:	20 f0       	brcs	.+8      	; 0x323c <__udivmodsi4_ep>
    3234:	a2 1b       	sub	r26, r18
    3236:	b3 0b       	sbc	r27, r19
    3238:	e4 0b       	sbc	r30, r20
    323a:	f5 0b       	sbc	r31, r21

0000323c <__udivmodsi4_ep>:
    323c:	66 1f       	adc	r22, r22
    323e:	77 1f       	adc	r23, r23
    3240:	88 1f       	adc	r24, r24
    3242:	99 1f       	adc	r25, r25
    3244:	1a 94       	dec	r1
    3246:	69 f7       	brne	.-38     	; 0x3222 <__udivmodsi4_loop>
    3248:	60 95       	com	r22
    324a:	70 95       	com	r23
    324c:	80 95       	com	r24
    324e:	90 95       	com	r25
    3250:	9b 01       	movw	r18, r22
    3252:	ac 01       	movw	r20, r24
    3254:	bd 01       	movw	r22, r26
    3256:	cf 01       	movw	r24, r30
    3258:	08 95       	ret

0000325a <__tablejump_elpm__>:
    325a:	07 90       	elpm	r0, Z+
    325c:	f6 91       	elpm	r31, Z
    325e:	e0 2d       	mov	r30, r0
    3260:	19 94       	eijmp

00003262 <itoa>:
    3262:	fb 01       	movw	r30, r22
    3264:	9f 01       	movw	r18, r30
    3266:	e8 94       	clt
    3268:	42 30       	cpi	r20, 0x02	; 2
    326a:	c4 f0       	brlt	.+48     	; 0x329c <itoa+0x3a>
    326c:	45 32       	cpi	r20, 0x25	; 37
    326e:	b4 f4       	brge	.+44     	; 0x329c <itoa+0x3a>
    3270:	4a 30       	cpi	r20, 0x0A	; 10
    3272:	29 f4       	brne	.+10     	; 0x327e <itoa+0x1c>
    3274:	97 fb       	bst	r25, 7
    3276:	1e f4       	brtc	.+6      	; 0x327e <itoa+0x1c>
    3278:	90 95       	com	r25
    327a:	81 95       	neg	r24
    327c:	9f 4f       	sbci	r25, 0xFF	; 255
    327e:	64 2f       	mov	r22, r20
    3280:	77 27       	eor	r23, r23
    3282:	0e 94 62 19 	call	0x32c4	; 0x32c4 <__udivmodhi4>
    3286:	80 5d       	subi	r24, 0xD0	; 208
    3288:	8a 33       	cpi	r24, 0x3A	; 58
    328a:	0c f0       	brlt	.+2      	; 0x328e <itoa+0x2c>
    328c:	89 5d       	subi	r24, 0xD9	; 217
    328e:	81 93       	st	Z+, r24
    3290:	cb 01       	movw	r24, r22
    3292:	00 97       	sbiw	r24, 0x00	; 0
    3294:	a1 f7       	brne	.-24     	; 0x327e <itoa+0x1c>
    3296:	16 f4       	brtc	.+4      	; 0x329c <itoa+0x3a>
    3298:	5d e2       	ldi	r21, 0x2D	; 45
    329a:	51 93       	st	Z+, r21
    329c:	10 82       	st	Z, r1
    329e:	c9 01       	movw	r24, r18
    32a0:	0c 94 52 19 	jmp	0x32a4	; 0x32a4 <strrev>

000032a4 <strrev>:
    32a4:	dc 01       	movw	r26, r24
    32a6:	fc 01       	movw	r30, r24
    32a8:	67 2f       	mov	r22, r23
    32aa:	71 91       	ld	r23, Z+
    32ac:	77 23       	and	r23, r23
    32ae:	e1 f7       	brne	.-8      	; 0x32a8 <strrev+0x4>
    32b0:	32 97       	sbiw	r30, 0x02	; 2
    32b2:	04 c0       	rjmp	.+8      	; 0x32bc <strrev+0x18>
    32b4:	7c 91       	ld	r23, X
    32b6:	6d 93       	st	X+, r22
    32b8:	70 83       	st	Z, r23
    32ba:	62 91       	ld	r22, -Z
    32bc:	ae 17       	cp	r26, r30
    32be:	bf 07       	cpc	r27, r31
    32c0:	c8 f3       	brcs	.-14     	; 0x32b4 <strrev+0x10>
    32c2:	08 95       	ret

000032c4 <__udivmodhi4>:
    32c4:	aa 1b       	sub	r26, r26
    32c6:	bb 1b       	sub	r27, r27
    32c8:	51 e1       	ldi	r21, 0x11	; 17
    32ca:	07 c0       	rjmp	.+14     	; 0x32da <__udivmodhi4_ep>

000032cc <__udivmodhi4_loop>:
    32cc:	aa 1f       	adc	r26, r26
    32ce:	bb 1f       	adc	r27, r27
    32d0:	a6 17       	cp	r26, r22
    32d2:	b7 07       	cpc	r27, r23
    32d4:	10 f0       	brcs	.+4      	; 0x32da <__udivmodhi4_ep>
    32d6:	a6 1b       	sub	r26, r22
    32d8:	b7 0b       	sbc	r27, r23

000032da <__udivmodhi4_ep>:
    32da:	88 1f       	adc	r24, r24
    32dc:	99 1f       	adc	r25, r25
    32de:	5a 95       	dec	r21
    32e0:	a9 f7       	brne	.-22     	; 0x32cc <__udivmodhi4_loop>
    32e2:	80 95       	com	r24
    32e4:	90 95       	com	r25
    32e6:	bc 01       	movw	r22, r24
    32e8:	cd 01       	movw	r24, r26
    32ea:	08 95       	ret

000032ec <_exit>:
    32ec:	f8 94       	cli

000032ee <__stop_program>:
    32ee:	ff cf       	rjmp	.-2      	; 0x32ee <__stop_program>
