
simulate.elf:     file format elf32-avr

Sections:
Idx Name          Size      VMA       LMA       File off  Algn
  0 .data         00000000  00800200  00800200  000027b0  2**0
                  CONTENTS, ALLOC, LOAD, DATA
  1 .text         0000273c  00000000  00000000  00000074  2**1
                  CONTENTS, ALLOC, LOAD, READONLY, CODE
  2 .bss          00000033  00800200  00800200  000027b0  2**0
                  ALLOC
  3 .comment      00000030  00000000  00000000  000027b0  2**0
                  CONTENTS, READONLY
  4 .note.gnu.avr.deviceinfo 00000040  00000000  00000000  000027e0  2**2
                  CONTENTS, READONLY
  5 .debug_aranges 00000490  00000000  00000000  00002820  2**0
                  CONTENTS, READONLY, DEBUGGING
  6 .debug_info   000095b3  00000000  00000000  00002cb0  2**0
                  CONTENTS, READONLY, DEBUGGING
  7 .debug_abbrev 0000192e  00000000  00000000  0000c263  2**0
                  CONTENTS, READONLY, DEBUGGING
  8 .debug_line   00002a30  00000000  00000000  0000db91  2**0
                  CONTENTS, READONLY, DEBUGGING
  9 .debug_frame  0000105c  00000000  00000000  000105c4  2**2
                  CONTENTS, READONLY, DEBUGGING
 10 .debug_str    000019c3  00000000  00000000  00011620  2**0
                  CONTENTS, READONLY, DEBUGGING
 11 .debug_loc    00005ae4  00000000  00000000  00012fe3  2**0
                  CONTENTS, READONLY, DEBUGGING
 12 .debug_ranges 00000508  00000000  00000000  00018ac7  2**0
                  CONTENTS, READONLY, DEBUGGING

Disassembly of section .text:

00000000 <__vectors>:
       0:	7c c0       	rjmp	.+248    	; 0xfa <__ctors_end>
       2:	00 00       	nop
       4:	9d c0       	rjmp	.+314    	; 0x140 <__bad_interrupt>
       6:	00 00       	nop
       8:	9b c0       	rjmp	.+310    	; 0x140 <__bad_interrupt>
       a:	00 00       	nop
       c:	95 c1       	rjmp	.+810    	; 0x338 <__vector_3>
       e:	00 00       	nop
      10:	bd c1       	rjmp	.+890    	; 0x38c <__vector_4>
      12:	00 00       	nop
      14:	95 c0       	rjmp	.+298    	; 0x140 <__bad_interrupt>
      16:	00 00       	nop
      18:	93 c0       	rjmp	.+294    	; 0x140 <__bad_interrupt>
      1a:	00 00       	nop
      1c:	91 c0       	rjmp	.+290    	; 0x140 <__bad_interrupt>
      1e:	00 00       	nop
      20:	8f c0       	rjmp	.+286    	; 0x140 <__bad_interrupt>
      22:	00 00       	nop
      24:	8d c0       	rjmp	.+282    	; 0x140 <__bad_interrupt>
      26:	00 00       	nop
      28:	8b c0       	rjmp	.+278    	; 0x140 <__bad_interrupt>
      2a:	00 00       	nop
      2c:	89 c0       	rjmp	.+274    	; 0x140 <__bad_interrupt>
      2e:	00 00       	nop
      30:	87 c0       	rjmp	.+270    	; 0x140 <__bad_interrupt>
      32:	00 00       	nop
      34:	85 c0       	rjmp	.+266    	; 0x140 <__bad_interrupt>
      36:	00 00       	nop
      38:	83 c0       	rjmp	.+262    	; 0x140 <__bad_interrupt>
      3a:	00 00       	nop
      3c:	25 c2       	rjmp	.+1098   	; 0x488 <__vector_15>
      3e:	00 00       	nop
      40:	7f c0       	rjmp	.+254    	; 0x140 <__bad_interrupt>
      42:	00 00       	nop
      44:	7d c0       	rjmp	.+250    	; 0x140 <__bad_interrupt>
      46:	00 00       	nop
      48:	7b c0       	rjmp	.+246    	; 0x140 <__bad_interrupt>
      4a:	00 00       	nop
      4c:	79 c0       	rjmp	.+242    	; 0x140 <__bad_interrupt>
      4e:	00 00       	nop
      50:	77 c0       	rjmp	.+238    	; 0x140 <__bad_interrupt>
      52:	00 00       	nop
      54:	75 c0       	rjmp	.+234    	; 0x140 <__bad_interrupt>
      56:	00 00       	nop
      58:	73 c0       	rjmp	.+230    	; 0x140 <__bad_interrupt>
      5a:	00 00       	nop
      5c:	c1 c1       	rjmp	.+898    	; 0x3e0 <__vector_23>
      5e:	00 00       	nop
      60:	6f c0       	rjmp	.+222    	; 0x140 <__bad_interrupt>
      62:	00 00       	nop
      64:	40 c1       	rjmp	.+640    	; 0x2e6 <__vector_25>
      66:	00 00       	nop
      68:	6b c0       	rjmp	.+214    	; 0x140 <__bad_interrupt>
      6a:	00 00       	nop
      6c:	69 c0       	rjmp	.+210    	; 0x140 <__bad_interrupt>
      6e:	00 00       	nop
      70:	67 c0       	rjmp	.+206    	; 0x140 <__bad_interrupt>
      72:	00 00       	nop
      74:	65 c0       	rjmp	.+202    	; 0x140 <__bad_interrupt>
      76:	00 00       	nop
      78:	63 c0       	rjmp	.+198    	; 0x140 <__bad_interrupt>
      7a:	00 00       	nop
      7c:	61 c0       	rjmp	.+194    	; 0x140 <__bad_interrupt>
      7e:	00 00       	nop
      80:	5f c0       	rjmp	.+190    	; 0x140 <__bad_interrupt>
      82:	00 00       	nop
      84:	5d c0       	rjmp	.+186    	; 0x140 <__bad_interrupt>
      86:	00 00       	nop
      88:	5b c0       	rjmp	.+182    	; 0x140 <__bad_interrupt>
      8a:	00 00       	nop
      8c:	d3 c1       	rjmp	.+934    	; 0x434 <__vector_35>
      8e:	00 00       	nop
      90:	57 c0       	rjmp	.+174    	; 0x140 <__bad_interrupt>
      92:	00 00       	nop
      94:	55 c0       	rjmp	.+170    	; 0x140 <__bad_interrupt>
      96:	00 00       	nop
      98:	53 c0       	rjmp	.+166    	; 0x140 <__bad_interrupt>
      9a:	00 00       	nop
      9c:	51 c0       	rjmp	.+162    	; 0x140 <__bad_interrupt>
      9e:	00 00       	nop
      a0:	4f c0       	rjmp	.+158    	; 0x140 <__bad_interrupt>
      a2:	00 00       	nop
      a4:	4d c0       	rjmp	.+154    	; 0x140 <__bad_interrupt>
      a6:	00 00       	nop
      a8:	4b c0       	rjmp	.+150    	; 0x140 <__bad_interrupt>
      aa:	00 00       	nop
      ac:	49 c0       	rjmp	.+146    	; 0x140 <__bad_interrupt>
      ae:	00 00       	nop
      b0:	47 c0       	rjmp	.+142    	; 0x140 <__bad_interrupt>
      b2:	00 00       	nop
      b4:	45 c0       	rjmp	.+138    	; 0x140 <__bad_interrupt>
      b6:	00 00       	nop
      b8:	43 c0       	rjmp	.+134    	; 0x140 <__bad_interrupt>
      ba:	00 00       	nop
      bc:	41 c0       	rjmp	.+130    	; 0x140 <__bad_interrupt>
      be:	00 00       	nop
      c0:	3f c0       	rjmp	.+126    	; 0x140 <__bad_interrupt>
      c2:	00 00       	nop
      c4:	3d c0       	rjmp	.+122    	; 0x140 <__bad_interrupt>
      c6:	00 00       	nop
      c8:	3b c0       	rjmp	.+118    	; 0x140 <__bad_interrupt>
      ca:	00 00       	nop
      cc:	39 c0       	rjmp	.+114    	; 0x140 <__bad_interrupt>
      ce:	00 00       	nop
      d0:	37 c0       	rjmp	.+110    	; 0x140 <__bad_interrupt>
      d2:	00 00       	nop
      d4:	35 c0       	rjmp	.+106    	; 0x140 <__bad_interrupt>
      d6:	00 00       	nop
      d8:	33 c0       	rjmp	.+102    	; 0x140 <__bad_interrupt>
      da:	00 00       	nop
      dc:	31 c0       	rjmp	.+98     	; 0x140 <__bad_interrupt>
      de:	00 00       	nop
      e0:	2f c0       	rjmp	.+94     	; 0x140 <__bad_interrupt>
      e2:	00 00       	nop
      e4:	66 03       	mulsu	r22, r22
      e6:	6e 03       	fmul	r22, r22
      e8:	75 03       	mulsu	r23, r21
      ea:	f7 04       	cpc	r15, r7
      ec:	83 03       	fmuls	r16, r19
      ee:	9a 03       	fmulsu	r17, r18
      f0:	06 04       	cpc	r0, r6
      f2:	38 04       	cpc	r3, r8
      f4:	66 04       	cpc	r6, r6
      f6:	9e 04       	cpc	r9, r14

000000f8 <__ctors_start>:
      f8:	6e 02       	muls	r22, r30

000000fa <__ctors_end>:
      fa:	11 24       	eor	r1, r1
      fc:	1f be       	out	0x3f, r1	; 63
      fe:	cf ef       	ldi	r28, 0xFF	; 255
     100:	d1 e2       	ldi	r29, 0x21	; 33
     102:	de bf       	out	0x3e, r29	; 62
     104:	cd bf       	out	0x3d, r28	; 61
     106:	00 e0       	ldi	r16, 0x00	; 0
     108:	0c bf       	out	0x3c, r16	; 60

0000010a <__do_clear_bss>:
     10a:	22 e0       	ldi	r18, 0x02	; 2
     10c:	a0 e0       	ldi	r26, 0x00	; 0
     10e:	b2 e0       	ldi	r27, 0x02	; 2
     110:	01 c0       	rjmp	.+2      	; 0x114 <.do_clear_bss_start>

00000112 <.do_clear_bss_loop>:
     112:	1d 92       	st	X+, r1

00000114 <.do_clear_bss_start>:
     114:	a3 33       	cpi	r26, 0x33	; 51
     116:	b2 07       	cpc	r27, r18
     118:	e1 f7       	brne	.-8      	; 0x112 <.do_clear_bss_loop>

0000011a <__do_global_ctors>:
     11a:	10 e0       	ldi	r17, 0x00	; 0
     11c:	cd e7       	ldi	r28, 0x7D	; 125
     11e:	d0 e0       	ldi	r29, 0x00	; 0
     120:	00 e0       	ldi	r16, 0x00	; 0
     122:	06 c0       	rjmp	.+12     	; 0x130 <__do_global_ctors+0x16>
     124:	21 97       	sbiw	r28, 0x01	; 1
     126:	01 09       	sbc	r16, r1
     128:	80 2f       	mov	r24, r16
     12a:	fe 01       	movw	r30, r28
     12c:	0e 94 94 13 	call	0x2728	; 0x2728 <__tablejump2__>
     130:	cc 37       	cpi	r28, 0x7C	; 124
     132:	d1 07       	cpc	r29, r17
     134:	80 e0       	ldi	r24, 0x00	; 0
     136:	08 07       	cpc	r16, r24
     138:	a9 f7       	brne	.-22     	; 0x124 <__do_global_ctors+0xa>
     13a:	4d d0       	rcall	.+154    	; 0x1d6 <main>
     13c:	0c 94 9c 13 	jmp	0x2738	; 0x2738 <_exit>

00000140 <__bad_interrupt>:
     140:	5f cf       	rjmp	.-322    	; 0x0 <__vectors>

00000142 <_ZN3i2cC1Ebi>:
// DESCR. : constructor that initiates the i2c module as master with
// a chosen clock frequency of 100 kHz or 400 kHz.
//=============================================================
i2c::i2c(bool isMaster, int clock)
{
	if(isMaster == true)
     142:	66 23       	and	r22, r22
     144:	f1 f0       	breq	.+60     	; 0x182 <_ZN3i2cC1Ebi+0x40>
	{
		if(clock == 400)
     146:	40 39       	cpi	r20, 0x90	; 144
     148:	81 e0       	ldi	r24, 0x01	; 1
     14a:	58 07       	cpc	r21, r24
     14c:	39 f4       	brne	.+14     	; 0x15c <_ZN3i2cC1Ebi+0x1a>
		{
			TWSR = 0b00000001; // set prescaler
     14e:	81 e0       	ldi	r24, 0x01	; 1
     150:	80 93 b9 00 	sts	0x00B9, r24
			TWBR = 0x03; // sets SCL to 400 kHz
     154:	83 e0       	ldi	r24, 0x03	; 3
     156:	80 93 b8 00 	sts	0x00B8, r24
     15a:	10 c0       	rjmp	.+32     	; 0x17c <_ZN3i2cC1Ebi+0x3a>
		}
		else if(clock == 100){
     15c:	44 36       	cpi	r20, 0x64	; 100
     15e:	51 05       	cpc	r21, r1
     160:	39 f4       	brne	.+14     	; 0x170 <_ZN3i2cC1Ebi+0x2e>
			TWSR = 0b00000001; // set prescaler
     162:	81 e0       	ldi	r24, 0x01	; 1
     164:	80 93 b9 00 	sts	0x00B9, r24
			TWBR = 0x12; // sets SCL to 100 kHz
     168:	82 e1       	ldi	r24, 0x12	; 18
     16a:	80 93 b8 00 	sts	0x00B8, r24
     16e:	06 c0       	rjmp	.+12     	; 0x17c <_ZN3i2cC1Ebi+0x3a>
		}
		else
		{
			TWSR = 0b00000011; // set prescaler
     170:	83 e0       	ldi	r24, 0x03	; 3
     172:	80 93 b9 00 	sts	0x00B9, r24
			TWBR = 0x14; // sets SCL to 6,211 kHz
     176:	84 e1       	ldi	r24, 0x14	; 20
     178:	80 93 b8 00 	sts	0x00B8, r24
		}
		TWCR = 0x04; // enable the TWI module in mega2560.
     17c:	84 e0       	ldi	r24, 0x04	; 4
     17e:	80 93 bc 00 	sts	0x00BC, r24
     182:	08 95       	ret

00000184 <_ZN3i2c5startEv>:
// METHOD : start
// DESCR. : sends the start command on the i2c interface.
//=============================================================
void i2c::start()
{
	TWCR = (1 << TWINT) | (1 << TWSTA) | (1 << TWEN);
     184:	84 ea       	ldi	r24, 0xA4	; 164
     186:	80 93 bc 00 	sts	0x00BC, r24
	while (!(TWCR & (1<<TWINT)));
     18a:	ec eb       	ldi	r30, 0xBC	; 188
     18c:	f0 e0       	ldi	r31, 0x00	; 0
     18e:	80 81       	ld	r24, Z
     190:	88 23       	and	r24, r24
     192:	ec f7       	brge	.-6      	; 0x18e <_ZN3i2c5startEv+0xa>
}
     194:	08 95       	ret

00000196 <_ZN3i2c4stopEv>:
// METHOD : stop
// DESCR. : sends the stop command on the i2c interface.
//=============================================================
void i2c::stop()
{
	TWCR = (1 << TWINT) | (1 << TWEN ) | (1<<TWSTO);
     196:	84 e9       	ldi	r24, 0x94	; 148
     198:	80 93 bc 00 	sts	0x00BC, r24
     19c:	08 95       	ret

0000019e <_ZN3i2c5writeEh>:
// METHOD : write
// DESCR. : writes a single byte of data to the i2c interface.
//=============================================================
void i2c::write(unsigned char data)
{
	TWDR = data;
     19e:	60 93 bb 00 	sts	0x00BB, r22
	TWCR = (1<< TWINT) | (1<<TWEN);
     1a2:	84 e8       	ldi	r24, 0x84	; 132
     1a4:	80 93 bc 00 	sts	0x00BC, r24
	while (!(TWCR & (1<<TWINT)));
     1a8:	ec eb       	ldi	r30, 0xBC	; 188
     1aa:	f0 e0       	ldi	r31, 0x00	; 0
     1ac:	80 81       	ld	r24, Z
     1ae:	88 23       	and	r24, r24
     1b0:	ec f7       	brge	.-6      	; 0x1ac <_ZN3i2c5writeEh+0xe>
	
};
     1b2:	08 95       	ret

000001b4 <_ZN3i2c4readEb>:
// DESCR. : reads 1 byte of data from the i2c interface
// and transmits the ack, if it is not the last byte to be read.
//=============================================================
unsigned char i2c::read(bool isLast)
{
	if ( isLast == 0)
     1b4:	61 11       	cpse	r22, r1
     1b6:	04 c0       	rjmp	.+8      	; 0x1c0 <_ZN3i2c4readEb+0xc>
		TWCR = (1<<TWINT) | (1<<TWEN) | (1<<TWEA);
     1b8:	84 ec       	ldi	r24, 0xC4	; 196
     1ba:	80 93 bc 00 	sts	0x00BC, r24
     1be:	03 c0       	rjmp	.+6      	; 0x1c6 <_ZN3i2c4readEb+0x12>
	else
		TWCR = (1<<TWINT) | (1<<TWEN);
     1c0:	84 e8       	ldi	r24, 0x84	; 132
     1c2:	80 93 bc 00 	sts	0x00BC, r24
	while ((TWCR & (1 <<TWINT)) == 0);
     1c6:	ec eb       	ldi	r30, 0xBC	; 188
     1c8:	f0 e0       	ldi	r31, 0x00	; 0
     1ca:	80 81       	ld	r24, Z
     1cc:	88 23       	and	r24, r24
     1ce:	ec f7       	brge	.-6      	; 0x1ca <_ZN3i2c4readEb+0x16>
	return TWDR;
     1d0:	80 91 bb 00 	lds	r24, 0x00BB
     1d4:	08 95       	ret

000001d6 <main>:
int unitCount;
unsigned char day;


int main()
{
     1d6:	cf 93       	push	r28
     1d8:	df 93       	push	r29
     1da:	cd b7       	in	r28, 0x3d	; 61
     1dc:	de b7       	in	r29, 0x3e	; 62
     1de:	d4 50       	subi	r29, 0x04	; 4
     1e0:	0f b6       	in	r0, 0x3f	; 63
     1e2:	f8 94       	cli
     1e4:	de bf       	out	0x3e, r29	; 62
     1e6:	0f be       	out	0x3f, r0	; 63
     1e8:	cd bf       	out	0x3d, r28	; 61
	
	sei();
     1ea:	78 94       	sei
	SD_obj.init();
     1ec:	8f e2       	ldi	r24, 0x2F	; 47
     1ee:	92 e0       	ldi	r25, 0x02	; 2
     1f0:	0e 94 bb 0c 	call	0x1976	; 0x1976 <_ZN6sdCard4initEv>
	
	//Bruges som test program.
	RTC_obj.setDate(22, 06, 16, 3);
     1f4:	03 e0       	ldi	r16, 0x03	; 3
     1f6:	20 e1       	ldi	r18, 0x10	; 16
     1f8:	46 e0       	ldi	r20, 0x06	; 6
     1fa:	66 e1       	ldi	r22, 0x16	; 22
     1fc:	8d e2       	ldi	r24, 0x2D	; 45
     1fe:	92 e0       	ldi	r25, 0x02	; 2
     200:	0e 94 99 0b 	call	0x1732	; 0x1732 <_ZN3rtc7setDateEhhhh>
	RTC_obj.setTime(12, 00, 00);
     204:	20 e0       	ldi	r18, 0x00	; 0
     206:	40 e0       	ldi	r20, 0x00	; 0
     208:	6c e0       	ldi	r22, 0x0C	; 12
     20a:	8d e2       	ldi	r24, 0x2D	; 45
     20c:	92 e0       	ldi	r25, 0x02	; 2
     20e:	0e 94 30 0b 	call	0x1660	; 0x1660 <_ZN3rtc7setTimeEhhh>
	DDRF = 0xFF;
     212:	8f ef       	ldi	r24, 0xFF	; 255
     214:	80 bb       	out	0x10, r24	; 16
	
	while (1)
	{

		//State-Machine implementation
		switch (PCIF_obj.PCconnectionStatus)
     216:	0f 2e       	mov	r0, r31
     218:	f3 e0       	ldi	r31, 0x03	; 3
     21a:	6f 2e       	mov	r6, r31
     21c:	f2 e0       	ldi	r31, 0x02	; 2
     21e:	7f 2e       	mov	r7, r31
     220:	f0 2d       	mov	r31, r0
		
		
			//If PC is not connected.
			case false:
		
				unsigned char Array[512] = {0x00};
     222:	6e 01       	movw	r12, r28
     224:	8f ef       	ldi	r24, 0xFF	; 255
     226:	c8 1a       	sub	r12, r24
     228:	8d ef       	ldi	r24, 0xFD	; 253
     22a:	d8 0a       	sbc	r13, r24
     22c:	81 2c       	mov	r8, r1
     22e:	68 94       	set
     230:	99 24       	eor	r9, r9
     232:	91 f8       	bld	r9, 1
				unsigned char schedule[512] = {0x00};
     234:	fe 01       	movw	r30, r28
     236:	31 96       	adiw	r30, 0x01	; 1
     238:	1f 01       	movw	r2, r30
     23a:	5e 01       	movw	r10, r28
     23c:	ff ef       	ldi	r31, 0xFF	; 255
     23e:	af 1a       	sub	r10, r31
     240:	fb ef       	ldi	r31, 0xFB	; 251
     242:	bf 0a       	sbc	r11, r31
				//Search through the array for unitID´s 
				for (int i = 0; i <= 511; i++)
				{
					if (Array[1] % 2 == 0)
					{
						handler_obj.getTimeTable(day, Array[i], schedule);
     244:	42 2c       	mov	r4, r2
     246:	53 2c       	mov	r5, r3
	
	while (1)
	{

		//State-Machine implementation
		switch (PCIF_obj.PCconnectionStatus)
     248:	f3 01       	movw	r30, r6
     24a:	80 81       	ld	r24, Z
     24c:	81 30       	cpi	r24, 0x01	; 1
     24e:	19 f4       	brne	.+6      	; 0x256 <main+0x80>
		{
		
			//If PC is connected.
			case true:
				PCIF_obj.returnStatus();
     250:	c3 01       	movw	r24, r6
     252:	e7 d3       	rcall	.+1998   	; 0xa22 <_ZN11PCinterface12returnStatusEv>
				break;
     254:	f9 cf       	rjmp	.-14     	; 0x248 <main+0x72>
		
		
			//If PC is not connected.
			case false:
		
				unsigned char Array[512] = {0x00};
     256:	f6 01       	movw	r30, r12
     258:	c4 01       	movw	r24, r8
     25a:	11 92       	st	Z+, r1
     25c:	01 97       	sbiw	r24, 0x01	; 1
     25e:	e9 f7       	brne	.-6      	; 0x25a <main+0x84>
				unsigned char schedule[512] = {0x00};
     260:	f1 01       	movw	r30, r2
     262:	c4 01       	movw	r24, r8
     264:	11 92       	st	Z+, r1
     266:	01 97       	sbiw	r24, 0x01	; 1
     268:	e9 f7       	brne	.-6      	; 0x264 <main+0x8e>
		
				unitCount = handler_obj.getUnitCount();
     26a:	8a e2       	ldi	r24, 0x2A	; 42
     26c:	92 e0       	ldi	r25, 0x02	; 2
     26e:	0e 94 1f 0b 	call	0x163e	; 0x163e <_ZN11UnitHandler12getUnitCountEv>
     272:	90 e0       	ldi	r25, 0x00	; 0
     274:	90 93 02 02 	sts	0x0202, r25
     278:	80 93 01 02 	sts	0x0201, r24
				day = RTC_obj.getDayOfWeek();
     27c:	8d e2       	ldi	r24, 0x2D	; 45
     27e:	92 e0       	ldi	r25, 0x02	; 2
     280:	0e 94 7c 0c 	call	0x18f8	; 0x18f8 <_ZN3rtc12getDayOfWeekEv>
     284:	80 93 00 02 	sts	0x0200, r24
			
				
				//Get list of units
				handler_obj.getUnitList(Array);
     288:	b6 01       	movw	r22, r12
     28a:	8a e2       	ldi	r24, 0x2A	; 42
     28c:	92 e0       	ldi	r25, 0x02	; 2
     28e:	52 d4       	rcall	.+2212   	; 0xb34 <_ZN11UnitHandler11getUnitListEPh>
     290:	86 01       	movw	r16, r12
			
				//Search through the array for unitID´s 
				for (int i = 0; i <= 511; i++)
				{
					if (Array[1] % 2 == 0)
     292:	f6 01       	movw	r30, r12
     294:	81 81       	ldd	r24, Z+1	; 0x01
     296:	80 fd       	sbrc	r24, 0
     298:	20 c0       	rjmp	.+64     	; 0x2da <main+0x104>
					{
						handler_obj.getTimeTable(day, Array[i], schedule);
     29a:	24 2d       	mov	r18, r4
     29c:	35 2d       	mov	r19, r5
     29e:	f8 01       	movw	r30, r16
     2a0:	40 81       	ld	r20, Z
     2a2:	60 91 00 02 	lds	r22, 0x0200
     2a6:	8a e2       	ldi	r24, 0x2A	; 42
     2a8:	92 e0       	ldi	r25, 0x02	; 2
     2aa:	0e 94 9e 09 	call	0x133c	; 0x133c <_ZN11UnitHandler12getTimeTableEhhPh>
					
						if (schedule[5] == RTC_obj.getHours())
     2ae:	ee 80       	ldd	r14, Y+6	; 0x06
     2b0:	f1 2c       	mov	r15, r1
     2b2:	8d e2       	ldi	r24, 0x2D	; 45
     2b4:	92 e0       	ldi	r25, 0x02	; 2
     2b6:	0e 94 07 0c 	call	0x180e	; 0x180e <_ZN3rtc8getHoursEv>
     2ba:	e8 16       	cp	r14, r24
     2bc:	f9 06       	cpc	r15, r25
     2be:	69 f4       	brne	.+26     	; 0x2da <main+0x104>
						{
							if (schedule[6] == RTC_obj.getMinuts())
     2c0:	ef 80       	ldd	r14, Y+7	; 0x07
     2c2:	f1 2c       	mov	r15, r1
     2c4:	8d e2       	ldi	r24, 0x2D	; 45
     2c6:	92 e0       	ldi	r25, 0x02	; 2
     2c8:	0e 94 42 0c 	call	0x1884	; 0x1884 <_ZN3rtc9getMinutsEv>
     2cc:	e8 16       	cp	r14, r24
     2ce:	f9 06       	cpc	r15, r25
     2d0:	21 f4       	brne	.+8      	; 0x2da <main+0x104>
							{
							
								bool handling = false;
								if (schedule[7] =! 0)
     2d2:	f1 e0       	ldi	r31, 0x01	; 1
     2d4:	f8 87       	std	Y+8, r31	; 0x08
							
							
								//Bruges til test...
								if (handling == true)
								{
									PORTF = 0xFF;
     2d6:	8f ef       	ldi	r24, 0xFF	; 255
     2d8:	81 bb       	out	0x11, r24	; 17
     2da:	0f 5f       	subi	r16, 0xFF	; 255
     2dc:	1f 4f       	sbci	r17, 0xFF	; 255
				
				//Get list of units
				handler_obj.getUnitList(Array);
			
				//Search through the array for unitID´s 
				for (int i = 0; i <= 511; i++)
     2de:	0a 15       	cp	r16, r10
     2e0:	1b 05       	cpc	r17, r11
     2e2:	b9 f6       	brne	.-82     	; 0x292 <main+0xbc>
     2e4:	b1 cf       	rjmp	.-158    	; 0x248 <main+0x72>

000002e6 <__vector_25>:




ISR (USART0_RX_vect) // interrupt based uart
{
     2e6:	1f 92       	push	r1
     2e8:	0f 92       	push	r0
     2ea:	0f b6       	in	r0, 0x3f	; 63
     2ec:	0f 92       	push	r0
     2ee:	11 24       	eor	r1, r1
     2f0:	0b b6       	in	r0, 0x3b	; 59
     2f2:	0f 92       	push	r0
     2f4:	2f 93       	push	r18
     2f6:	3f 93       	push	r19
     2f8:	4f 93       	push	r20
     2fa:	5f 93       	push	r21
     2fc:	6f 93       	push	r22
     2fe:	7f 93       	push	r23
     300:	8f 93       	push	r24
     302:	9f 93       	push	r25
     304:	af 93       	push	r26
     306:	bf 93       	push	r27
     308:	ef 93       	push	r30
     30a:	ff 93       	push	r31
	PCIF_obj.handleCMD();
     30c:	83 e0       	ldi	r24, 0x03	; 3
     30e:	92 e0       	ldi	r25, 0x02	; 2
     310:	a2 d1       	rcall	.+836    	; 0x656 <_ZN11PCinterface9handleCMDEv>
}
     312:	ff 91       	pop	r31
     314:	ef 91       	pop	r30
     316:	bf 91       	pop	r27
     318:	af 91       	pop	r26
     31a:	9f 91       	pop	r25
     31c:	8f 91       	pop	r24
     31e:	7f 91       	pop	r23
     320:	6f 91       	pop	r22
     322:	5f 91       	pop	r21
     324:	4f 91       	pop	r20
     326:	3f 91       	pop	r19
     328:	2f 91       	pop	r18
     32a:	0f 90       	pop	r0
     32c:	0b be       	out	0x3b, r0	; 59
     32e:	0f 90       	pop	r0
     330:	0f be       	out	0x3f, r0	; 63
     332:	0f 90       	pop	r0
     334:	1f 90       	pop	r1
     336:	18 95       	reti

00000338 <__vector_3>:

// interrupts used by x10.h
ISR(INT2_vect) // used for X10.h
{
     338:	1f 92       	push	r1
     33a:	0f 92       	push	r0
     33c:	0f b6       	in	r0, 0x3f	; 63
     33e:	0f 92       	push	r0
     340:	11 24       	eor	r1, r1
     342:	0b b6       	in	r0, 0x3b	; 59
     344:	0f 92       	push	r0
     346:	2f 93       	push	r18
     348:	3f 93       	push	r19
     34a:	4f 93       	push	r20
     34c:	5f 93       	push	r21
     34e:	6f 93       	push	r22
     350:	7f 93       	push	r23
     352:	8f 93       	push	r24
     354:	9f 93       	push	r25
     356:	af 93       	push	r26
     358:	bf 93       	push	r27
     35a:	ef 93       	push	r30
     35c:	ff 93       	push	r31
	X10_obj.reciveSendHighInterupt();
     35e:	8f e0       	ldi	r24, 0x0F	; 15
     360:	92 e0       	ldi	r25, 0x02	; 2
     362:	0e 94 d7 0f 	call	0x1fae	; 0x1fae <_ZN3X1022reciveSendHighInteruptEv>
}
     366:	ff 91       	pop	r31
     368:	ef 91       	pop	r30
     36a:	bf 91       	pop	r27
     36c:	af 91       	pop	r26
     36e:	9f 91       	pop	r25
     370:	8f 91       	pop	r24
     372:	7f 91       	pop	r23
     374:	6f 91       	pop	r22
     376:	5f 91       	pop	r21
     378:	4f 91       	pop	r20
     37a:	3f 91       	pop	r19
     37c:	2f 91       	pop	r18
     37e:	0f 90       	pop	r0
     380:	0b be       	out	0x3b, r0	; 59
     382:	0f 90       	pop	r0
     384:	0f be       	out	0x3f, r0	; 63
     386:	0f 90       	pop	r0
     388:	1f 90       	pop	r1
     38a:	18 95       	reti

0000038c <__vector_4>:
ISR(INT3_vect) // used for x10.h
{
     38c:	1f 92       	push	r1
     38e:	0f 92       	push	r0
     390:	0f b6       	in	r0, 0x3f	; 63
     392:	0f 92       	push	r0
     394:	11 24       	eor	r1, r1
     396:	0b b6       	in	r0, 0x3b	; 59
     398:	0f 92       	push	r0
     39a:	2f 93       	push	r18
     39c:	3f 93       	push	r19
     39e:	4f 93       	push	r20
     3a0:	5f 93       	push	r21
     3a2:	6f 93       	push	r22
     3a4:	7f 93       	push	r23
     3a6:	8f 93       	push	r24
     3a8:	9f 93       	push	r25
     3aa:	af 93       	push	r26
     3ac:	bf 93       	push	r27
     3ae:	ef 93       	push	r30
     3b0:	ff 93       	push	r31
	X10_obj.reciveSendLowInterupt();
     3b2:	8f e0       	ldi	r24, 0x0F	; 15
     3b4:	92 e0       	ldi	r25, 0x02	; 2
     3b6:	0e 94 ee 0f 	call	0x1fdc	; 0x1fdc <_ZN3X1021reciveSendLowInteruptEv>
}
     3ba:	ff 91       	pop	r31
     3bc:	ef 91       	pop	r30
     3be:	bf 91       	pop	r27
     3c0:	af 91       	pop	r26
     3c2:	9f 91       	pop	r25
     3c4:	8f 91       	pop	r24
     3c6:	7f 91       	pop	r23
     3c8:	6f 91       	pop	r22
     3ca:	5f 91       	pop	r21
     3cc:	4f 91       	pop	r20
     3ce:	3f 91       	pop	r19
     3d0:	2f 91       	pop	r18
     3d2:	0f 90       	pop	r0
     3d4:	0b be       	out	0x3b, r0	; 59
     3d6:	0f 90       	pop	r0
     3d8:	0f be       	out	0x3f, r0	; 63
     3da:	0f 90       	pop	r0
     3dc:	1f 90       	pop	r1
     3de:	18 95       	reti

000003e0 <__vector_23>:
ISR(TIMER0_OVF_vect)
{
     3e0:	1f 92       	push	r1
     3e2:	0f 92       	push	r0
     3e4:	0f b6       	in	r0, 0x3f	; 63
     3e6:	0f 92       	push	r0
     3e8:	11 24       	eor	r1, r1
     3ea:	0b b6       	in	r0, 0x3b	; 59
     3ec:	0f 92       	push	r0
     3ee:	2f 93       	push	r18
     3f0:	3f 93       	push	r19
     3f2:	4f 93       	push	r20
     3f4:	5f 93       	push	r21
     3f6:	6f 93       	push	r22
     3f8:	7f 93       	push	r23
     3fa:	8f 93       	push	r24
     3fc:	9f 93       	push	r25
     3fe:	af 93       	push	r26
     400:	bf 93       	push	r27
     402:	ef 93       	push	r30
     404:	ff 93       	push	r31
	X10_obj.stop120Interupt();
     406:	8f e0       	ldi	r24, 0x0F	; 15
     408:	92 e0       	ldi	r25, 0x02	; 2
     40a:	0e 94 05 10 	call	0x200a	; 0x200a <_ZN3X1015stop120InteruptEv>
}
     40e:	ff 91       	pop	r31
     410:	ef 91       	pop	r30
     412:	bf 91       	pop	r27
     414:	af 91       	pop	r26
     416:	9f 91       	pop	r25
     418:	8f 91       	pop	r24
     41a:	7f 91       	pop	r23
     41c:	6f 91       	pop	r22
     41e:	5f 91       	pop	r21
     420:	4f 91       	pop	r20
     422:	3f 91       	pop	r19
     424:	2f 91       	pop	r18
     426:	0f 90       	pop	r0
     428:	0b be       	out	0x3b, r0	; 59
     42a:	0f 90       	pop	r0
     42c:	0f be       	out	0x3f, r0	; 63
     42e:	0f 90       	pop	r0
     430:	1f 90       	pop	r1
     432:	18 95       	reti

00000434 <__vector_35>:
ISR(TIMER3_OVF_vect)
{
     434:	1f 92       	push	r1
     436:	0f 92       	push	r0
     438:	0f b6       	in	r0, 0x3f	; 63
     43a:	0f 92       	push	r0
     43c:	11 24       	eor	r1, r1
     43e:	0b b6       	in	r0, 0x3b	; 59
     440:	0f 92       	push	r0
     442:	2f 93       	push	r18
     444:	3f 93       	push	r19
     446:	4f 93       	push	r20
     448:	5f 93       	push	r21
     44a:	6f 93       	push	r22
     44c:	7f 93       	push	r23
     44e:	8f 93       	push	r24
     450:	9f 93       	push	r25
     452:	af 93       	push	r26
     454:	bf 93       	push	r27
     456:	ef 93       	push	r30
     458:	ff 93       	push	r31
	X10_obj.resetReciverInterupt();
     45a:	8f e0       	ldi	r24, 0x0F	; 15
     45c:	92 e0       	ldi	r25, 0x02	; 2
     45e:	0e 94 08 10 	call	0x2010	; 0x2010 <_ZN3X1020resetReciverInteruptEv>
}
     462:	ff 91       	pop	r31
     464:	ef 91       	pop	r30
     466:	bf 91       	pop	r27
     468:	af 91       	pop	r26
     46a:	9f 91       	pop	r25
     46c:	8f 91       	pop	r24
     46e:	7f 91       	pop	r23
     470:	6f 91       	pop	r22
     472:	5f 91       	pop	r21
     474:	4f 91       	pop	r20
     476:	3f 91       	pop	r19
     478:	2f 91       	pop	r18
     47a:	0f 90       	pop	r0
     47c:	0b be       	out	0x3b, r0	; 59
     47e:	0f 90       	pop	r0
     480:	0f be       	out	0x3f, r0	; 63
     482:	0f 90       	pop	r0
     484:	1f 90       	pop	r1
     486:	18 95       	reti

00000488 <__vector_15>:
ISR(TIMER2_OVF_vect)
{
     488:	1f 92       	push	r1
     48a:	0f 92       	push	r0
     48c:	0f b6       	in	r0, 0x3f	; 63
     48e:	0f 92       	push	r0
     490:	11 24       	eor	r1, r1
     492:	0b b6       	in	r0, 0x3b	; 59
     494:	0f 92       	push	r0
     496:	2f 93       	push	r18
     498:	3f 93       	push	r19
     49a:	4f 93       	push	r20
     49c:	5f 93       	push	r21
     49e:	6f 93       	push	r22
     4a0:	7f 93       	push	r23
     4a2:	8f 93       	push	r24
     4a4:	9f 93       	push	r25
     4a6:	af 93       	push	r26
     4a8:	bf 93       	push	r27
     4aa:	ef 93       	push	r30
     4ac:	ff 93       	push	r31
	X10_obj.inputCompleteInterupt();
     4ae:	8f e0       	ldi	r24, 0x0F	; 15
     4b0:	92 e0       	ldi	r25, 0x02	; 2
     4b2:	0e 94 0c 10 	call	0x2018	; 0x2018 <_ZN3X1021inputCompleteInteruptEv>
}
     4b6:	ff 91       	pop	r31
     4b8:	ef 91       	pop	r30
     4ba:	bf 91       	pop	r27
     4bc:	af 91       	pop	r26
     4be:	9f 91       	pop	r25
     4c0:	8f 91       	pop	r24
     4c2:	7f 91       	pop	r23
     4c4:	6f 91       	pop	r22
     4c6:	5f 91       	pop	r21
     4c8:	4f 91       	pop	r20
     4ca:	3f 91       	pop	r19
     4cc:	2f 91       	pop	r18
     4ce:	0f 90       	pop	r0
     4d0:	0b be       	out	0x3b, r0	; 59
     4d2:	0f 90       	pop	r0
     4d4:	0f be       	out	0x3f, r0	; 63
     4d6:	0f 90       	pop	r0
     4d8:	1f 90       	pop	r1
     4da:	18 95       	reti

000004dc <_GLOBAL__sub_I_uart_obj>:
     4dc:	0f 93       	push	r16
     4de:	1f 93       	push	r17
#include "PCinterface/PCinterface.h"
#include "RTC/rtc.h"
#include "X10/X10.h"


UART uart_obj(57600, 8, 'E');
     4e0:	05 e4       	ldi	r16, 0x45	; 69
     4e2:	28 e0       	ldi	r18, 0x08	; 8
     4e4:	40 e0       	ldi	r20, 0x00	; 0
     4e6:	51 ee       	ldi	r21, 0xE1	; 225
     4e8:	60 e0       	ldi	r22, 0x00	; 0
     4ea:	70 e0       	ldi	r23, 0x00	; 0
     4ec:	82 e3       	ldi	r24, 0x32	; 50
     4ee:	92 e0       	ldi	r25, 0x02	; 2
     4f0:	be d2       	rcall	.+1404   	; 0xa6e <_ZN4UARTC1Emhc>
sdCard SD_obj(4000);
     4f2:	60 ea       	ldi	r22, 0xA0	; 160
     4f4:	7f e0       	ldi	r23, 0x0F	; 15
     4f6:	8f e2       	ldi	r24, 0x2F	; 47
     4f8:	92 e0       	ldi	r25, 0x02	; 2
     4fa:	0e 94 ab 0c 	call	0x1956	; 0x1956 <_ZN6sdCardC1Ei>
rtc RTC_obj(0xD0, 400);
     4fe:	40 e9       	ldi	r20, 0x90	; 144
     500:	51 e0       	ldi	r21, 0x01	; 1
     502:	60 ed       	ldi	r22, 0xD0	; 208
     504:	8d e2       	ldi	r24, 0x2D	; 45
     506:	92 e0       	ldi	r25, 0x02	; 2
     508:	0e 94 22 0b 	call	0x1644	; 0x1644 <_ZN3rtcC1Ehi>
UnitHandler handler_obj(&SD_obj);
     50c:	6f e2       	ldi	r22, 0x2F	; 47
     50e:	72 e0       	ldi	r23, 0x02	; 2
     510:	8a e2       	ldi	r24, 0x2A	; 42
     512:	92 e0       	ldi	r25, 0x02	; 2
     514:	0a d3       	rcall	.+1556   	; 0xb2a <_ZN11UnitHandlerC1EP6sdCard>
X10 X10_obj(0x00, 0x00);
     516:	40 e0       	ldi	r20, 0x00	; 0
     518:	60 e0       	ldi	r22, 0x00	; 0
     51a:	8f e0       	ldi	r24, 0x0F	; 15
     51c:	92 e0       	ldi	r25, 0x02	; 2
     51e:	0e 94 55 0f 	call	0x1eaa	; 0x1eaa <_ZN3X10C1Ehh>
PCinterface PCIF_obj(&handler_obj ,&uart_obj, &RTC_obj, &X10_obj);
     522:	0f e0       	ldi	r16, 0x0F	; 15
     524:	12 e0       	ldi	r17, 0x02	; 2
     526:	2d e2       	ldi	r18, 0x2D	; 45
     528:	32 e0       	ldi	r19, 0x02	; 2
     52a:	42 e3       	ldi	r20, 0x32	; 50
     52c:	52 e0       	ldi	r21, 0x02	; 2
     52e:	6a e2       	ldi	r22, 0x2A	; 42
     530:	72 e0       	ldi	r23, 0x02	; 2
     532:	83 e0       	ldi	r24, 0x03	; 3
     534:	92 e0       	ldi	r25, 0x02	; 2
     536:	03 d0       	rcall	.+6      	; 0x53e <_ZN11PCinterfaceC1EP11UnitHandlerP4UARTP3rtcP3X10>
	X10_obj.resetReciverInterupt();
}
ISR(TIMER2_OVF_vect)
{
	X10_obj.inputCompleteInterupt();
}
     538:	1f 91       	pop	r17
     53a:	0f 91       	pop	r16
     53c:	08 95       	ret

0000053e <_ZN11PCinterfaceC1EP11UnitHandlerP4UARTP3rtcP3X10>:
//=============================================================
// METHOD : PCinterface
// DESCR. : constructor, initalizes the pc interface, takes 3 object pointers 
// to the drivers needed.
//=============================================================
 PCinterface::PCinterface( UnitHandler *Handler_obj, UART *uart_obj, rtc *rtc_obj, X10 *x10_obj )
     53e:	0f 93       	push	r16
     540:	1f 93       	push	r17
     542:	fc 01       	movw	r30, r24
{
	uartPointer = uart_obj;
     544:	56 83       	std	Z+6, r21	; 0x06
     546:	45 83       	std	Z+5, r20	; 0x05
	rtc_obj_pointer = rtc_obj;
     548:	32 83       	std	Z+2, r19	; 0x02
     54a:	21 83       	std	Z+1, r18	; 0x01
	UnitHandlerPointer = Handler_obj;
     54c:	74 83       	std	Z+4, r23	; 0x04
     54e:	63 83       	std	Z+3, r22	; 0x03
	x10Pointer = x10_obj;
     550:	10 87       	std	Z+8, r17	; 0x08
     552:	07 83       	std	Z+7, r16	; 0x07
}
     554:	1f 91       	pop	r17
     556:	0f 91       	pop	r16
     558:	08 95       	ret

0000055a <_ZN11PCinterface7isStartEPh>:
//=============================================================
// METHOD : isStart
// DESCR. : tests for the start command on the uart connection
//=============================================================
bool PCinterface::isStart( unsigned char bytes[] )
{
     55a:	0f 93       	push	r16
     55c:	1f 93       	push	r17
     55e:	cf 93       	push	r28
     560:	df 93       	push	r29
     562:	8c 01       	movw	r16, r24
     564:	eb 01       	movw	r28, r22
	bytes[0] = uartPointer->readChar();
     566:	fc 01       	movw	r30, r24
     568:	85 81       	ldd	r24, Z+5	; 0x05
     56a:	96 81       	ldd	r25, Z+6	; 0x06
     56c:	ce d2       	rcall	.+1436   	; 0xb0a <_ZN4UART8readCharEv>
     56e:	88 83       	st	Y, r24
	bytes[1] = uartPointer->readChar();
     570:	f8 01       	movw	r30, r16
     572:	85 81       	ldd	r24, Z+5	; 0x05
     574:	96 81       	ldd	r25, Z+6	; 0x06
     576:	c9 d2       	rcall	.+1426   	; 0xb0a <_ZN4UART8readCharEv>
     578:	89 83       	std	Y+1, r24	; 0x01
	
	if (bytes[0] == 0xF0 && bytes[1] == 0xF0){
     57a:	98 81       	ld	r25, Y
     57c:	90 3f       	cpi	r25, 0xF0	; 240
     57e:	29 f4       	brne	.+10     	; 0x58a <_ZN11PCinterface7isStartEPh+0x30>
     580:	91 e0       	ldi	r25, 0x01	; 1
     582:	80 3f       	cpi	r24, 0xF0	; 240
     584:	19 f0       	breq	.+6      	; 0x58c <_ZN11PCinterface7isStartEPh+0x32>
     586:	90 e0       	ldi	r25, 0x00	; 0
     588:	01 c0       	rjmp	.+2      	; 0x58c <_ZN11PCinterface7isStartEPh+0x32>
		return true;
	} 
	else
	{
		return false;
     58a:	90 e0       	ldi	r25, 0x00	; 0
	}
}
     58c:	89 2f       	mov	r24, r25
     58e:	df 91       	pop	r29
     590:	cf 91       	pop	r28
     592:	1f 91       	pop	r17
     594:	0f 91       	pop	r16
     596:	08 95       	ret

00000598 <_ZN11PCinterface6getCmdEPh>:
// METHOD : getCmd
// DESCR. : gets the command recieved from the PC and returns it.
//=============================================================

unsigned char PCinterface::getCmd(unsigned char bytes[2])
{
     598:	cf 93       	push	r28
     59a:	df 93       	push	r29
     59c:	ec 01       	movw	r28, r24
	
	if(isStart(bytes))
     59e:	dd df       	rcall	.-70     	; 0x55a <_ZN11PCinterface7isStartEPh>
     5a0:	88 23       	and	r24, r24
     5a2:	41 f0       	breq	.+16     	; 0x5b4 <_ZN11PCinterface6getCmdEPh+0x1c>
	{
		unsigned char cmd = uartPointer->readChar();
     5a4:	8d 81       	ldd	r24, Y+5	; 0x05
     5a6:	9e 81       	ldd	r25, Y+6	; 0x06
     5a8:	b0 d2       	rcall	.+1376   	; 0xb0a <_ZN4UART8readCharEv>
		if(cmd > 0 && cmd < 0x0B){
     5aa:	9f ef       	ldi	r25, 0xFF	; 255
     5ac:	98 0f       	add	r25, r24
     5ae:	9a 30       	cpi	r25, 0x0A	; 10
     5b0:	10 f4       	brcc	.+4      	; 0x5b6 <_ZN11PCinterface6getCmdEPh+0x1e>
     5b2:	02 c0       	rjmp	.+4      	; 0x5b8 <_ZN11PCinterface6getCmdEPh+0x20>
     5b4:	01 c0       	rjmp	.+2      	; 0x5b8 <_ZN11PCinterface6getCmdEPh+0x20>
			//uartPointer->sendChar(0x0F);
		} 
		else
		{
			return 0;
     5b6:	80 e0       	ldi	r24, 0x00	; 0
		}
		return cmd;
	}
}
     5b8:	df 91       	pop	r29
     5ba:	cf 91       	pop	r28
     5bc:	08 95       	ret

000005be <_ZN11PCinterface7getDataEPh>:
// DESCR. : recieves data on UART following a commmand, fills it
// into the array recieved and returns the
// number of data bytes added to the array.
//=============================================================
unsigned int PCinterface::getData( unsigned char data[] ) // array must be 512 bytes.
{
     5be:	bf 92       	push	r11
     5c0:	cf 92       	push	r12
     5c2:	df 92       	push	r13
     5c4:	ef 92       	push	r14
     5c6:	ff 92       	push	r15
     5c8:	0f 93       	push	r16
     5ca:	1f 93       	push	r17
     5cc:	cf 93       	push	r28
     5ce:	df 93       	push	r29
     5d0:	7c 01       	movw	r14, r24
     5d2:	8b 01       	movw	r16, r22
     5d4:	fb 01       	movw	r30, r22
     5d6:	9b 01       	movw	r18, r22
     5d8:	3e 5f       	subi	r19, 0xFE	; 254
	for (int i = 0; i < 512; i++){
		data[i] = 0x00;
     5da:	11 92       	st	Z+, r1
// into the array recieved and returns the
// number of data bytes added to the array.
//=============================================================
unsigned int PCinterface::getData( unsigned char data[] ) // array must be 512 bytes.
{
	for (int i = 0; i < 512; i++){
     5dc:	e2 17       	cp	r30, r18
     5de:	f3 07       	cpc	r31, r19
     5e0:	e1 f7       	brne	.-8      	; 0x5da <_ZN11PCinterface7getDataEPh+0x1c>
     5e2:	c0 e0       	ldi	r28, 0x00	; 0
     5e4:	d0 e0       	ldi	r29, 0x00	; 0
     5e6:	c1 2c       	mov	r12, r1
     5e8:	d1 2c       	mov	r13, r1
			if(byte2 == 0x0F){
				return databytes;
			} 
			else 
			{
				data[i] = byte;
     5ea:	0f 2e       	mov	r0, r31
     5ec:	ff e0       	ldi	r31, 0x0F	; 15
     5ee:	bf 2e       	mov	r11, r31
     5f0:	f0 2d       	mov	r31, r0
	}
	unsigned int databytes = 0;
	unsigned char byte = 0;
	unsigned char byte2 = 0;
	for( int i = 0; i<512; i++){
		byte = uartPointer->readChar();	
     5f2:	f7 01       	movw	r30, r14
     5f4:	85 81       	ldd	r24, Z+5	; 0x05
     5f6:	96 81       	ldd	r25, Z+6	; 0x06
     5f8:	88 d2       	rcall	.+1296   	; 0xb0a <_ZN4UART8readCharEv>
		//uartPointer->sendChar(0x0F); // transmit ACK;
		if(byte == 0x0F)
     5fa:	8f 30       	cpi	r24, 0x0F	; 15
     5fc:	b1 f4       	brne	.+44     	; 0x62a <_ZN11PCinterface7getDataEPh+0x6c>
		{	
			byte2 = uartPointer->readChar();
     5fe:	f7 01       	movw	r30, r14
     600:	85 81       	ldd	r24, Z+5	; 0x05
     602:	96 81       	ldd	r25, Z+6	; 0x06
     604:	82 d2       	rcall	.+1284   	; 0xb0a <_ZN4UART8readCharEv>
			//uartPointer->sendChar(0x0F); // transmit ACK;
			if(byte2 == 0x0F){
     606:	8f 30       	cpi	r24, 0x0F	; 15
     608:	19 f4       	brne	.+6      	; 0x610 <_ZN11PCinterface7getDataEPh+0x52>
				return databytes;
     60a:	8c 2d       	mov	r24, r12
     60c:	9d 2d       	mov	r25, r13
     60e:	19 c0       	rjmp	.+50     	; 0x642 <_ZN11PCinterface7getDataEPh+0x84>
			} 
			else 
			{
				data[i] = byte;
     610:	f8 01       	movw	r30, r16
     612:	ec 0f       	add	r30, r28
     614:	fd 1f       	adc	r31, r29
     616:	b0 82       	st	Z, r11
				databytes++;
				i++;
     618:	21 96       	adiw	r28, 0x01	; 1
				data[i] = byte2;
     61a:	f8 01       	movw	r30, r16
     61c:	ec 0f       	add	r30, r28
     61e:	fd 1f       	adc	r31, r29
     620:	80 83       	st	Z, r24
				databytes++;
     622:	f2 e0       	ldi	r31, 0x02	; 2
     624:	cf 0e       	add	r12, r31
     626:	d1 1c       	adc	r13, r1
     628:	07 c0       	rjmp	.+14     	; 0x638 <_ZN11PCinterface7getDataEPh+0x7a>
			}
		}
		else 
		{
			data[i] = byte;
     62a:	f8 01       	movw	r30, r16
     62c:	ec 0f       	add	r30, r28
     62e:	fd 1f       	adc	r31, r29
     630:	80 83       	st	Z, r24
			databytes++;
     632:	8f ef       	ldi	r24, 0xFF	; 255
     634:	c8 1a       	sub	r12, r24
     636:	d8 0a       	sbc	r13, r24
		data[i] = 0x00;
	}
	unsigned int databytes = 0;
	unsigned char byte = 0;
	unsigned char byte2 = 0;
	for( int i = 0; i<512; i++){
     638:	21 96       	adiw	r28, 0x01	; 1
     63a:	c1 15       	cp	r28, r1
     63c:	e2 e0       	ldi	r30, 0x02	; 2
     63e:	de 07       	cpc	r29, r30
     640:	c4 f2       	brlt	.-80     	; 0x5f2 <_ZN11PCinterface7getDataEPh+0x34>
		{
			data[i] = byte;
			databytes++;
		}
	}
}
     642:	df 91       	pop	r29
     644:	cf 91       	pop	r28
     646:	1f 91       	pop	r17
     648:	0f 91       	pop	r16
     64a:	ff 90       	pop	r15
     64c:	ef 90       	pop	r14
     64e:	df 90       	pop	r13
     650:	cf 90       	pop	r12
     652:	bf 90       	pop	r11
     654:	08 95       	ret

00000656 <_ZN11PCinterface9handleCMDEv>:
//=============================================================
// METHOD : handleCMD
// DESCR. : The function doing all the hard work ;)
//=============================================================
bool PCinterface::handleCMD()
{
     656:	3f 92       	push	r3
     658:	4f 92       	push	r4
     65a:	5f 92       	push	r5
     65c:	6f 92       	push	r6
     65e:	7f 92       	push	r7
     660:	8f 92       	push	r8
     662:	9f 92       	push	r9
     664:	af 92       	push	r10
     666:	bf 92       	push	r11
     668:	cf 92       	push	r12
     66a:	df 92       	push	r13
     66c:	ef 92       	push	r14
     66e:	ff 92       	push	r15
     670:	0f 93       	push	r16
     672:	1f 93       	push	r17
     674:	cf 93       	push	r28
     676:	df 93       	push	r29
     678:	cd b7       	in	r28, 0x3d	; 61
     67a:	de b7       	in	r29, 0x3e	; 62
     67c:	c2 50       	subi	r28, 0x02	; 2
     67e:	d4 40       	sbci	r29, 0x04	; 4
     680:	0f b6       	in	r0, 0x3f	; 63
     682:	f8 94       	cli
     684:	de bf       	out	0x3e, r29	; 62
     686:	0f be       	out	0x3f, r0	; 63
     688:	cd bf       	out	0x3d, r28	; 61
     68a:	6c 01       	movw	r12, r24
	DDRA = 0x00000000;
     68c:	11 b8       	out	0x01, r1	; 1
     68e:	8e 01       	movw	r16, r28
     690:	0f 5f       	subi	r16, 0xFF	; 255
     692:	1d 4f       	sbci	r17, 0xFD	; 253
     694:	7e 01       	movw	r14, r28
     696:	2f ef       	ldi	r18, 0xFF	; 255
     698:	e2 1a       	sub	r14, r18
     69a:	2b ef       	ldi	r18, 0xFB	; 251
     69c:	f2 0a       	sbc	r15, r18
     69e:	f8 01       	movw	r30, r16
	unsigned char datablock[512];
	for ( int i = 0; i<512; i++) {
		datablock[i] = 0x00;
     6a0:	11 92       	st	Z+, r1
//=============================================================
bool PCinterface::handleCMD()
{
	DDRA = 0x00000000;
	unsigned char datablock[512];
	for ( int i = 0; i<512; i++) {
     6a2:	ee 15       	cp	r30, r14
     6a4:	ff 05       	cpc	r31, r15
     6a6:	e1 f7       	brne	.-8      	; 0x6a0 <_ZN11PCinterface9handleCMDEv+0x4a>
		datablock[i] = 0x00;
	}
	unsigned char unitListArray[512];
	unsigned char cmdarray[2];
	unsigned char cmd = getCmd(cmdarray);
     6a8:	be 01       	movw	r22, r28
     6aa:	6f 5f       	subi	r22, 0xFF	; 255
     6ac:	7b 4f       	sbci	r23, 0xFB	; 251
     6ae:	c6 01       	movw	r24, r12
     6b0:	73 df       	rcall	.-282    	; 0x598 <_ZN11PCinterface6getCmdEPh>
	unsigned long blockAdress;
	unsigned char unitID = 0x00; // til at gemme unit Id
	unsigned char my_unit_count = 0;
	bool unitstatus = false; // variable for storing unit status
	int numberoffields = 0;
	switch(cmd)
     6b2:	90 e0       	ldi	r25, 0x00	; 0
     6b4:	fc 01       	movw	r30, r24
     6b6:	31 97       	sbiw	r30, 0x01	; 1
     6b8:	ea 30       	cpi	r30, 0x0A	; 10
     6ba:	f1 05       	cpc	r31, r1
     6bc:	08 f0       	brcs	.+2      	; 0x6c0 <_ZN11PCinterface9handleCMDEv+0x6a>
     6be:	97 c1       	rjmp	.+814    	; 0x9ee <_ZN11PCinterface9handleCMDEv+0x398>
     6c0:	88 27       	eor	r24, r24
     6c2:	ee 58       	subi	r30, 0x8E	; 142
     6c4:	ff 4f       	sbci	r31, 0xFF	; 255
     6c6:	8f 4f       	sbci	r24, 0xFF	; 255
     6c8:	0c 94 94 13 	jmp	0x2728	; 0x2728 <__tablejump2__>
	{
		case 1: // PC tilsluttet 0 bytes data;
					// sæt register i main ( PC bit high)
					PCconnectionStatus = true; // set Connection status flag
     6cc:	81 e0       	ldi	r24, 0x01	; 1
     6ce:	f6 01       	movw	r30, r12
     6d0:	80 83       	st	Z, r24
					uartPointer->sendChar(0x0F); // reply to PC
     6d2:	6f e0       	ldi	r22, 0x0F	; 15
     6d4:	85 81       	ldd	r24, Z+5	; 0x05
     6d6:	96 81       	ldd	r25, Z+6	; 0x06
     6d8:	20 d2       	rcall	.+1088   	; 0xb1a <_ZN4UART8sendCharEc>
					break;
     6da:	89 c1       	rjmp	.+786    	; 0x9ee <_ZN11PCinterface9handleCMDEv+0x398>
		case 2: // PC frakoblet 0 bytes data;
					// sæt register i main ( PC bit low)
					PCconnectionStatus = false; // set Connection status flag to false
     6dc:	f6 01       	movw	r30, r12
     6de:	10 82       	st	Z, r1
					uartPointer->sendChar(0x0F); // reply to PC
     6e0:	6f e0       	ldi	r22, 0x0F	; 15
     6e2:	85 81       	ldd	r24, Z+5	; 0x05
     6e4:	96 81       	ldd	r25, Z+6	; 0x06
     6e6:	19 d2       	rcall	.+1074   	; 0xb1a <_ZN4UART8sendCharEc>
					break;
     6e8:	82 c1       	rjmp	.+772    	; 0x9ee <_ZN11PCinterface9handleCMDEv+0x398>
		case 3: // tjek kode 0 bytes data;
				// tjek kode pin ( low = korrekt kode) og returner til PC hvad resultatet er.
					if( (PINA & 0b00000001) == 0) { // PORTA 0
     6ea:	00 99       	sbic	0x00, 0	; 0
     6ec:	06 c0       	rjmp	.+12     	; 0x6fa <_ZN11PCinterface9handleCMDEv+0xa4>
						uartPointer->sendChar(0x01);	
     6ee:	61 e0       	ldi	r22, 0x01	; 1
     6f0:	f6 01       	movw	r30, r12
     6f2:	85 81       	ldd	r24, Z+5	; 0x05
     6f4:	96 81       	ldd	r25, Z+6	; 0x06
     6f6:	11 d2       	rcall	.+1058   	; 0xb1a <_ZN4UART8sendCharEc>
     6f8:	7a c1       	rjmp	.+756    	; 0x9ee <_ZN11PCinterface9handleCMDEv+0x398>
					} else {
						uartPointer->sendChar(0x00);
     6fa:	60 e0       	ldi	r22, 0x00	; 0
     6fc:	f6 01       	movw	r30, r12
     6fe:	85 81       	ldd	r24, Z+5	; 0x05
     700:	96 81       	ldd	r25, Z+6	; 0x06
     702:	0b d2       	rcall	.+1046   	; 0xb1a <_ZN4UART8sendCharEc>
     704:	74 c1       	rjmp	.+744    	; 0x9ee <_ZN11PCinterface9handleCMDEv+0x398>
					break;
		case 4: // anmod om fejl log // ej implementeret
					// ignorer
					break;
		case 5: // Anmod om enhedsstatus 1 byte: enhedsadresse;
					if(getData(datablock) == 1){ // try to read a data part of uart communication
     706:	be 01       	movw	r22, r28
     708:	6f 5f       	subi	r22, 0xFF	; 255
     70a:	7d 4f       	sbci	r23, 0xFD	; 253
     70c:	c6 01       	movw	r24, r12
     70e:	57 df       	rcall	.-338    	; 0x5be <_ZN11PCinterface7getDataEPh>
     710:	01 97       	sbiw	r24, 0x01	; 1
     712:	51 f4       	brne	.+20     	; 0x728 <_ZN11PCinterface9handleCMDEv+0xd2>
						unitAdress = datablock[0];
     714:	cf 5f       	subi	r28, 0xFF	; 255
     716:	dd 4f       	sbci	r29, 0xFD	; 253
     718:	88 81       	ld	r24, Y
     71a:	c1 50       	subi	r28, 0x01	; 1
     71c:	d2 40       	sbci	r29, 0x02	; 2
     71e:	f6 01       	movw	r30, r12
     720:	82 87       	std	Z+10, r24	; 0x0a
						needRunGetStatus = true;
     722:	81 e0       	ldi	r24, 0x01	; 1
     724:	81 87       	std	Z+9, r24	; 0x09
     726:	63 c1       	rjmp	.+710    	; 0x9ee <_ZN11PCinterface9handleCMDEv+0x398>
					}
					else {
						uartPointer->sendChar(0x00); // in case no data is read. should have some kind of better  error handling here.
     728:	60 e0       	ldi	r22, 0x00	; 0
     72a:	f6 01       	movw	r30, r12
     72c:	85 81       	ldd	r24, Z+5	; 0x05
     72e:	96 81       	ldd	r25, Z+6	; 0x06
     730:	f4 d1       	rcall	.+1000   	; 0xb1a <_ZN4UART8sendCharEc>
     732:	5d c1       	rjmp	.+698    	; 0x9ee <_ZN11PCinterface9handleCMDEv+0x398>
					}
					break; // ikke implementeret i pc software endnnu
		case 6:  // Hent Enhed Returner enhedsinfo for næste enhed i rækket, start enhed 1.
					//Når ikke flere enheder:
					//Err cmd.
					my_unit_count = UnitHandlerPointer->getUnitCount(); // get number of units added to the system.
     734:	f6 01       	movw	r30, r12
     736:	83 81       	ldd	r24, Z+3	; 0x03
     738:	94 81       	ldd	r25, Z+4	; 0x04
     73a:	81 d7       	rcall	.+3842   	; 0x163e <_ZN11UnitHandler12getUnitCountEv>
     73c:	88 2e       	mov	r8, r24
					if(my_unit_count == 0) // hvis der ikke er nogen enheder tilføjet systemet.
     73e:	81 11       	cpse	r24, r1
     740:	10 c0       	rjmp	.+32     	; 0x762 <_ZN11PCinterface9handleCMDEv+0x10c>
					{
						datablock[4] = 0x00; // set to zero since this is what the pc uses to check if theres no units.
     742:	cb 5f       	subi	r28, 0xFB	; 251
     744:	dd 4f       	sbci	r29, 0xFD	; 253
     746:	18 82       	st	Y, r1
     748:	c5 50       	subi	r28, 0x05	; 5
     74a:	d2 40       	sbci	r29, 0x02	; 2
						for(int i = 0; i<512; i++)
						{
							
							uartPointer->sendChar(datablock[i]);
     74c:	f8 01       	movw	r30, r16
     74e:	61 91       	ld	r22, Z+
     750:	8f 01       	movw	r16, r30
     752:	f6 01       	movw	r30, r12
     754:	85 81       	ldd	r24, Z+5	; 0x05
     756:	96 81       	ldd	r25, Z+6	; 0x06
     758:	e0 d1       	rcall	.+960    	; 0xb1a <_ZN4UART8sendCharEc>
					//Err cmd.
					my_unit_count = UnitHandlerPointer->getUnitCount(); // get number of units added to the system.
					if(my_unit_count == 0) // hvis der ikke er nogen enheder tilføjet systemet.
					{
						datablock[4] = 0x00; // set to zero since this is what the pc uses to check if theres no units.
						for(int i = 0; i<512; i++)
     75a:	0e 15       	cp	r16, r14
     75c:	1f 05       	cpc	r17, r15
     75e:	b1 f7       	brne	.-20     	; 0x74c <_ZN11PCinterface9handleCMDEv+0xf6>
     760:	46 c1       	rjmp	.+652    	; 0x9ee <_ZN11PCinterface9handleCMDEv+0x398>
     762:	99 24       	eor	r9, r9
     764:	93 94       	inc	r9
     766:	b1 2c       	mov	r11, r1
					} 
					else 
					{// hent antal af enheder
						for ( unsigned char i = 1; i <= my_unit_count; i++){ // handle each unit ;)
							UnitHandlerPointer->getUnitList(unitListArray); // get unit list
							for(int j = 0; j<512; j++){ 
     768:	31 2c       	mov	r3, r1
     76a:	41 2c       	mov	r4, r1
     76c:	55 24       	eor	r5, r5
     76e:	53 94       	inc	r5
									}
								}
							}
							for ( int h = 1; h < 8; h++ )
							{
								UnitHandlerPointer->getTimeTable(h, unitID, datablock); // read unit timetable for 1 day.
     770:	70 2e       	mov	r7, r16
     772:	a1 2e       	mov	r10, r17
						}					
					} 
					else 
					{// hent antal af enheder
						for ( unsigned char i = 1; i <= my_unit_count; i++){ // handle each unit ;)
							UnitHandlerPointer->getUnitList(unitListArray); // get unit list
     774:	be 01       	movw	r22, r28
     776:	6f 5f       	subi	r22, 0xFF	; 255
     778:	7f 4f       	sbci	r23, 0xFF	; 255
     77a:	f6 01       	movw	r30, r12
     77c:	83 81       	ldd	r24, Z+3	; 0x03
     77e:	94 81       	ldd	r25, Z+4	; 0x04
     780:	d9 d1       	rcall	.+946    	; 0xb34 <_ZN11UnitHandler11getUnitListEPh>
							for(int j = 0; j<512; j++){ 
     782:	83 2d       	mov	r24, r3
     784:	94 2d       	mov	r25, r4
     786:	14 c0       	rjmp	.+40     	; 0x7b0 <_ZN11PCinterface9handleCMDEv+0x15a>
								if(j%2 != 0){
     788:	80 ff       	sbrs	r24, 0
     78a:	12 c0       	rjmp	.+36     	; 0x7b0 <_ZN11PCinterface9handleCMDEv+0x15a>
     78c:	e1 e0       	ldi	r30, 0x01	; 1
     78e:	f0 e0       	ldi	r31, 0x00	; 0
     790:	ec 0f       	add	r30, r28
     792:	fd 1f       	adc	r31, r29
     794:	e8 0f       	add	r30, r24
     796:	f9 1f       	adc	r31, r25
									if(unitListArray[j] == i){
     798:	20 81       	ld	r18, Z
     79a:	29 11       	cpse	r18, r9
     79c:	09 c0       	rjmp	.+18     	; 0x7b0 <_ZN11PCinterface9handleCMDEv+0x15a>
										unsigned char id = j - 1;
     79e:	81 50       	subi	r24, 0x01	; 1
										unitID = unitListArray[id];
     7a0:	e1 e0       	ldi	r30, 0x01	; 1
     7a2:	f0 e0       	ldi	r31, 0x00	; 0
     7a4:	ec 0f       	add	r30, r28
     7a6:	fd 1f       	adc	r31, r29
     7a8:	e8 0f       	add	r30, r24
     7aa:	f1 1d       	adc	r31, r1
     7ac:	b0 80       	ld	r11, Z
     7ae:	05 c0       	rjmp	.+10     	; 0x7ba <_ZN11PCinterface9handleCMDEv+0x164>
					} 
					else 
					{// hent antal af enheder
						for ( unsigned char i = 1; i <= my_unit_count; i++){ // handle each unit ;)
							UnitHandlerPointer->getUnitList(unitListArray); // get unit list
							for(int j = 0; j<512; j++){ 
     7b0:	01 96       	adiw	r24, 0x01	; 1
     7b2:	81 15       	cp	r24, r1
     7b4:	f2 e0       	ldi	r31, 0x02	; 2
     7b6:	9f 07       	cpc	r25, r31
     7b8:	39 f7       	brne	.-50     	; 0x788 <_ZN11PCinterface9handleCMDEv+0x132>
     7ba:	65 2c       	mov	r6, r5
									}
								}
							}
							for ( int h = 1; h < 8; h++ )
							{
								UnitHandlerPointer->getTimeTable(h, unitID, datablock); // read unit timetable for 1 day.
     7bc:	9e 01       	movw	r18, r28
     7be:	2f 5f       	subi	r18, 0xFF	; 255
     7c0:	3d 4f       	sbci	r19, 0xFD	; 253
     7c2:	4b 2d       	mov	r20, r11
     7c4:	66 2d       	mov	r22, r6
     7c6:	f6 01       	movw	r30, r12
     7c8:	83 81       	ldd	r24, Z+3	; 0x03
     7ca:	94 81       	ldd	r25, Z+4	; 0x04
     7cc:	b7 d5       	rcall	.+2926   	; 0x133c <_ZN11UnitHandler12getTimeTableEhhPh>
     7ce:	07 2d       	mov	r16, r7
     7d0:	1a 2d       	mov	r17, r10
								for ( int t = 0; t < 512; t++){
									uartPointer->sendChar(datablock[t]); // send 1 block of data.
     7d2:	f8 01       	movw	r30, r16
     7d4:	61 91       	ld	r22, Z+
     7d6:	8f 01       	movw	r16, r30
     7d8:	f6 01       	movw	r30, r12
     7da:	85 81       	ldd	r24, Z+5	; 0x05
     7dc:	96 81       	ldd	r25, Z+6	; 0x06
     7de:	9d d1       	rcall	.+826    	; 0xb1a <_ZN4UART8sendCharEc>
								}
							}
							for ( int h = 1; h < 8; h++ )
							{
								UnitHandlerPointer->getTimeTable(h, unitID, datablock); // read unit timetable for 1 day.
								for ( int t = 0; t < 512; t++){
     7e0:	0e 15       	cp	r16, r14
     7e2:	1f 05       	cpc	r17, r15
     7e4:	b1 f7       	brne	.-20     	; 0x7d2 <_ZN11PCinterface9handleCMDEv+0x17c>
     7e6:	63 94       	inc	r6
										unitID = unitListArray[id];
										j = 512;
									}
								}
							}
							for ( int h = 1; h < 8; h++ )
     7e8:	f8 e0       	ldi	r31, 0x08	; 8
     7ea:	6f 12       	cpse	r6, r31
     7ec:	e7 cf       	rjmp	.-50     	; 0x7bc <_ZN11PCinterface9handleCMDEv+0x166>
							uartPointer->sendChar(datablock[i]);
						}					
					} 
					else 
					{// hent antal af enheder
						for ( unsigned char i = 1; i <= my_unit_count; i++){ // handle each unit ;)
     7ee:	93 94       	inc	r9
     7f0:	89 14       	cp	r8, r9
     7f2:	08 f0       	brcs	.+2      	; 0x7f6 <_ZN11PCinterface9handleCMDEv+0x1a0>
     7f4:	bf cf       	rjmp	.-130    	; 0x774 <_ZN11PCinterface9handleCMDEv+0x11e>
     7f6:	04 e0       	ldi	r16, 0x04	; 4
     7f8:	10 e0       	ldi	r17, 0x00	; 0
								}
							}
						}
						// If no more data
						for(int i = 0; i<4; i++){
							uartPointer->sendChar(0xFA);
     7fa:	6a ef       	ldi	r22, 0xFA	; 250
     7fc:	f6 01       	movw	r30, r12
     7fe:	85 81       	ldd	r24, Z+5	; 0x05
     800:	96 81       	ldd	r25, Z+6	; 0x06
     802:	8b d1       	rcall	.+790    	; 0xb1a <_ZN4UART8sendCharEc>
     804:	01 50       	subi	r16, 0x01	; 1
     806:	11 09       	sbc	r17, r1
									uartPointer->sendChar(datablock[t]); // send 1 block of data.
								}
							}
						}
						// If no more data
						for(int i = 0; i<4; i++){
     808:	c1 f7       	brne	.-16     	; 0x7fa <_ZN11PCinterface9handleCMDEv+0x1a4>
     80a:	f1 c0       	rjmp	.+482    	; 0x9ee <_ZN11PCinterface9handleCMDEv+0x398>
							uartPointer->sendChar(0xFA);
						}
					}
				break;
		case 7: // Enhedsinfo fra PC til styreboks 4 til 512 bytes; ack for hver byte efter cmd
			if(getData(datablock) == 2) // get two bytes of data
     80c:	be 01       	movw	r22, r28
     80e:	6f 5f       	subi	r22, 0xFF	; 255
     810:	7d 4f       	sbci	r23, 0xFD	; 253
     812:	c6 01       	movw	r24, r12
     814:	d4 de       	rcall	.-600    	; 0x5be <_ZN11PCinterface7getDataEPh>
     816:	02 97       	sbiw	r24, 0x02	; 2
     818:	01 f5       	brne	.+64     	; 0x85a <_ZN11PCinterface9handleCMDEv+0x204>
			{
				if(datablock[1] == 0x00)
     81a:	ce 5f       	subi	r28, 0xFE	; 254
     81c:	dd 4f       	sbci	r29, 0xFD	; 253
     81e:	48 81       	ld	r20, Y
     820:	c2 50       	subi	r28, 0x02	; 2
     822:	d2 40       	sbci	r29, 0x02	; 2
     824:	41 11       	cpse	r20, r1
     826:	0a c0       	rjmp	.+20     	; 0x83c <_ZN11PCinterface9handleCMDEv+0x1e6>
				{
					UnitHandlerPointer->AddUnit(datablock[0]);	
     828:	cf 5f       	subi	r28, 0xFF	; 255
     82a:	dd 4f       	sbci	r29, 0xFD	; 253
     82c:	68 81       	ld	r22, Y
     82e:	c1 50       	subi	r28, 0x01	; 1
     830:	d2 40       	sbci	r29, 0x02	; 2
     832:	f6 01       	movw	r30, r12
     834:	83 81       	ldd	r24, Z+3	; 0x03
     836:	94 81       	ldd	r25, Z+4	; 0x04
     838:	38 d4       	rcall	.+2160   	; 0x10aa <_ZN11UnitHandler7AddUnitEhh>
     83a:	09 c0       	rjmp	.+18     	; 0x84e <_ZN11PCinterface9handleCMDEv+0x1f8>
				} 
				else
				{
					UnitHandlerPointer->AddUnit(datablock[0], datablock[1]);
     83c:	cf 5f       	subi	r28, 0xFF	; 255
     83e:	dd 4f       	sbci	r29, 0xFD	; 253
     840:	68 81       	ld	r22, Y
     842:	c1 50       	subi	r28, 0x01	; 1
     844:	d2 40       	sbci	r29, 0x02	; 2
     846:	f6 01       	movw	r30, r12
     848:	83 81       	ldd	r24, Z+3	; 0x03
     84a:	94 81       	ldd	r25, Z+4	; 0x04
     84c:	2e d4       	rcall	.+2140   	; 0x10aa <_ZN11UnitHandler7AddUnitEhh>
				}
				uartPointer->sendChar(0x0F);
     84e:	6f e0       	ldi	r22, 0x0F	; 15
     850:	f6 01       	movw	r30, r12
     852:	85 81       	ldd	r24, Z+5	; 0x05
     854:	96 81       	ldd	r25, Z+6	; 0x06
     856:	61 d1       	rcall	.+706    	; 0xb1a <_ZN4UART8sendCharEc>
     858:	ca c0       	rjmp	.+404    	; 0x9ee <_ZN11PCinterface9handleCMDEv+0x398>
     85a:	04 e0       	ldi	r16, 0x04	; 4
     85c:	10 e0       	ldi	r17, 0x00	; 0
			}
			else {
				for(int i = 0; i<4; i++){
					uartPointer->sendChar(0xFA);
     85e:	6a ef       	ldi	r22, 0xFA	; 250
     860:	f6 01       	movw	r30, r12
     862:	85 81       	ldd	r24, Z+5	; 0x05
     864:	96 81       	ldd	r25, Z+6	; 0x06
     866:	59 d1       	rcall	.+690    	; 0xb1a <_ZN4UART8sendCharEc>
     868:	01 50       	subi	r16, 0x01	; 1
     86a:	11 09       	sbc	r17, r1
					UnitHandlerPointer->AddUnit(datablock[0], datablock[1]);
				}
				uartPointer->sendChar(0x0F);
			}
			else {
				for(int i = 0; i<4; i++){
     86c:	c1 f7       	brne	.-16     	; 0x85e <_ZN11PCinterface9handleCMDEv+0x208>
     86e:	bf c0       	rjmp	.+382    	; 0x9ee <_ZN11PCinterface9handleCMDEv+0x398>
					uartPointer->sendChar(0xFA);
				}
			}		
		break;
		case 8: // slet enhed 1 byte;
			if(getData(datablock) == 1){
     870:	be 01       	movw	r22, r28
     872:	6f 5f       	subi	r22, 0xFF	; 255
     874:	7d 4f       	sbci	r23, 0xFD	; 253
     876:	c6 01       	movw	r24, r12
     878:	a2 de       	rcall	.-700    	; 0x5be <_ZN11PCinterface7getDataEPh>
     87a:	01 97       	sbiw	r24, 0x01	; 1
     87c:	e1 f4       	brne	.+56     	; 0x8b6 <_ZN11PCinterface9handleCMDEv+0x260>
				if(UnitHandlerPointer->RemoveUnit(datablock[0]))
     87e:	cf 5f       	subi	r28, 0xFF	; 255
     880:	dd 4f       	sbci	r29, 0xFD	; 253
     882:	68 81       	ld	r22, Y
     884:	c1 50       	subi	r28, 0x01	; 1
     886:	d2 40       	sbci	r29, 0x02	; 2
     888:	f6 01       	movw	r30, r12
     88a:	83 81       	ldd	r24, Z+3	; 0x03
     88c:	94 81       	ldd	r25, Z+4	; 0x04
     88e:	a2 d2       	rcall	.+1348   	; 0xdd4 <_ZN11UnitHandler10RemoveUnitEh>
     890:	88 23       	and	r24, r24
     892:	31 f0       	breq	.+12     	; 0x8a0 <_ZN11PCinterface9handleCMDEv+0x24a>
				{
					uartPointer->sendChar(0x0F);	
     894:	6f e0       	ldi	r22, 0x0F	; 15
     896:	f6 01       	movw	r30, r12
     898:	85 81       	ldd	r24, Z+5	; 0x05
     89a:	96 81       	ldd	r25, Z+6	; 0x06
     89c:	3e d1       	rcall	.+636    	; 0xb1a <_ZN4UART8sendCharEc>
     89e:	a7 c0       	rjmp	.+334    	; 0x9ee <_ZN11PCinterface9handleCMDEv+0x398>
     8a0:	04 e0       	ldi	r16, 0x04	; 4
     8a2:	10 e0       	ldi	r17, 0x00	; 0
				}
				else
				{
					for(int i = 0; i<4; i++){
						uartPointer->sendChar(0xFA);
     8a4:	6a ef       	ldi	r22, 0xFA	; 250
     8a6:	f6 01       	movw	r30, r12
     8a8:	85 81       	ldd	r24, Z+5	; 0x05
     8aa:	96 81       	ldd	r25, Z+6	; 0x06
     8ac:	36 d1       	rcall	.+620    	; 0xb1a <_ZN4UART8sendCharEc>
     8ae:	01 50       	subi	r16, 0x01	; 1
     8b0:	11 09       	sbc	r17, r1
				{
					uartPointer->sendChar(0x0F);	
				}
				else
				{
					for(int i = 0; i<4; i++){
     8b2:	c1 f7       	brne	.-16     	; 0x8a4 <_ZN11PCinterface9handleCMDEv+0x24e>
     8b4:	9c c0       	rjmp	.+312    	; 0x9ee <_ZN11PCinterface9handleCMDEv+0x398>
     8b6:	04 e0       	ldi	r16, 0x04	; 4
     8b8:	10 e0       	ldi	r17, 0x00	; 0
				}
			}
			else
			{
				for(int i = 0; i<4; i++){
					uartPointer->sendChar(0xFA);
     8ba:	6a ef       	ldi	r22, 0xFA	; 250
     8bc:	f6 01       	movw	r30, r12
     8be:	85 81       	ldd	r24, Z+5	; 0x05
     8c0:	96 81       	ldd	r25, Z+6	; 0x06
     8c2:	2b d1       	rcall	.+598    	; 0xb1a <_ZN4UART8sendCharEc>
     8c4:	01 50       	subi	r16, 0x01	; 1
     8c6:	11 09       	sbc	r17, r1
					}
				}
			}
			else
			{
				for(int i = 0; i<4; i++){
     8c8:	c1 f7       	brne	.-16     	; 0x8ba <_ZN11PCinterface9handleCMDEv+0x264>
     8ca:	91 c0       	rjmp	.+290    	; 0x9ee <_ZN11PCinterface9handleCMDEv+0x398>
					uartPointer->sendChar(0xFA);
				}
			}
			break;
		case 9: // Edit Unit
				if(getData(datablock) == 3)
     8cc:	be 01       	movw	r22, r28
     8ce:	6f 5f       	subi	r22, 0xFF	; 255
     8d0:	7d 4f       	sbci	r23, 0xFD	; 253
     8d2:	c6 01       	movw	r24, r12
     8d4:	74 de       	rcall	.-792    	; 0x5be <_ZN11PCinterface7getDataEPh>
     8d6:	03 97       	sbiw	r24, 0x03	; 3
     8d8:	31 f5       	brne	.+76     	; 0x926 <_ZN11PCinterface9handleCMDEv+0x2d0>
				{
					if(UnitHandlerPointer->editUnit(datablock[0], datablock[1], datablock[2]))
     8da:	cd 5f       	subi	r28, 0xFD	; 253
     8dc:	dd 4f       	sbci	r29, 0xFD	; 253
     8de:	28 81       	ld	r18, Y
     8e0:	c3 50       	subi	r28, 0x03	; 3
     8e2:	d2 40       	sbci	r29, 0x02	; 2
     8e4:	ce 5f       	subi	r28, 0xFE	; 254
     8e6:	dd 4f       	sbci	r29, 0xFD	; 253
     8e8:	48 81       	ld	r20, Y
     8ea:	c2 50       	subi	r28, 0x02	; 2
     8ec:	d2 40       	sbci	r29, 0x02	; 2
     8ee:	cf 5f       	subi	r28, 0xFF	; 255
     8f0:	dd 4f       	sbci	r29, 0xFD	; 253
     8f2:	68 81       	ld	r22, Y
     8f4:	c1 50       	subi	r28, 0x01	; 1
     8f6:	d2 40       	sbci	r29, 0x02	; 2
     8f8:	f6 01       	movw	r30, r12
     8fa:	83 81       	ldd	r24, Z+3	; 0x03
     8fc:	94 81       	ldd	r25, Z+4	; 0x04
     8fe:	a0 d5       	rcall	.+2880   	; 0x1440 <_ZN11UnitHandler8editUnitEhhh>
     900:	88 23       	and	r24, r24
     902:	31 f0       	breq	.+12     	; 0x910 <_ZN11PCinterface9handleCMDEv+0x2ba>
					{
						uartPointer->sendChar(0xF0);	
     904:	60 ef       	ldi	r22, 0xF0	; 240
     906:	f6 01       	movw	r30, r12
     908:	85 81       	ldd	r24, Z+5	; 0x05
     90a:	96 81       	ldd	r25, Z+6	; 0x06
     90c:	06 d1       	rcall	.+524    	; 0xb1a <_ZN4UART8sendCharEc>
     90e:	6f c0       	rjmp	.+222    	; 0x9ee <_ZN11PCinterface9handleCMDEv+0x398>
     910:	04 e0       	ldi	r16, 0x04	; 4
     912:	10 e0       	ldi	r17, 0x00	; 0
					}
					else
					{
						for(int i = 0; i<4; i++){
							uartPointer->sendChar(0xFA);
     914:	6a ef       	ldi	r22, 0xFA	; 250
     916:	f6 01       	movw	r30, r12
     918:	85 81       	ldd	r24, Z+5	; 0x05
     91a:	96 81       	ldd	r25, Z+6	; 0x06
     91c:	fe d0       	rcall	.+508    	; 0xb1a <_ZN4UART8sendCharEc>
     91e:	01 50       	subi	r16, 0x01	; 1
     920:	11 09       	sbc	r17, r1
					{
						uartPointer->sendChar(0xF0);	
					}
					else
					{
						for(int i = 0; i<4; i++){
     922:	c1 f7       	brne	.-16     	; 0x914 <_ZN11PCinterface9handleCMDEv+0x2be>
     924:	64 c0       	rjmp	.+200    	; 0x9ee <_ZN11PCinterface9handleCMDEv+0x398>
     926:	04 e0       	ldi	r16, 0x04	; 4
     928:	10 e0       	ldi	r17, 0x00	; 0
					}
				}		
				else
				{
					for(int i = 0; i<4; i++){
						uartPointer->sendChar(0xFA);
     92a:	6a ef       	ldi	r22, 0xFA	; 250
     92c:	f6 01       	movw	r30, r12
     92e:	85 81       	ldd	r24, Z+5	; 0x05
     930:	96 81       	ldd	r25, Z+6	; 0x06
     932:	f3 d0       	rcall	.+486    	; 0xb1a <_ZN4UART8sendCharEc>
     934:	01 50       	subi	r16, 0x01	; 1
     936:	11 09       	sbc	r17, r1
						}
					}
				}		
				else
				{
					for(int i = 0; i<4; i++){
     938:	c1 f7       	brne	.-16     	; 0x92a <_ZN11PCinterface9handleCMDEv+0x2d4>
     93a:	59 c0       	rjmp	.+178    	; 0x9ee <_ZN11PCinterface9handleCMDEv+0x398>
						uartPointer->sendChar(0xFA);
					}	
				}								 
				break;
		case 10: // update tidsplan 512 bytes;
			uartPointer->sendChar(0x0F);
     93c:	6f e0       	ldi	r22, 0x0F	; 15
     93e:	f6 01       	movw	r30, r12
     940:	85 81       	ldd	r24, Z+5	; 0x05
     942:	96 81       	ldd	r25, Z+6	; 0x06
     944:	ea d0       	rcall	.+468    	; 0xb1a <_ZN4UART8sendCharEc>
			numberoffields = getData(datablock);
     946:	be 01       	movw	r22, r28
     948:	6f 5f       	subi	r22, 0xFF	; 255
     94a:	7d 4f       	sbci	r23, 0xFD	; 253
     94c:	c6 01       	movw	r24, r12
     94e:	37 de       	rcall	.-914    	; 0x5be <_ZN11PCinterface7getDataEPh>
     950:	bc 01       	movw	r22, r24
			if(numberoffields)
     952:	89 2b       	or	r24, r25
     954:	a1 f1       	breq	.+104    	; 0x9be <_ZN11PCinterface9handleCMDEv+0x368>
     956:	fe 01       	movw	r30, r28
     958:	31 96       	adiw	r30, 0x01	; 1
     95a:	ce 01       	movw	r24, r28
     95c:	8f 5f       	subi	r24, 0xFF	; 255
     95e:	9d 4f       	sbci	r25, 0xFD	; 253
			{
				unsigned char tempArray[512];
				for( int q = 0; q < 512; q++){
					tempArray[q] = 0x00;
     960:	11 92       	st	Z+, r1
			uartPointer->sendChar(0x0F);
			numberoffields = getData(datablock);
			if(numberoffields)
			{
				unsigned char tempArray[512];
				for( int q = 0; q < 512; q++){
     962:	e8 17       	cp	r30, r24
     964:	f9 07       	cpc	r31, r25
     966:	e1 f7       	brne	.-8      	; 0x960 <_ZN11PCinterface9handleCMDEv+0x30a>
					tempArray[q] = 0x00;
				}
				unsigned char offset = 0;
				for( int i = 0; i < numberoffields; i++ ){
     968:	16 16       	cp	r1, r22
     96a:	17 06       	cpc	r1, r23
     96c:	9c f5       	brge	.+102    	; 0x9d4 <_ZN11PCinterface9handleCMDEv+0x37e>
     96e:	20 e0       	ldi	r18, 0x00	; 0
     970:	30 e0       	ldi	r19, 0x00	; 0
					
					if(i > 0){
     972:	12 16       	cp	r1, r18
     974:	13 06       	cpc	r1, r19
     976:	1c f4       	brge	.+6      	; 0x97e <_ZN11PCinterface9handleCMDEv+0x328>
     978:	91 e0       	ldi	r25, 0x01	; 1
     97a:	92 0f       	add	r25, r18
     97c:	01 c0       	rjmp	.+2      	; 0x980 <_ZN11PCinterface9handleCMDEv+0x32a>
						offset = i+1;
					} else {
						offset = i;
     97e:	92 2f       	mov	r25, r18
					}
					tempArray[offset] = datablock[i];
     980:	f8 01       	movw	r30, r16
     982:	41 91       	ld	r20, Z+
     984:	8f 01       	movw	r16, r30
     986:	e1 e0       	ldi	r30, 0x01	; 1
     988:	f0 e0       	ldi	r31, 0x00	; 0
     98a:	ec 0f       	add	r30, r28
     98c:	fd 1f       	adc	r31, r29
     98e:	e9 0f       	add	r30, r25
     990:	f1 1d       	adc	r31, r1
     992:	40 83       	st	Z, r20
				unsigned char tempArray[512];
				for( int q = 0; q < 512; q++){
					tempArray[q] = 0x00;
				}
				unsigned char offset = 0;
				for( int i = 0; i < numberoffields; i++ ){
     994:	2f 5f       	subi	r18, 0xFF	; 255
     996:	3f 4f       	sbci	r19, 0xFF	; 255
     998:	62 17       	cp	r22, r18
     99a:	73 07       	cpc	r23, r19
     99c:	51 f7       	brne	.-44     	; 0x972 <_ZN11PCinterface9handleCMDEv+0x31c>
     99e:	1a c0       	rjmp	.+52     	; 0x9d4 <_ZN11PCinterface9handleCMDEv+0x37e>
					}
					tempArray[offset] = datablock[i];
				}
				if(UnitHandlerPointer->UpdateTime(tempArray[0], tempArray))
				{
					uartPointer->sendChar(0x0F);
     9a0:	6f e0       	ldi	r22, 0x0F	; 15
     9a2:	f6 01       	movw	r30, r12
     9a4:	85 81       	ldd	r24, Z+5	; 0x05
     9a6:	96 81       	ldd	r25, Z+6	; 0x06
     9a8:	b8 d0       	rcall	.+368    	; 0xb1a <_ZN4UART8sendCharEc>
     9aa:	21 c0       	rjmp	.+66     	; 0x9ee <_ZN11PCinterface9handleCMDEv+0x398>
				}
				else
				{
					for(int i = 0; i<4; i++){
						uartPointer->sendChar(0xFA);
     9ac:	6a ef       	ldi	r22, 0xFA	; 250
     9ae:	f6 01       	movw	r30, r12
     9b0:	85 81       	ldd	r24, Z+5	; 0x05
     9b2:	96 81       	ldd	r25, Z+6	; 0x06
     9b4:	b2 d0       	rcall	.+356    	; 0xb1a <_ZN4UART8sendCharEc>
     9b6:	01 50       	subi	r16, 0x01	; 1
     9b8:	11 09       	sbc	r17, r1
				{
					uartPointer->sendChar(0x0F);
				}
				else
				{
					for(int i = 0; i<4; i++){
     9ba:	c1 f7       	brne	.-16     	; 0x9ac <_ZN11PCinterface9handleCMDEv+0x356>
     9bc:	18 c0       	rjmp	.+48     	; 0x9ee <_ZN11PCinterface9handleCMDEv+0x398>
     9be:	04 e0       	ldi	r16, 0x04	; 4
     9c0:	10 e0       	ldi	r17, 0x00	; 0
					}
				}
			}
			else {
				for(int i = 0; i<4; i++){
					uartPointer->sendChar(0xFA);
     9c2:	6a ef       	ldi	r22, 0xFA	; 250
     9c4:	f6 01       	movw	r30, r12
     9c6:	85 81       	ldd	r24, Z+5	; 0x05
     9c8:	96 81       	ldd	r25, Z+6	; 0x06
     9ca:	a7 d0       	rcall	.+334    	; 0xb1a <_ZN4UART8sendCharEc>
     9cc:	01 50       	subi	r16, 0x01	; 1
     9ce:	11 09       	sbc	r17, r1
						uartPointer->sendChar(0xFA);
					}
				}
			}
			else {
				for(int i = 0; i<4; i++){
     9d0:	c1 f7       	brne	.-16     	; 0x9c2 <_ZN11PCinterface9handleCMDEv+0x36c>
     9d2:	0d c0       	rjmp	.+26     	; 0x9ee <_ZN11PCinterface9handleCMDEv+0x398>
					} else {
						offset = i;
					}
					tempArray[offset] = datablock[i];
				}
				if(UnitHandlerPointer->UpdateTime(tempArray[0], tempArray))
     9d4:	ae 01       	movw	r20, r28
     9d6:	4f 5f       	subi	r20, 0xFF	; 255
     9d8:	5f 4f       	sbci	r21, 0xFF	; 255
     9da:	69 81       	ldd	r22, Y+1	; 0x01
     9dc:	f6 01       	movw	r30, r12
     9de:	83 81       	ldd	r24, Z+3	; 0x03
     9e0:	94 81       	ldd	r25, Z+4	; 0x04
     9e2:	28 d4       	rcall	.+2128   	; 0x1234 <_ZN11UnitHandler10UpdateTimeEhPh>
     9e4:	81 11       	cpse	r24, r1
     9e6:	dc cf       	rjmp	.-72     	; 0x9a0 <_ZN11PCinterface9handleCMDEv+0x34a>
     9e8:	04 e0       	ldi	r16, 0x04	; 4
     9ea:	10 e0       	ldi	r17, 0x00	; 0
     9ec:	df cf       	rjmp	.-66     	; 0x9ac <_ZN11PCinterface9handleCMDEv+0x356>
			break;
		case 11: // Set time 7 bytees;
			// ikke implementereret i pc software.
			break;
	}
}
     9ee:	80 e0       	ldi	r24, 0x00	; 0
     9f0:	ce 5f       	subi	r28, 0xFE	; 254
     9f2:	db 4f       	sbci	r29, 0xFB	; 251
     9f4:	0f b6       	in	r0, 0x3f	; 63
     9f6:	f8 94       	cli
     9f8:	de bf       	out	0x3e, r29	; 62
     9fa:	0f be       	out	0x3f, r0	; 63
     9fc:	cd bf       	out	0x3d, r28	; 61
     9fe:	df 91       	pop	r29
     a00:	cf 91       	pop	r28
     a02:	1f 91       	pop	r17
     a04:	0f 91       	pop	r16
     a06:	ff 90       	pop	r15
     a08:	ef 90       	pop	r14
     a0a:	df 90       	pop	r13
     a0c:	cf 90       	pop	r12
     a0e:	bf 90       	pop	r11
     a10:	af 90       	pop	r10
     a12:	9f 90       	pop	r9
     a14:	8f 90       	pop	r8
     a16:	7f 90       	pop	r7
     a18:	6f 90       	pop	r6
     a1a:	5f 90       	pop	r5
     a1c:	4f 90       	pop	r4
     a1e:	3f 90       	pop	r3
     a20:	08 95       	ret

00000a22 <_ZN11PCinterface12returnStatusEv>:

void PCinterface::returnStatus(){
     a22:	cf 93       	push	r28
     a24:	df 93       	push	r29
	if(needRunGetStatus){
     a26:	fc 01       	movw	r30, r24
     a28:	21 85       	ldd	r18, Z+9	; 0x09
     a2a:	22 23       	and	r18, r18
     a2c:	e9 f0       	breq	.+58     	; 0xa68 <_ZN11PCinterface12returnStatusEv+0x46>
     a2e:	ec 01       	movw	r28, r24
		if(x10Pointer->getUnitStatus(unitAdress, currentUnitStatus)) // get status from unit and store it into unitstatus
     a30:	ac 01       	movw	r20, r24
     a32:	45 5f       	subi	r20, 0xF5	; 245
     a34:	5f 4f       	sbci	r21, 0xFF	; 255
     a36:	62 85       	ldd	r22, Z+10	; 0x0a
     a38:	87 81       	ldd	r24, Z+7	; 0x07
     a3a:	90 85       	ldd	r25, Z+8	; 0x08
     a3c:	0e 94 6b 0f 	call	0x1ed6	; 0x1ed6 <_ZN3X1013getUnitStatusEhRb>
     a40:	88 23       	and	r24, r24
     a42:	69 f0       	breq	.+26     	; 0xa5e <_ZN11PCinterface12returnStatusEv+0x3c>
		{
			if(currentUnitStatus == true)
     a44:	8b 85       	ldd	r24, Y+11	; 0x0b
     a46:	88 23       	and	r24, r24
     a48:	29 f0       	breq	.+10     	; 0xa54 <_ZN11PCinterface12returnStatusEv+0x32>
			{ // return true response
				uartPointer->sendChar(0x01);
     a4a:	61 e0       	ldi	r22, 0x01	; 1
     a4c:	8d 81       	ldd	r24, Y+5	; 0x05
     a4e:	9e 81       	ldd	r25, Y+6	; 0x06
     a50:	64 d0       	rcall	.+200    	; 0xb1a <_ZN4UART8sendCharEc>
     a52:	09 c0       	rjmp	.+18     	; 0xa66 <_ZN11PCinterface12returnStatusEv+0x44>
			}
			else // handles false
			{
				uartPointer->sendChar(0x00);
     a54:	60 e0       	ldi	r22, 0x00	; 0
     a56:	8d 81       	ldd	r24, Y+5	; 0x05
     a58:	9e 81       	ldd	r25, Y+6	; 0x06
     a5a:	5f d0       	rcall	.+190    	; 0xb1a <_ZN4UART8sendCharEc>
     a5c:	04 c0       	rjmp	.+8      	; 0xa66 <_ZN11PCinterface12returnStatusEv+0x44>
		}
		else 
		{
		// location for adding error handling
		// currently just sets status to false
			uartPointer->sendChar(0xFA);
     a5e:	6a ef       	ldi	r22, 0xFA	; 250
     a60:	8d 81       	ldd	r24, Y+5	; 0x05
     a62:	9e 81       	ldd	r25, Y+6	; 0x06
     a64:	5a d0       	rcall	.+180    	; 0xb1a <_ZN4UART8sendCharEc>
		}
		needRunGetStatus = false;
     a66:	19 86       	std	Y+9, r1	; 0x09
	}
     a68:	df 91       	pop	r29
     a6a:	cf 91       	pop	r28
     a6c:	08 95       	ret

00000a6e <_ZN4UARTC1Emhc>:
}

unsigned char UART::charReady()
{
	return UCSR0A & (1<<7);
}
     a6e:	0f 93       	push	r16
     a70:	db 01       	movw	r26, r22
     a72:	ca 01       	movw	r24, r20
     a74:	8e 56       	subi	r24, 0x6E	; 110
     a76:	91 09       	sbc	r25, r1
     a78:	a1 09       	sbc	r26, r1
     a7a:	b1 09       	sbc	r27, r1
     a7c:	83 39       	cpi	r24, 0x93	; 147
     a7e:	91 4c       	sbci	r25, 0xC1	; 193
     a80:	a1 40       	sbci	r26, 0x01	; 1
     a82:	b1 05       	cpc	r27, r1
     a84:	88 f5       	brcc	.+98     	; 0xae8 <_ZN4UARTC1Emhc+0x7a>
     a86:	25 50       	subi	r18, 0x05	; 5
     a88:	24 30       	cpi	r18, 0x04	; 4
     a8a:	70 f5       	brcc	.+92     	; 0xae8 <_ZN4UARTC1Emhc+0x7a>
     a8c:	80 e2       	ldi	r24, 0x20	; 32
     a8e:	80 93 c0 00 	sts	0x00C0, r24
     a92:	88 e9       	ldi	r24, 0x98	; 152
     a94:	80 93 c1 00 	sts	0x00C1, r24
     a98:	22 0f       	add	r18, r18
     a9a:	20 93 c2 00 	sts	0x00C2, r18
     a9e:	44 0f       	add	r20, r20
     aa0:	55 1f       	adc	r21, r21
     aa2:	66 1f       	adc	r22, r22
     aa4:	77 1f       	adc	r23, r23
     aa6:	44 0f       	add	r20, r20
     aa8:	55 1f       	adc	r21, r21
     aaa:	66 1f       	adc	r22, r22
     aac:	77 1f       	adc	r23, r23
     aae:	9a 01       	movw	r18, r20
     ab0:	ab 01       	movw	r20, r22
     ab2:	22 0f       	add	r18, r18
     ab4:	33 1f       	adc	r19, r19
     ab6:	44 1f       	adc	r20, r20
     ab8:	55 1f       	adc	r21, r21
     aba:	22 0f       	add	r18, r18
     abc:	33 1f       	adc	r19, r19
     abe:	44 1f       	adc	r20, r20
     ac0:	55 1f       	adc	r21, r21
     ac2:	60 e0       	ldi	r22, 0x00	; 0
     ac4:	74 e2       	ldi	r23, 0x24	; 36
     ac6:	84 ef       	ldi	r24, 0xF4	; 244
     ac8:	90 e0       	ldi	r25, 0x00	; 0
     aca:	0e 94 72 13 	call	0x26e4	; 0x26e4 <__udivmodsi4>
     ace:	da 01       	movw	r26, r20
     ad0:	c9 01       	movw	r24, r18
     ad2:	01 97       	sbiw	r24, 0x01	; 1
     ad4:	a1 09       	sbc	r26, r1
     ad6:	b1 09       	sbc	r27, r1
     ad8:	80 93 c4 00 	sts	0x00C4, r24
     adc:	89 2f       	mov	r24, r25
     ade:	9a 2f       	mov	r25, r26
     ae0:	ab 2f       	mov	r26, r27
     ae2:	bb 27       	eor	r27, r27
     ae4:	80 93 c5 00 	sts	0x00C5, r24
     ae8:	05 34       	cpi	r16, 0x45	; 69
     aea:	31 f4       	brne	.+12     	; 0xaf8 <_ZN4UARTC1Emhc+0x8a>
     aec:	e2 ec       	ldi	r30, 0xC2	; 194
     aee:	f0 e0       	ldi	r31, 0x00	; 0
     af0:	80 81       	ld	r24, Z
     af2:	80 62       	ori	r24, 0x20	; 32
     af4:	80 83       	st	Z, r24
     af6:	07 c0       	rjmp	.+14     	; 0xb06 <_ZN4UARTC1Emhc+0x98>
     af8:	0f 34       	cpi	r16, 0x4F	; 79
     afa:	29 f4       	brne	.+10     	; 0xb06 <_ZN4UARTC1Emhc+0x98>
     afc:	e2 ec       	ldi	r30, 0xC2	; 194
     afe:	f0 e0       	ldi	r31, 0x00	; 0
     b00:	80 81       	ld	r24, Z
     b02:	80 63       	ori	r24, 0x30	; 48
     b04:	80 83       	st	Z, r24
     b06:	0f 91       	pop	r16
     b08:	08 95       	ret

00000b0a <_ZN4UART8readCharEv>:

char UART::readChar()
{
	while ((UCSR0A & 0b10000000) == 0)
     b0a:	e0 ec       	ldi	r30, 0xC0	; 192
     b0c:	f0 e0       	ldi	r31, 0x00	; 0
     b0e:	80 81       	ld	r24, Z
     b10:	88 23       	and	r24, r24
     b12:	ec f7       	brge	.-6      	; 0xb0e <_ZN4UART8readCharEv+0x4>
	{}
	return UDR0;
     b14:	80 91 c6 00 	lds	r24, 0x00C6
}
     b18:	08 95       	ret

00000b1a <_ZN4UART8sendCharEc>:

void UART::sendChar(char character)
{
	while ((UCSR0A & 0b00100000) == 0)
     b1a:	e0 ec       	ldi	r30, 0xC0	; 192
     b1c:	f0 e0       	ldi	r31, 0x00	; 0
     b1e:	80 81       	ld	r24, Z
     b20:	85 ff       	sbrs	r24, 5
     b22:	fd cf       	rjmp	.-6      	; 0xb1e <_ZN4UART8sendCharEc+0x4>
	{}
	UDR0 = character;
     b24:	60 93 c6 00 	sts	0x00C6, r22
     b28:	08 95       	ret

00000b2a <_ZN11UnitHandlerC1EP6sdCard>:
				i = numberOfUnits + 1;
			}
		}		
	}
	return true;
}
     b2a:	fc 01       	movw	r30, r24
     b2c:	71 83       	std	Z+1, r23	; 0x01
     b2e:	60 83       	st	Z, r22
     b30:	12 82       	std	Z+2, r1	; 0x02
     b32:	08 95       	ret

00000b34 <_ZN11UnitHandler11getUnitListEPh>:
     b34:	9b 01       	movw	r18, r22
     b36:	40 e0       	ldi	r20, 0x00	; 0
     b38:	50 e0       	ldi	r21, 0x00	; 0
     b3a:	ba 01       	movw	r22, r20
     b3c:	fc 01       	movw	r30, r24
     b3e:	80 81       	ld	r24, Z
     b40:	91 81       	ldd	r25, Z+1	; 0x01
     b42:	0c 94 10 0e 	jmp	0x1c20	; 0x1c20 <_ZN6sdCard9readBlockEmPh>
     b46:	08 95       	ret

00000b48 <_ZN11UnitHandler18checkStdAssignmentEv>:
     b48:	0f 93       	push	r16
     b4a:	1f 93       	push	r17
     b4c:	cf 93       	push	r28
     b4e:	df 93       	push	r29
     b50:	cd b7       	in	r28, 0x3d	; 61
     b52:	de b7       	in	r29, 0x3e	; 62
     b54:	d2 50       	subi	r29, 0x02	; 2
     b56:	0f b6       	in	r0, 0x3f	; 63
     b58:	f8 94       	cli
     b5a:	de bf       	out	0x3e, r29	; 62
     b5c:	0f be       	out	0x3f, r0	; 63
     b5e:	cd bf       	out	0x3d, r28	; 61
     b60:	8c 01       	movw	r16, r24
     b62:	be 01       	movw	r22, r28
     b64:	6f 5f       	subi	r22, 0xFF	; 255
     b66:	7f 4f       	sbci	r23, 0xFF	; 255
     b68:	e5 df       	rcall	.-54     	; 0xb34 <_ZN11UnitHandler11getUnitListEPh>
     b6a:	20 e0       	ldi	r18, 0x00	; 0
     b6c:	30 e0       	ldi	r19, 0x00	; 0
     b6e:	0d c0       	rjmp	.+26     	; 0xb8a <_ZN11UnitHandler18checkStdAssignmentEv+0x42>
     b70:	20 ff       	sbrs	r18, 0
     b72:	0b c0       	rjmp	.+22     	; 0xb8a <_ZN11UnitHandler18checkStdAssignmentEv+0x42>
     b74:	f8 01       	movw	r30, r16
     b76:	42 81       	ldd	r20, Z+2	; 0x02
     b78:	e1 e0       	ldi	r30, 0x01	; 1
     b7a:	f0 e0       	ldi	r31, 0x00	; 0
     b7c:	ec 0f       	add	r30, r28
     b7e:	fd 1f       	adc	r31, r29
     b80:	e2 0f       	add	r30, r18
     b82:	f3 1f       	adc	r31, r19
     b84:	90 81       	ld	r25, Z
     b86:	49 17       	cp	r20, r25
     b88:	41 f0       	breq	.+16     	; 0xb9a <_ZN11UnitHandler18checkStdAssignmentEv+0x52>
     b8a:	2f 5f       	subi	r18, 0xFF	; 255
     b8c:	3f 4f       	sbci	r19, 0xFF	; 255
     b8e:	21 15       	cp	r18, r1
     b90:	f2 e0       	ldi	r31, 0x02	; 2
     b92:	3f 07       	cpc	r19, r31
     b94:	69 f7       	brne	.-38     	; 0xb70 <_ZN11UnitHandler18checkStdAssignmentEv+0x28>
     b96:	81 e0       	ldi	r24, 0x01	; 1
     b98:	01 c0       	rjmp	.+2      	; 0xb9c <_ZN11UnitHandler18checkStdAssignmentEv+0x54>
     b9a:	80 e0       	ldi	r24, 0x00	; 0
     b9c:	de 5f       	subi	r29, 0xFE	; 254
     b9e:	0f b6       	in	r0, 0x3f	; 63
     ba0:	f8 94       	cli
     ba2:	de bf       	out	0x3e, r29	; 62
     ba4:	0f be       	out	0x3f, r0	; 63
     ba6:	cd bf       	out	0x3d, r28	; 61
     ba8:	df 91       	pop	r29
     baa:	cf 91       	pop	r28
     bac:	1f 91       	pop	r17
     bae:	0f 91       	pop	r16
     bb0:	08 95       	ret

00000bb2 <_ZN11UnitHandler13addUnitToListEhh>:
     bb2:	ef 92       	push	r14
     bb4:	ff 92       	push	r15
     bb6:	0f 93       	push	r16
     bb8:	1f 93       	push	r17
     bba:	cf 93       	push	r28
     bbc:	df 93       	push	r29
     bbe:	cd b7       	in	r28, 0x3d	; 61
     bc0:	de b7       	in	r29, 0x3e	; 62
     bc2:	d2 50       	subi	r29, 0x02	; 2
     bc4:	0f b6       	in	r0, 0x3f	; 63
     bc6:	f8 94       	cli
     bc8:	de bf       	out	0x3e, r29	; 62
     bca:	0f be       	out	0x3f, r0	; 63
     bcc:	cd bf       	out	0x3d, r28	; 61
     bce:	8c 01       	movw	r16, r24
     bd0:	e6 2e       	mov	r14, r22
     bd2:	f4 2e       	mov	r15, r20
     bd4:	be 01       	movw	r22, r28
     bd6:	6f 5f       	subi	r22, 0xFF	; 255
     bd8:	7f 4f       	sbci	r23, 0xFF	; 255
     bda:	ac df       	rcall	.-168    	; 0xb34 <_ZN11UnitHandler11getUnitListEPh>
     bdc:	fe 01       	movw	r30, r28
     bde:	31 96       	adiw	r30, 0x01	; 1
     be0:	20 e0       	ldi	r18, 0x00	; 0
     be2:	30 e0       	ldi	r19, 0x00	; 0
     be4:	91 91       	ld	r25, Z+
     be6:	99 23       	and	r25, r25
     be8:	49 f0       	breq	.+18     	; 0xbfc <_ZN11UnitHandler13addUnitToListEhh+0x4a>
     bea:	2f 5f       	subi	r18, 0xFF	; 255
     bec:	3f 4f       	sbci	r19, 0xFF	; 255
     bee:	21 15       	cp	r18, r1
     bf0:	82 e0       	ldi	r24, 0x02	; 2
     bf2:	38 07       	cpc	r19, r24
     bf4:	b9 f7       	brne	.-18     	; 0xbe4 <_ZN11UnitHandler13addUnitToListEhh+0x32>
     bf6:	20 e0       	ldi	r18, 0x00	; 0
     bf8:	30 e0       	ldi	r19, 0x00	; 0
     bfa:	03 c0       	rjmp	.+6      	; 0xc02 <_ZN11UnitHandler13addUnitToListEhh+0x50>
     bfc:	21 15       	cp	r18, r1
     bfe:	31 05       	cpc	r19, r1
     c00:	19 f4       	brne	.+6      	; 0xc08 <_ZN11UnitHandler13addUnitToListEhh+0x56>
     c02:	89 81       	ldd	r24, Y+1	; 0x01
     c04:	81 11       	cpse	r24, r1
     c06:	17 c0       	rjmp	.+46     	; 0xc36 <_ZN11UnitHandler13addUnitToListEhh+0x84>
     c08:	e1 e0       	ldi	r30, 0x01	; 1
     c0a:	f0 e0       	ldi	r31, 0x00	; 0
     c0c:	ec 0f       	add	r30, r28
     c0e:	fd 1f       	adc	r31, r29
     c10:	e2 0f       	add	r30, r18
     c12:	f3 1f       	adc	r31, r19
     c14:	e0 82       	st	Z, r14
     c16:	fe 01       	movw	r30, r28
     c18:	e2 0f       	add	r30, r18
     c1a:	f3 1f       	adc	r31, r19
     c1c:	f2 82       	std	Z+2, r15	; 0x02
     c1e:	9e 01       	movw	r18, r28
     c20:	2f 5f       	subi	r18, 0xFF	; 255
     c22:	3f 4f       	sbci	r19, 0xFF	; 255
     c24:	40 e0       	ldi	r20, 0x00	; 0
     c26:	50 e0       	ldi	r21, 0x00	; 0
     c28:	ba 01       	movw	r22, r20
     c2a:	f8 01       	movw	r30, r16
     c2c:	80 81       	ld	r24, Z
     c2e:	91 81       	ldd	r25, Z+1	; 0x01
     c30:	0e 94 76 0e 	call	0x1cec	; 0x1cec <_ZN6sdCard10writeBlockEmPKh>
     c34:	01 c0       	rjmp	.+2      	; 0xc38 <_ZN11UnitHandler13addUnitToListEhh+0x86>
     c36:	80 e0       	ldi	r24, 0x00	; 0
     c38:	de 5f       	subi	r29, 0xFE	; 254
     c3a:	0f b6       	in	r0, 0x3f	; 63
     c3c:	f8 94       	cli
     c3e:	de bf       	out	0x3e, r29	; 62
     c40:	0f be       	out	0x3f, r0	; 63
     c42:	cd bf       	out	0x3d, r28	; 61
     c44:	df 91       	pop	r29
     c46:	cf 91       	pop	r28
     c48:	1f 91       	pop	r17
     c4a:	0f 91       	pop	r16
     c4c:	ff 90       	pop	r15
     c4e:	ef 90       	pop	r14
     c50:	08 95       	ret

00000c52 <_ZN11UnitHandler18removeUnitFromListEh>:
     c52:	ff 92       	push	r15
     c54:	0f 93       	push	r16
     c56:	1f 93       	push	r17
     c58:	cf 93       	push	r28
     c5a:	df 93       	push	r29
     c5c:	cd b7       	in	r28, 0x3d	; 61
     c5e:	de b7       	in	r29, 0x3e	; 62
     c60:	d4 50       	subi	r29, 0x04	; 4
     c62:	0f b6       	in	r0, 0x3f	; 63
     c64:	f8 94       	cli
     c66:	de bf       	out	0x3e, r29	; 62
     c68:	0f be       	out	0x3f, r0	; 63
     c6a:	cd bf       	out	0x3d, r28	; 61
     c6c:	8c 01       	movw	r16, r24
     c6e:	f6 2e       	mov	r15, r22
     c70:	be 01       	movw	r22, r28
     c72:	6f 5f       	subi	r22, 0xFF	; 255
     c74:	7d 4f       	sbci	r23, 0xFD	; 253
     c76:	80 e0       	ldi	r24, 0x00	; 0
     c78:	92 e0       	ldi	r25, 0x02	; 2
     c7a:	db 01       	movw	r26, r22
     c7c:	fc 01       	movw	r30, r24
     c7e:	1d 92       	st	X+, r1
     c80:	31 97       	sbiw	r30, 0x01	; 1
     c82:	e9 f7       	brne	.-6      	; 0xc7e <_ZN11UnitHandler18removeUnitFromListEh+0x2c>
     c84:	c8 01       	movw	r24, r16
     c86:	56 df       	rcall	.-340    	; 0xb34 <_ZN11UnitHandler11getUnitListEPh>
     c88:	40 e0       	ldi	r20, 0x00	; 0
     c8a:	50 e0       	ldi	r21, 0x00	; 0
     c8c:	40 fd       	sbrc	r20, 0
     c8e:	09 c0       	rjmp	.+18     	; 0xca2 <_ZN11UnitHandler18removeUnitFromListEh+0x50>
     c90:	e1 e0       	ldi	r30, 0x01	; 1
     c92:	f2 e0       	ldi	r31, 0x02	; 2
     c94:	ec 0f       	add	r30, r28
     c96:	fd 1f       	adc	r31, r29
     c98:	e4 0f       	add	r30, r20
     c9a:	f5 1f       	adc	r31, r21
     c9c:	80 81       	ld	r24, Z
     c9e:	8f 15       	cp	r24, r15
     ca0:	39 f0       	breq	.+14     	; 0xcb0 <_ZN11UnitHandler18removeUnitFromListEh+0x5e>
     ca2:	4f 5f       	subi	r20, 0xFF	; 255
     ca4:	5f 4f       	sbci	r21, 0xFF	; 255
     ca6:	41 15       	cp	r20, r1
     ca8:	f2 e0       	ldi	r31, 0x02	; 2
     caa:	5f 07       	cpc	r21, r31
     cac:	79 f7       	brne	.-34     	; 0xc8c <_ZN11UnitHandler18removeUnitFromListEh+0x3a>
     cae:	40 e0       	ldi	r20, 0x00	; 0
     cb0:	fe 01       	movw	r30, r28
     cb2:	31 96       	adiw	r30, 0x01	; 1
     cb4:	80 e0       	ldi	r24, 0x00	; 0
     cb6:	92 e0       	ldi	r25, 0x02	; 2
     cb8:	df 01       	movw	r26, r30
     cba:	9c 01       	movw	r18, r24
     cbc:	1d 92       	st	X+, r1
     cbe:	21 50       	subi	r18, 0x01	; 1
     cc0:	30 40       	sbci	r19, 0x00	; 0
     cc2:	e1 f7       	brne	.-8      	; 0xcbc <_ZN11UnitHandler18removeUnitFromListEh+0x6a>
     cc4:	be 01       	movw	r22, r28
     cc6:	6f 5f       	subi	r22, 0xFF	; 255
     cc8:	7d 4f       	sbci	r23, 0xFD	; 253
     cca:	22 e0       	ldi	r18, 0x02	; 2
     ccc:	30 e0       	ldi	r19, 0x00	; 0
     cce:	50 e0       	ldi	r21, 0x00	; 0
     cd0:	2f 3f       	cpi	r18, 0xFF	; 255
     cd2:	81 e0       	ldi	r24, 0x01	; 1
     cd4:	38 07       	cpc	r19, r24
     cd6:	9c f4       	brge	.+38     	; 0xcfe <_ZN11UnitHandler18removeUnitFromListEh+0xac>
     cd8:	c9 01       	movw	r24, r18
     cda:	02 97       	sbiw	r24, 0x02	; 2
     cdc:	84 17       	cp	r24, r20
     cde:	95 07       	cpc	r25, r21
     ce0:	54 f0       	brlt	.+20     	; 0xcf6 <_ZN11UnitHandler18removeUnitFromListEh+0xa4>
     ce2:	81 e0       	ldi	r24, 0x01	; 1
     ce4:	92 e0       	ldi	r25, 0x02	; 2
     ce6:	8c 0f       	add	r24, r28
     ce8:	9d 1f       	adc	r25, r29
     cea:	82 0f       	add	r24, r18
     cec:	93 1f       	adc	r25, r19
     cee:	dc 01       	movw	r26, r24
     cf0:	8c 91       	ld	r24, X
     cf2:	80 83       	st	Z, r24
     cf4:	06 c0       	rjmp	.+12     	; 0xd02 <_ZN11UnitHandler18removeUnitFromListEh+0xb0>
     cf6:	db 01       	movw	r26, r22
     cf8:	8c 91       	ld	r24, X
     cfa:	80 83       	st	Z, r24
     cfc:	02 c0       	rjmp	.+4      	; 0xd02 <_ZN11UnitHandler18removeUnitFromListEh+0xb0>
     cfe:	db 01       	movw	r26, r22
     d00:	1c 92       	st	X, r1
     d02:	2f 5f       	subi	r18, 0xFF	; 255
     d04:	3f 4f       	sbci	r19, 0xFF	; 255
     d06:	6f 5f       	subi	r22, 0xFF	; 255
     d08:	7f 4f       	sbci	r23, 0xFF	; 255
     d0a:	31 96       	adiw	r30, 0x01	; 1
     d0c:	22 30       	cpi	r18, 0x02	; 2
     d0e:	b2 e0       	ldi	r27, 0x02	; 2
     d10:	3b 07       	cpc	r19, r27
     d12:	f1 f6       	brne	.-68     	; 0xcd0 <_ZN11UnitHandler18removeUnitFromListEh+0x7e>
     d14:	9e 01       	movw	r18, r28
     d16:	2f 5f       	subi	r18, 0xFF	; 255
     d18:	3f 4f       	sbci	r19, 0xFF	; 255
     d1a:	40 e0       	ldi	r20, 0x00	; 0
     d1c:	50 e0       	ldi	r21, 0x00	; 0
     d1e:	ba 01       	movw	r22, r20
     d20:	f8 01       	movw	r30, r16
     d22:	80 81       	ld	r24, Z
     d24:	91 81       	ldd	r25, Z+1	; 0x01
     d26:	e2 d7       	rcall	.+4036   	; 0x1cec <_ZN6sdCard10writeBlockEmPKh>
     d28:	dc 5f       	subi	r29, 0xFC	; 252
     d2a:	0f b6       	in	r0, 0x3f	; 63
     d2c:	f8 94       	cli
     d2e:	de bf       	out	0x3e, r29	; 62
     d30:	0f be       	out	0x3f, r0	; 63
     d32:	cd bf       	out	0x3d, r28	; 61
     d34:	df 91       	pop	r29
     d36:	cf 91       	pop	r28
     d38:	1f 91       	pop	r17
     d3a:	0f 91       	pop	r16
     d3c:	ff 90       	pop	r15
     d3e:	08 95       	ret

00000d40 <_ZN11UnitHandler16searchFreeBlocksEv>:
     d40:	0f 93       	push	r16
     d42:	1f 93       	push	r17
     d44:	cf 93       	push	r28
     d46:	df 93       	push	r29
     d48:	cd b7       	in	r28, 0x3d	; 61
     d4a:	de b7       	in	r29, 0x3e	; 62
     d4c:	d2 50       	subi	r29, 0x02	; 2
     d4e:	0f b6       	in	r0, 0x3f	; 63
     d50:	f8 94       	cli
     d52:	de bf       	out	0x3e, r29	; 62
     d54:	0f be       	out	0x3f, r0	; 63
     d56:	cd bf       	out	0x3d, r28	; 61
     d58:	8c 01       	movw	r16, r24
     d5a:	be 01       	movw	r22, r28
     d5c:	6f 5f       	subi	r22, 0xFF	; 255
     d5e:	7f 4f       	sbci	r23, 0xFF	; 255
     d60:	e9 de       	rcall	.-558    	; 0xb34 <_ZN11UnitHandler11getUnitListEPh>
     d62:	f8 01       	movw	r30, r16
     d64:	42 81       	ldd	r20, Z+2	; 0x02
     d66:	41 11       	cpse	r20, r1
     d68:	1a c0       	rjmp	.+52     	; 0xd9e <_ZN11UnitHandler16searchFreeBlocksEv+0x5e>
     d6a:	1f c0       	rjmp	.+62     	; 0xdaa <_ZN11UnitHandler16searchFreeBlocksEv+0x6a>
     d6c:	20 ff       	sbrs	r18, 0
     d6e:	0d c0       	rjmp	.+26     	; 0xd8a <_ZN11UnitHandler16searchFreeBlocksEv+0x4a>
     d70:	e1 e0       	ldi	r30, 0x01	; 1
     d72:	f0 e0       	ldi	r31, 0x00	; 0
     d74:	ec 0f       	add	r30, r28
     d76:	fd 1f       	adc	r31, r29
     d78:	e2 0f       	add	r30, r18
     d7a:	f3 1f       	adc	r31, r19
     d7c:	90 81       	ld	r25, Z
     d7e:	98 17       	cp	r25, r24
     d80:	51 f0       	breq	.+20     	; 0xd96 <_ZN11UnitHandler16searchFreeBlocksEv+0x56>
     d82:	2f 3f       	cpi	r18, 0xFF	; 255
     d84:	f1 e0       	ldi	r31, 0x01	; 1
     d86:	3f 07       	cpc	r19, r31
     d88:	81 f0       	breq	.+32     	; 0xdaa <_ZN11UnitHandler16searchFreeBlocksEv+0x6a>
     d8a:	2f 5f       	subi	r18, 0xFF	; 255
     d8c:	3f 4f       	sbci	r19, 0xFF	; 255
     d8e:	21 15       	cp	r18, r1
     d90:	92 e0       	ldi	r25, 0x02	; 2
     d92:	39 07       	cpc	r19, r25
     d94:	59 f7       	brne	.-42     	; 0xd6c <_ZN11UnitHandler16searchFreeBlocksEv+0x2c>
     d96:	8f 5f       	subi	r24, 0xFF	; 255
     d98:	48 17       	cp	r20, r24
     d9a:	20 f4       	brcc	.+8      	; 0xda4 <_ZN11UnitHandler16searchFreeBlocksEv+0x64>
     d9c:	06 c0       	rjmp	.+12     	; 0xdaa <_ZN11UnitHandler16searchFreeBlocksEv+0x6a>
     d9e:	81 e0       	ldi	r24, 0x01	; 1
     da0:	61 e0       	ldi	r22, 0x01	; 1
     da2:	50 e0       	ldi	r21, 0x00	; 0
     da4:	26 2f       	mov	r18, r22
     da6:	35 2f       	mov	r19, r21
     da8:	e1 cf       	rjmp	.-62     	; 0xd6c <_ZN11UnitHandler16searchFreeBlocksEv+0x2c>
     daa:	de 5f       	subi	r29, 0xFE	; 254
     dac:	0f b6       	in	r0, 0x3f	; 63
     dae:	f8 94       	cli
     db0:	de bf       	out	0x3e, r29	; 62
     db2:	0f be       	out	0x3f, r0	; 63
     db4:	cd bf       	out	0x3d, r28	; 61
     db6:	df 91       	pop	r29
     db8:	cf 91       	pop	r28
     dba:	1f 91       	pop	r17
     dbc:	0f 91       	pop	r16
     dbe:	08 95       	ret

00000dc0 <_ZN11UnitHandler11getRoomListEPh>:
     dc0:	9b 01       	movw	r18, r22
     dc2:	41 e0       	ldi	r20, 0x01	; 1
     dc4:	50 e0       	ldi	r21, 0x00	; 0
     dc6:	60 e0       	ldi	r22, 0x00	; 0
     dc8:	70 e0       	ldi	r23, 0x00	; 0
     dca:	fc 01       	movw	r30, r24
     dcc:	80 81       	ld	r24, Z
     dce:	91 81       	ldd	r25, Z+1	; 0x01
     dd0:	27 c7       	rjmp	.+3662   	; 0x1c20 <_ZN6sdCard9readBlockEmPh>
     dd2:	08 95       	ret

00000dd4 <_ZN11UnitHandler10RemoveUnitEh>:
     dd4:	cf 92       	push	r12
     dd6:	df 92       	push	r13
     dd8:	ef 92       	push	r14
     dda:	ff 92       	push	r15
     ddc:	0f 93       	push	r16
     dde:	1f 93       	push	r17
     de0:	cf 93       	push	r28
     de2:	df 93       	push	r29
     de4:	cd b7       	in	r28, 0x3d	; 61
     de6:	de b7       	in	r29, 0x3e	; 62
     de8:	d8 50       	subi	r29, 0x08	; 8
     dea:	0f b6       	in	r0, 0x3f	; 63
     dec:	f8 94       	cli
     dee:	de bf       	out	0x3e, r29	; 62
     df0:	0f be       	out	0x3f, r0	; 63
     df2:	cd bf       	out	0x3d, r28	; 61
     df4:	6c 01       	movw	r12, r24
     df6:	f6 2e       	mov	r15, r22
     df8:	fe 01       	movw	r30, r28
     dfa:	ef 5f       	subi	r30, 0xFF	; 255
     dfc:	f9 4f       	sbci	r31, 0xF9	; 249
     dfe:	80 e0       	ldi	r24, 0x00	; 0
     e00:	92 e0       	ldi	r25, 0x02	; 2
     e02:	df 01       	movw	r26, r30
     e04:	9c 01       	movw	r18, r24
     e06:	1d 92       	st	X+, r1
     e08:	21 50       	subi	r18, 0x01	; 1
     e0a:	30 40       	sbci	r19, 0x00	; 0
     e0c:	e1 f7       	brne	.-8      	; 0xe06 <_ZN11UnitHandler10RemoveUnitEh+0x32>
     e0e:	be 01       	movw	r22, r28
     e10:	6f 5f       	subi	r22, 0xFF	; 255
     e12:	7b 4f       	sbci	r23, 0xFB	; 251
     e14:	db 01       	movw	r26, r22
     e16:	fc 01       	movw	r30, r24
     e18:	1d 92       	st	X+, r1
     e1a:	31 97       	sbiw	r30, 0x01	; 1
     e1c:	e9 f7       	brne	.-6      	; 0xe18 <_ZN11UnitHandler10RemoveUnitEh+0x44>
     e1e:	fe 01       	movw	r30, r28
     e20:	ef 5f       	subi	r30, 0xFF	; 255
     e22:	fd 4f       	sbci	r31, 0xFD	; 253
     e24:	df 01       	movw	r26, r30
     e26:	9c 01       	movw	r18, r24
     e28:	1d 92       	st	X+, r1
     e2a:	21 50       	subi	r18, 0x01	; 1
     e2c:	30 40       	sbci	r19, 0x00	; 0
     e2e:	e1 f7       	brne	.-8      	; 0xe28 <_ZN11UnitHandler10RemoveUnitEh+0x54>
     e30:	c6 01       	movw	r24, r12
     e32:	80 de       	rcall	.-768    	; 0xb34 <_ZN11UnitHandler11getUnitListEPh>
     e34:	2f 2d       	mov	r18, r15
     e36:	30 e0       	ldi	r19, 0x00	; 0
     e38:	21 50       	subi	r18, 0x01	; 1
     e3a:	31 09       	sbc	r19, r1
     e3c:	82 2f       	mov	r24, r18
     e3e:	88 0f       	add	r24, r24
     e40:	88 0f       	add	r24, r24
     e42:	88 0f       	add	r24, r24
     e44:	82 1b       	sub	r24, r18
     e46:	20 e0       	ldi	r18, 0x00	; 0
     e48:	30 e0       	ldi	r19, 0x00	; 0
     e4a:	8e 5f       	subi	r24, 0xFE	; 254
     e4c:	0c c0       	rjmp	.+24     	; 0xe66 <_ZN11UnitHandler10RemoveUnitEh+0x92>
     e4e:	20 ff       	sbrs	r18, 0
     e50:	0a c0       	rjmp	.+20     	; 0xe66 <_ZN11UnitHandler10RemoveUnitEh+0x92>
     e52:	e1 e0       	ldi	r30, 0x01	; 1
     e54:	f4 e0       	ldi	r31, 0x04	; 4
     e56:	ec 0f       	add	r30, r28
     e58:	fd 1f       	adc	r31, r29
     e5a:	e2 0f       	add	r30, r18
     e5c:	f3 1f       	adc	r31, r19
     e5e:	90 81       	ld	r25, Z
     e60:	9f 11       	cpse	r25, r15
     e62:	01 c0       	rjmp	.+2      	; 0xe66 <_ZN11UnitHandler10RemoveUnitEh+0x92>
     e64:	e8 2e       	mov	r14, r24
     e66:	2f 5f       	subi	r18, 0xFF	; 255
     e68:	3f 4f       	sbci	r19, 0xFF	; 255
     e6a:	21 15       	cp	r18, r1
     e6c:	92 e0       	ldi	r25, 0x02	; 2
     e6e:	39 07       	cpc	r19, r25
     e70:	71 f7       	brne	.-36     	; 0xe4e <_ZN11UnitHandler10RemoveUnitEh+0x7a>
     e72:	4e 2d       	mov	r20, r14
     e74:	50 e0       	ldi	r21, 0x00	; 0
     e76:	60 e0       	ldi	r22, 0x00	; 0
     e78:	70 e0       	ldi	r23, 0x00	; 0
     e7a:	9e 01       	movw	r18, r28
     e7c:	2f 5f       	subi	r18, 0xFF	; 255
     e7e:	3d 4f       	sbci	r19, 0xFD	; 253
     e80:	d6 01       	movw	r26, r12
     e82:	8d 91       	ld	r24, X+
     e84:	9c 91       	ld	r25, X
     e86:	cc d6       	rcall	.+3480   	; 0x1c20 <_ZN6sdCard9readBlockEmPh>
     e88:	cd 5f       	subi	r28, 0xFD	; 253
     e8a:	dd 4f       	sbci	r29, 0xFD	; 253
     e8c:	88 81       	ld	r24, Y
     e8e:	c3 50       	subi	r28, 0x03	; 3
     e90:	d2 40       	sbci	r29, 0x02	; 2
     e92:	88 23       	and	r24, r24
     e94:	09 f4       	brne	.+2      	; 0xe98 <_ZN11UnitHandler10RemoveUnitEh+0xc4>
     e96:	57 c0       	rjmp	.+174    	; 0xf46 <_ZN11UnitHandler10RemoveUnitEh+0x172>
     e98:	be 01       	movw	r22, r28
     e9a:	6f 5f       	subi	r22, 0xFF	; 255
     e9c:	7f 4f       	sbci	r23, 0xFF	; 255
     e9e:	80 e0       	ldi	r24, 0x00	; 0
     ea0:	92 e0       	ldi	r25, 0x02	; 2
     ea2:	fb 01       	movw	r30, r22
     ea4:	9c 01       	movw	r18, r24
     ea6:	11 92       	st	Z+, r1
     ea8:	21 50       	subi	r18, 0x01	; 1
     eaa:	30 40       	sbci	r19, 0x00	; 0
     eac:	e1 f7       	brne	.-8      	; 0xea6 <_ZN11UnitHandler10RemoveUnitEh+0xd2>
     eae:	c6 01       	movw	r24, r12
     eb0:	87 df       	rcall	.-242    	; 0xdc0 <_ZN11UnitHandler11getRoomListEPh>
     eb2:	00 e0       	ldi	r16, 0x00	; 0
     eb4:	10 e0       	ldi	r17, 0x00	; 0
     eb6:	00 fd       	sbrc	r16, 0
     eb8:	24 c0       	rjmp	.+72     	; 0xf02 <_ZN11UnitHandler10RemoveUnitEh+0x12e>
     eba:	e1 e0       	ldi	r30, 0x01	; 1
     ebc:	f0 e0       	ldi	r31, 0x00	; 0
     ebe:	ec 0f       	add	r30, r28
     ec0:	fd 1f       	adc	r31, r29
     ec2:	e0 0f       	add	r30, r16
     ec4:	f1 1f       	adc	r31, r17
     ec6:	90 81       	ld	r25, Z
     ec8:	cd 5f       	subi	r28, 0xFD	; 253
     eca:	dd 4f       	sbci	r29, 0xFD	; 253
     ecc:	88 81       	ld	r24, Y
     ece:	c3 50       	subi	r28, 0x03	; 3
     ed0:	d2 40       	sbci	r29, 0x02	; 2
     ed2:	98 13       	cpse	r25, r24
     ed4:	16 c0       	rjmp	.+44     	; 0xf02 <_ZN11UnitHandler10RemoveUnitEh+0x12e>
     ed6:	81 e0       	ldi	r24, 0x01	; 1
     ed8:	80 0f       	add	r24, r16
     eda:	e1 e0       	ldi	r30, 0x01	; 1
     edc:	f0 e0       	ldi	r31, 0x00	; 0
     ede:	ec 0f       	add	r30, r28
     ee0:	fd 1f       	adc	r31, r29
     ee2:	e8 0f       	add	r30, r24
     ee4:	f1 1d       	adc	r31, r1
     ee6:	80 81       	ld	r24, Z
     ee8:	81 50       	subi	r24, 0x01	; 1
     eea:	80 83       	st	Z, r24
     eec:	9e 01       	movw	r18, r28
     eee:	2f 5f       	subi	r18, 0xFF	; 255
     ef0:	3f 4f       	sbci	r19, 0xFF	; 255
     ef2:	41 e0       	ldi	r20, 0x01	; 1
     ef4:	50 e0       	ldi	r21, 0x00	; 0
     ef6:	60 e0       	ldi	r22, 0x00	; 0
     ef8:	70 e0       	ldi	r23, 0x00	; 0
     efa:	d6 01       	movw	r26, r12
     efc:	8d 91       	ld	r24, X+
     efe:	9c 91       	ld	r25, X
     f00:	f5 d6       	rcall	.+3562   	; 0x1cec <_ZN6sdCard10writeBlockEmPKh>
     f02:	0f 5f       	subi	r16, 0xFF	; 255
     f04:	1f 4f       	sbci	r17, 0xFF	; 255
     f06:	01 15       	cp	r16, r1
     f08:	b2 e0       	ldi	r27, 0x02	; 2
     f0a:	1b 07       	cpc	r17, r27
     f0c:	a1 f6       	brne	.-88     	; 0xeb6 <_ZN11UnitHandler10RemoveUnitEh+0xe2>
     f0e:	1b c0       	rjmp	.+54     	; 0xf46 <_ZN11UnitHandler10RemoveUnitEh+0x172>
     f10:	4e 2d       	mov	r20, r14
     f12:	50 e0       	ldi	r21, 0x00	; 0
     f14:	60 e0       	ldi	r22, 0x00	; 0
     f16:	70 e0       	ldi	r23, 0x00	; 0
     f18:	9e 01       	movw	r18, r28
     f1a:	2f 5f       	subi	r18, 0xFF	; 255
     f1c:	39 4f       	sbci	r19, 0xF9	; 249
     f1e:	f6 01       	movw	r30, r12
     f20:	80 81       	ld	r24, Z
     f22:	91 81       	ldd	r25, Z+1	; 0x01
     f24:	e3 d6       	rcall	.+3526   	; 0x1cec <_ZN6sdCard10writeBlockEmPKh>
     f26:	88 23       	and	r24, r24
     f28:	89 f0       	breq	.+34     	; 0xf4c <_ZN11UnitHandler10RemoveUnitEh+0x178>
     f2a:	e3 94       	inc	r14
     f2c:	e1 12       	cpse	r14, r17
     f2e:	f0 cf       	rjmp	.-32     	; 0xf10 <_ZN11UnitHandler10RemoveUnitEh+0x13c>
     f30:	d6 01       	movw	r26, r12
     f32:	12 96       	adiw	r26, 0x02	; 2
     f34:	8c 91       	ld	r24, X
     f36:	12 97       	sbiw	r26, 0x02	; 2
     f38:	81 50       	subi	r24, 0x01	; 1
     f3a:	12 96       	adiw	r26, 0x02	; 2
     f3c:	8c 93       	st	X, r24
     f3e:	6f 2d       	mov	r22, r15
     f40:	c6 01       	movw	r24, r12
     f42:	87 de       	rcall	.-754    	; 0xc52 <_ZN11UnitHandler18removeUnitFromListEh>
     f44:	03 c0       	rjmp	.+6      	; 0xf4c <_ZN11UnitHandler10RemoveUnitEh+0x178>
     f46:	1a e0       	ldi	r17, 0x0A	; 10
     f48:	1e 0d       	add	r17, r14
     f4a:	e2 cf       	rjmp	.-60     	; 0xf10 <_ZN11UnitHandler10RemoveUnitEh+0x13c>
     f4c:	d8 5f       	subi	r29, 0xF8	; 248
     f4e:	0f b6       	in	r0, 0x3f	; 63
     f50:	f8 94       	cli
     f52:	de bf       	out	0x3e, r29	; 62
     f54:	0f be       	out	0x3f, r0	; 63
     f56:	cd bf       	out	0x3d, r28	; 61
     f58:	df 91       	pop	r29
     f5a:	cf 91       	pop	r28
     f5c:	1f 91       	pop	r17
     f5e:	0f 91       	pop	r16
     f60:	ff 90       	pop	r15
     f62:	ef 90       	pop	r14
     f64:	df 90       	pop	r13
     f66:	cf 90       	pop	r12
     f68:	08 95       	ret

00000f6a <_ZN11UnitHandler13createNewRoomEh>:
     f6a:	ff 92       	push	r15
     f6c:	0f 93       	push	r16
     f6e:	1f 93       	push	r17
     f70:	cf 93       	push	r28
     f72:	df 93       	push	r29
     f74:	cd b7       	in	r28, 0x3d	; 61
     f76:	de b7       	in	r29, 0x3e	; 62
     f78:	d2 50       	subi	r29, 0x02	; 2
     f7a:	0f b6       	in	r0, 0x3f	; 63
     f7c:	f8 94       	cli
     f7e:	de bf       	out	0x3e, r29	; 62
     f80:	0f be       	out	0x3f, r0	; 63
     f82:	cd bf       	out	0x3d, r28	; 61
     f84:	8c 01       	movw	r16, r24
     f86:	f6 2e       	mov	r15, r22
     f88:	be 01       	movw	r22, r28
     f8a:	6f 5f       	subi	r22, 0xFF	; 255
     f8c:	7f 4f       	sbci	r23, 0xFF	; 255
     f8e:	80 e0       	ldi	r24, 0x00	; 0
     f90:	92 e0       	ldi	r25, 0x02	; 2
     f92:	fb 01       	movw	r30, r22
     f94:	9c 01       	movw	r18, r24
     f96:	11 92       	st	Z+, r1
     f98:	21 50       	subi	r18, 0x01	; 1
     f9a:	30 40       	sbci	r19, 0x00	; 0
     f9c:	e1 f7       	brne	.-8      	; 0xf96 <_ZN11UnitHandler13createNewRoomEh+0x2c>
     f9e:	c8 01       	movw	r24, r16
     fa0:	0f df       	rcall	.-482    	; 0xdc0 <_ZN11UnitHandler11getRoomListEPh>
     fa2:	20 e0       	ldi	r18, 0x00	; 0
     fa4:	30 e0       	ldi	r19, 0x00	; 0
     fa6:	20 fd       	sbrc	r18, 0
     fa8:	09 c0       	rjmp	.+18     	; 0xfbc <_ZN11UnitHandler13createNewRoomEh+0x52>
     faa:	e1 e0       	ldi	r30, 0x01	; 1
     fac:	f0 e0       	ldi	r31, 0x00	; 0
     fae:	ec 0f       	add	r30, r28
     fb0:	fd 1f       	adc	r31, r29
     fb2:	e2 0f       	add	r30, r18
     fb4:	f3 1f       	adc	r31, r19
     fb6:	90 81       	ld	r25, Z
     fb8:	99 23       	and	r25, r25
     fba:	49 f0       	breq	.+18     	; 0xfce <_ZN11UnitHandler13createNewRoomEh+0x64>
     fbc:	2f 5f       	subi	r18, 0xFF	; 255
     fbe:	3f 4f       	sbci	r19, 0xFF	; 255
     fc0:	21 15       	cp	r18, r1
     fc2:	82 e0       	ldi	r24, 0x02	; 2
     fc4:	38 07       	cpc	r19, r24
     fc6:	79 f7       	brne	.-34     	; 0xfa6 <_ZN11UnitHandler13createNewRoomEh+0x3c>
     fc8:	20 e0       	ldi	r18, 0x00	; 0
     fca:	30 e0       	ldi	r19, 0x00	; 0
     fcc:	03 c0       	rjmp	.+6      	; 0xfd4 <_ZN11UnitHandler13createNewRoomEh+0x6a>
     fce:	21 15       	cp	r18, r1
     fd0:	31 05       	cpc	r19, r1
     fd2:	19 f4       	brne	.+6      	; 0xfda <_ZN11UnitHandler13createNewRoomEh+0x70>
     fd4:	89 81       	ldd	r24, Y+1	; 0x01
     fd6:	81 11       	cpse	r24, r1
     fd8:	13 c0       	rjmp	.+38     	; 0x1000 <_ZN11UnitHandler13createNewRoomEh+0x96>
     fda:	e1 e0       	ldi	r30, 0x01	; 1
     fdc:	f0 e0       	ldi	r31, 0x00	; 0
     fde:	ec 0f       	add	r30, r28
     fe0:	fd 1f       	adc	r31, r29
     fe2:	e2 0f       	add	r30, r18
     fe4:	f3 1f       	adc	r31, r19
     fe6:	f0 82       	st	Z, r15
     fe8:	9e 01       	movw	r18, r28
     fea:	2f 5f       	subi	r18, 0xFF	; 255
     fec:	3f 4f       	sbci	r19, 0xFF	; 255
     fee:	41 e0       	ldi	r20, 0x01	; 1
     ff0:	50 e0       	ldi	r21, 0x00	; 0
     ff2:	60 e0       	ldi	r22, 0x00	; 0
     ff4:	70 e0       	ldi	r23, 0x00	; 0
     ff6:	f8 01       	movw	r30, r16
     ff8:	80 81       	ld	r24, Z
     ffa:	91 81       	ldd	r25, Z+1	; 0x01
     ffc:	77 d6       	rcall	.+3310   	; 0x1cec <_ZN6sdCard10writeBlockEmPKh>
     ffe:	01 c0       	rjmp	.+2      	; 0x1002 <_ZN11UnitHandler13createNewRoomEh+0x98>
    1000:	80 e0       	ldi	r24, 0x00	; 0
    1002:	de 5f       	subi	r29, 0xFE	; 254
    1004:	0f b6       	in	r0, 0x3f	; 63
    1006:	f8 94       	cli
    1008:	de bf       	out	0x3e, r29	; 62
    100a:	0f be       	out	0x3f, r0	; 63
    100c:	cd bf       	out	0x3d, r28	; 61
    100e:	df 91       	pop	r29
    1010:	cf 91       	pop	r28
    1012:	1f 91       	pop	r17
    1014:	0f 91       	pop	r16
    1016:	ff 90       	pop	r15
    1018:	08 95       	ret

0000101a <_ZN11UnitHandler13addUnitToRoomEh>:
    101a:	ef 92       	push	r14
    101c:	ff 92       	push	r15
    101e:	1f 93       	push	r17
    1020:	cf 93       	push	r28
    1022:	df 93       	push	r29
    1024:	cd b7       	in	r28, 0x3d	; 61
    1026:	de b7       	in	r29, 0x3e	; 62
    1028:	d2 50       	subi	r29, 0x02	; 2
    102a:	0f b6       	in	r0, 0x3f	; 63
    102c:	f8 94       	cli
    102e:	de bf       	out	0x3e, r29	; 62
    1030:	0f be       	out	0x3f, r0	; 63
    1032:	cd bf       	out	0x3d, r28	; 61
    1034:	7c 01       	movw	r14, r24
    1036:	16 2f       	mov	r17, r22
    1038:	be 01       	movw	r22, r28
    103a:	6f 5f       	subi	r22, 0xFF	; 255
    103c:	7f 4f       	sbci	r23, 0xFF	; 255
    103e:	c0 de       	rcall	.-640    	; 0xdc0 <_ZN11UnitHandler11getRoomListEPh>
    1040:	20 e0       	ldi	r18, 0x00	; 0
    1042:	30 e0       	ldi	r19, 0x00	; 0
    1044:	20 fd       	sbrc	r18, 0
    1046:	14 c0       	rjmp	.+40     	; 0x1070 <_ZN11UnitHandler13addUnitToRoomEh+0x56>
    1048:	e1 e0       	ldi	r30, 0x01	; 1
    104a:	f0 e0       	ldi	r31, 0x00	; 0
    104c:	ec 0f       	add	r30, r28
    104e:	fd 1f       	adc	r31, r29
    1050:	e2 0f       	add	r30, r18
    1052:	f3 1f       	adc	r31, r19
    1054:	90 81       	ld	r25, Z
    1056:	91 13       	cpse	r25, r17
    1058:	0b c0       	rjmp	.+22     	; 0x1070 <_ZN11UnitHandler13addUnitToRoomEh+0x56>
    105a:	81 e0       	ldi	r24, 0x01	; 1
    105c:	82 0f       	add	r24, r18
    105e:	e1 e0       	ldi	r30, 0x01	; 1
    1060:	f0 e0       	ldi	r31, 0x00	; 0
    1062:	ec 0f       	add	r30, r28
    1064:	fd 1f       	adc	r31, r29
    1066:	e8 0f       	add	r30, r24
    1068:	f1 1d       	adc	r31, r1
    106a:	90 81       	ld	r25, Z
    106c:	9f 5f       	subi	r25, 0xFF	; 255
    106e:	90 83       	st	Z, r25
    1070:	2f 5f       	subi	r18, 0xFF	; 255
    1072:	3f 4f       	sbci	r19, 0xFF	; 255
    1074:	21 15       	cp	r18, r1
    1076:	82 e0       	ldi	r24, 0x02	; 2
    1078:	38 07       	cpc	r19, r24
    107a:	21 f7       	brne	.-56     	; 0x1044 <_ZN11UnitHandler13addUnitToRoomEh+0x2a>
    107c:	9e 01       	movw	r18, r28
    107e:	2f 5f       	subi	r18, 0xFF	; 255
    1080:	3f 4f       	sbci	r19, 0xFF	; 255
    1082:	41 e0       	ldi	r20, 0x01	; 1
    1084:	50 e0       	ldi	r21, 0x00	; 0
    1086:	60 e0       	ldi	r22, 0x00	; 0
    1088:	70 e0       	ldi	r23, 0x00	; 0
    108a:	f7 01       	movw	r30, r14
    108c:	80 81       	ld	r24, Z
    108e:	91 81       	ldd	r25, Z+1	; 0x01
    1090:	2d d6       	rcall	.+3162   	; 0x1cec <_ZN6sdCard10writeBlockEmPKh>
    1092:	de 5f       	subi	r29, 0xFE	; 254
    1094:	0f b6       	in	r0, 0x3f	; 63
    1096:	f8 94       	cli
    1098:	de bf       	out	0x3e, r29	; 62
    109a:	0f be       	out	0x3f, r0	; 63
    109c:	cd bf       	out	0x3d, r28	; 61
    109e:	df 91       	pop	r29
    10a0:	cf 91       	pop	r28
    10a2:	1f 91       	pop	r17
    10a4:	ff 90       	pop	r15
    10a6:	ef 90       	pop	r14
    10a8:	08 95       	ret

000010aa <_ZN11UnitHandler7AddUnitEhh>:
    10aa:	af 92       	push	r10
    10ac:	bf 92       	push	r11
    10ae:	cf 92       	push	r12
    10b0:	df 92       	push	r13
    10b2:	ef 92       	push	r14
    10b4:	ff 92       	push	r15
    10b6:	0f 93       	push	r16
    10b8:	1f 93       	push	r17
    10ba:	cf 93       	push	r28
    10bc:	df 93       	push	r29
    10be:	cd b7       	in	r28, 0x3d	; 61
    10c0:	de b7       	in	r29, 0x3e	; 62
    10c2:	d2 50       	subi	r29, 0x02	; 2
    10c4:	0f b6       	in	r0, 0x3f	; 63
    10c6:	f8 94       	cli
    10c8:	de bf       	out	0x3e, r29	; 62
    10ca:	0f be       	out	0x3f, r0	; 63
    10cc:	cd bf       	out	0x3d, r28	; 61
    10ce:	8c 01       	movw	r16, r24
    10d0:	c6 2e       	mov	r12, r22
    10d2:	d4 2e       	mov	r13, r20
    10d4:	dc 01       	movw	r26, r24
    10d6:	12 96       	adiw	r26, 0x02	; 2
    10d8:	8c 91       	ld	r24, X
    10da:	12 97       	sbiw	r26, 0x02	; 2
    10dc:	8f 5f       	subi	r24, 0xFF	; 255
    10de:	12 96       	adiw	r26, 0x02	; 2
    10e0:	8c 93       	st	X, r24
    10e2:	c8 01       	movw	r24, r16
    10e4:	31 dd       	rcall	.-1438   	; 0xb48 <_ZN11UnitHandler18checkStdAssignmentEv>
    10e6:	88 23       	and	r24, r24
    10e8:	09 f4       	brne	.+2      	; 0x10ec <_ZN11UnitHandler7AddUnitEhh+0x42>
    10ea:	4d c0       	rjmp	.+154    	; 0x1186 <_ZN11UnitHandler7AddUnitEhh+0xdc>
    10ec:	fe 01       	movw	r30, r28
    10ee:	31 96       	adiw	r30, 0x01	; 1
    10f0:	80 e0       	ldi	r24, 0x00	; 0
    10f2:	92 e0       	ldi	r25, 0x02	; 2
    10f4:	df 01       	movw	r26, r30
    10f6:	9c 01       	movw	r18, r24
    10f8:	1d 92       	st	X+, r1
    10fa:	21 50       	subi	r18, 0x01	; 1
    10fc:	30 40       	sbci	r19, 0x00	; 0
    10fe:	e1 f7       	brne	.-8      	; 0x10f8 <_ZN11UnitHandler7AddUnitEhh+0x4e>
    1100:	c9 82       	std	Y+1, r12	; 0x01
    1102:	d8 01       	movw	r26, r16
    1104:	12 96       	adiw	r26, 0x02	; 2
    1106:	8c 91       	ld	r24, X
    1108:	8a 83       	std	Y+2, r24	; 0x02
    110a:	db 82       	std	Y+3, r13	; 0x03
    110c:	ee 24       	eor	r14, r14
    110e:	e3 94       	inc	r14
    1110:	f1 2c       	mov	r15, r1
    1112:	ec 82       	std	Y+4, r14	; 0x04
    1114:	f8 01       	movw	r30, r16
    1116:	82 81       	ldd	r24, Z+2	; 0x02
    1118:	90 e0       	ldi	r25, 0x00	; 0
    111a:	01 97       	sbiw	r24, 0x01	; 1
    111c:	ac 01       	movw	r20, r24
    111e:	44 0f       	add	r20, r20
    1120:	55 1f       	adc	r21, r21
    1122:	44 0f       	add	r20, r20
    1124:	55 1f       	adc	r21, r21
    1126:	44 0f       	add	r20, r20
    1128:	55 1f       	adc	r21, r21
    112a:	48 1b       	sub	r20, r24
    112c:	59 0b       	sbc	r21, r25
    112e:	4e 0d       	add	r20, r14
    1130:	5f 1d       	adc	r21, r15
    1132:	4f 5f       	subi	r20, 0xFF	; 255
    1134:	5f 4f       	sbci	r21, 0xFF	; 255
    1136:	05 2e       	mov	r0, r21
    1138:	00 0c       	add	r0, r0
    113a:	66 0b       	sbc	r22, r22
    113c:	77 0b       	sbc	r23, r23
    113e:	9e 01       	movw	r18, r28
    1140:	2f 5f       	subi	r18, 0xFF	; 255
    1142:	3f 4f       	sbci	r19, 0xFF	; 255
    1144:	80 81       	ld	r24, Z
    1146:	91 81       	ldd	r25, Z+1	; 0x01
    1148:	d1 d5       	rcall	.+2978   	; 0x1cec <_ZN6sdCard10writeBlockEmPKh>
    114a:	81 11       	cpse	r24, r1
    114c:	08 c0       	rjmp	.+16     	; 0x115e <_ZN11UnitHandler7AddUnitEhh+0xb4>
    114e:	d8 01       	movw	r26, r16
    1150:	12 96       	adiw	r26, 0x02	; 2
    1152:	9c 91       	ld	r25, X
    1154:	12 97       	sbiw	r26, 0x02	; 2
    1156:	91 50       	subi	r25, 0x01	; 1
    1158:	12 96       	adiw	r26, 0x02	; 2
    115a:	9c 93       	st	X, r25
    115c:	5a c0       	rjmp	.+180    	; 0x1212 <_ZN11UnitHandler7AddUnitEhh+0x168>
    115e:	bf ef       	ldi	r27, 0xFF	; 255
    1160:	eb 1a       	sub	r14, r27
    1162:	fb 0a       	sbc	r15, r27
    1164:	e8 e0       	ldi	r30, 0x08	; 8
    1166:	ee 16       	cp	r14, r30
    1168:	f1 04       	cpc	r15, r1
    116a:	99 f6       	brne	.-90     	; 0x1112 <_ZN11UnitHandler7AddUnitEhh+0x68>
    116c:	6d 2d       	mov	r22, r13
    116e:	c8 01       	movw	r24, r16
    1170:	54 df       	rcall	.-344    	; 0x101a <_ZN11UnitHandler13addUnitToRoomEh>
    1172:	88 23       	and	r24, r24
    1174:	09 f4       	brne	.+2      	; 0x1178 <_ZN11UnitHandler7AddUnitEhh+0xce>
    1176:	4d c0       	rjmp	.+154    	; 0x1212 <_ZN11UnitHandler7AddUnitEhh+0x168>
    1178:	d8 01       	movw	r26, r16
    117a:	12 96       	adiw	r26, 0x02	; 2
    117c:	4c 91       	ld	r20, X
    117e:	6c 2d       	mov	r22, r12
    1180:	c8 01       	movw	r24, r16
    1182:	17 dd       	rcall	.-1490   	; 0xbb2 <_ZN11UnitHandler13addUnitToListEhh>
    1184:	46 c0       	rjmp	.+140    	; 0x1212 <_ZN11UnitHandler7AddUnitEhh+0x168>
    1186:	c8 01       	movw	r24, r16
    1188:	db dd       	rcall	.-1098   	; 0xd40 <_ZN11UnitHandler16searchFreeBlocksEv>
    118a:	a8 2e       	mov	r10, r24
    118c:	fe 01       	movw	r30, r28
    118e:	31 96       	adiw	r30, 0x01	; 1
    1190:	80 e0       	ldi	r24, 0x00	; 0
    1192:	92 e0       	ldi	r25, 0x02	; 2
    1194:	df 01       	movw	r26, r30
    1196:	9c 01       	movw	r18, r24
    1198:	1d 92       	st	X+, r1
    119a:	21 50       	subi	r18, 0x01	; 1
    119c:	30 40       	sbci	r19, 0x00	; 0
    119e:	e1 f7       	brne	.-8      	; 0x1198 <_ZN11UnitHandler7AddUnitEhh+0xee>
    11a0:	c9 82       	std	Y+1, r12	; 0x01
    11a2:	aa 82       	std	Y+2, r10	; 0x02
    11a4:	db 82       	std	Y+3, r13	; 0x03
    11a6:	2a 2d       	mov	r18, r10
    11a8:	30 e0       	ldi	r19, 0x00	; 0
    11aa:	21 50       	subi	r18, 0x01	; 1
    11ac:	31 09       	sbc	r19, r1
    11ae:	79 01       	movw	r14, r18
    11b0:	ee 0c       	add	r14, r14
    11b2:	ff 1c       	adc	r15, r15
    11b4:	ee 0c       	add	r14, r14
    11b6:	ff 1c       	adc	r15, r15
    11b8:	ee 0c       	add	r14, r14
    11ba:	ff 1c       	adc	r15, r15
    11bc:	e2 1a       	sub	r14, r18
    11be:	f3 0a       	sbc	r15, r19
    11c0:	32 e0       	ldi	r19, 0x02	; 2
    11c2:	e3 0e       	add	r14, r19
    11c4:	f1 1c       	adc	r15, r1
    11c6:	bb 24       	eor	r11, r11
    11c8:	b3 94       	inc	r11
    11ca:	bc 82       	std	Y+4, r11	; 0x04
    11cc:	9e 01       	movw	r18, r28
    11ce:	2f 5f       	subi	r18, 0xFF	; 255
    11d0:	3f 4f       	sbci	r19, 0xFF	; 255
    11d2:	a7 01       	movw	r20, r14
    11d4:	0f 2c       	mov	r0, r15
    11d6:	00 0c       	add	r0, r0
    11d8:	66 0b       	sbc	r22, r22
    11da:	77 0b       	sbc	r23, r23
    11dc:	d8 01       	movw	r26, r16
    11de:	8d 91       	ld	r24, X+
    11e0:	9c 91       	ld	r25, X
    11e2:	84 d5       	rcall	.+2824   	; 0x1cec <_ZN6sdCard10writeBlockEmPKh>
    11e4:	81 11       	cpse	r24, r1
    11e6:	05 c0       	rjmp	.+10     	; 0x11f2 <_ZN11UnitHandler7AddUnitEhh+0x148>
    11e8:	f8 01       	movw	r30, r16
    11ea:	92 81       	ldd	r25, Z+2	; 0x02
    11ec:	91 50       	subi	r25, 0x01	; 1
    11ee:	92 83       	std	Z+2, r25	; 0x02
    11f0:	10 c0       	rjmp	.+32     	; 0x1212 <_ZN11UnitHandler7AddUnitEhh+0x168>
    11f2:	b3 94       	inc	r11
    11f4:	ff ef       	ldi	r31, 0xFF	; 255
    11f6:	ef 1a       	sub	r14, r31
    11f8:	ff 0a       	sbc	r15, r31
    11fa:	28 e0       	ldi	r18, 0x08	; 8
    11fc:	b2 12       	cpse	r11, r18
    11fe:	e5 cf       	rjmp	.-54     	; 0x11ca <_ZN11UnitHandler7AddUnitEhh+0x120>
    1200:	6d 2d       	mov	r22, r13
    1202:	c8 01       	movw	r24, r16
    1204:	0a df       	rcall	.-492    	; 0x101a <_ZN11UnitHandler13addUnitToRoomEh>
    1206:	88 23       	and	r24, r24
    1208:	21 f0       	breq	.+8      	; 0x1212 <_ZN11UnitHandler7AddUnitEhh+0x168>
    120a:	4a 2d       	mov	r20, r10
    120c:	6c 2d       	mov	r22, r12
    120e:	c8 01       	movw	r24, r16
    1210:	d0 dc       	rcall	.-1632   	; 0xbb2 <_ZN11UnitHandler13addUnitToListEhh>
    1212:	de 5f       	subi	r29, 0xFE	; 254
    1214:	0f b6       	in	r0, 0x3f	; 63
    1216:	f8 94       	cli
    1218:	de bf       	out	0x3e, r29	; 62
    121a:	0f be       	out	0x3f, r0	; 63
    121c:	cd bf       	out	0x3d, r28	; 61
    121e:	df 91       	pop	r29
    1220:	cf 91       	pop	r28
    1222:	1f 91       	pop	r17
    1224:	0f 91       	pop	r16
    1226:	ff 90       	pop	r15
    1228:	ef 90       	pop	r14
    122a:	df 90       	pop	r13
    122c:	cf 90       	pop	r12
    122e:	bf 90       	pop	r11
    1230:	af 90       	pop	r10
    1232:	08 95       	ret

00001234 <_ZN11UnitHandler10UpdateTimeEhPh>:
// =============================================================
// METHOD : UpdateTime()
// DESCR. : Sends updated timetable for one specified unit, on one specified day
// =============================================================
bool UnitHandler::UpdateTime(unsigned char unitID, unsigned char schedule[])
{
    1234:	8f 92       	push	r8
    1236:	9f 92       	push	r9
    1238:	af 92       	push	r10
    123a:	bf 92       	push	r11
    123c:	cf 92       	push	r12
    123e:	df 92       	push	r13
    1240:	ef 92       	push	r14
    1242:	ff 92       	push	r15
    1244:	0f 93       	push	r16
    1246:	1f 93       	push	r17
    1248:	cf 93       	push	r28
    124a:	df 93       	push	r29
    124c:	cd b7       	in	r28, 0x3d	; 61
    124e:	de b7       	in	r29, 0x3e	; 62
    1250:	d2 50       	subi	r29, 0x02	; 2
    1252:	0f b6       	in	r0, 0x3f	; 63
    1254:	f8 94       	cli
    1256:	de bf       	out	0x3e, r29	; 62
    1258:	0f be       	out	0x3f, r0	; 63
    125a:	cd bf       	out	0x3d, r28	; 61
    125c:	6c 01       	movw	r12, r24
    125e:	06 2f       	mov	r16, r22
    1260:	7a 01       	movw	r14, r20
	unsigned char tempList[512] = {0x00};
    1262:	be 01       	movw	r22, r28
    1264:	6f 5f       	subi	r22, 0xFF	; 255
    1266:	7f 4f       	sbci	r23, 0xFF	; 255
    1268:	80 e0       	ldi	r24, 0x00	; 0
    126a:	92 e0       	ldi	r25, 0x02	; 2
    126c:	fb 01       	movw	r30, r22
    126e:	9c 01       	movw	r18, r24
    1270:	11 92       	st	Z+, r1
    1272:	21 50       	subi	r18, 0x01	; 1
    1274:	30 40       	sbci	r19, 0x00	; 0
    1276:	e1 f7       	brne	.-8      	; 0x1270 <_ZN11UnitHandler10UpdateTimeEhPh+0x3c>
	getUnitList(tempList); 
    1278:	c6 01       	movw	r24, r12
    127a:	5c dc       	rcall	.-1864   	; 0xb34 <_ZN11UnitHandler11getUnitListEPh>
	
	unsigned long unit_start_block = 0x00000000;
	unsigned char block_representation;
	
	// looping to find storage location
	for (int i = 0; i <= 511; i++) 
    127c:	e0 e0       	ldi	r30, 0x00	; 0
    127e:	f0 e0       	ldi	r31, 0x00	; 0
	{
		if (i % 2 == 0)
    1280:	e0 fd       	sbrc	r30, 0
    1282:	20 c0       	rjmp	.+64     	; 0x12c4 <_ZN11UnitHandler10UpdateTimeEhPh+0x90>
    1284:	a1 e0       	ldi	r26, 0x01	; 1
    1286:	b0 e0       	ldi	r27, 0x00	; 0
    1288:	ac 0f       	add	r26, r28
    128a:	bd 1f       	adc	r27, r29
    128c:	ae 0f       	add	r26, r30
    128e:	bf 1f       	adc	r27, r31
		{
			if (tempList[i] == unitID)
    1290:	8c 91       	ld	r24, X
    1292:	80 13       	cpse	r24, r16
    1294:	17 c0       	rjmp	.+46     	; 0x12c4 <_ZN11UnitHandler10UpdateTimeEhPh+0x90>
			{
				// set j equal to the starting block representation for the specified unit.
				int j = i + 1;
				block_representation = tempList[j];  
    1296:	ec 0f       	add	r30, r28
    1298:	fd 1f       	adc	r31, r29
    129a:	12 81       	ldd	r17, Z+2	; 0x02
				
				// calculate start block
				int y = tempList[j] - 1;
    129c:	81 2f       	mov	r24, r17
    129e:	90 e0       	ldi	r25, 0x00	; 0
    12a0:	01 97       	sbiw	r24, 0x01	; 1
				unit_start_block = (2 + (y * 7)); 
    12a2:	4c 01       	movw	r8, r24
    12a4:	88 0c       	add	r8, r8
    12a6:	99 1c       	adc	r9, r9
    12a8:	88 0c       	add	r8, r8
    12aa:	99 1c       	adc	r9, r9
    12ac:	88 0c       	add	r8, r8
    12ae:	99 1c       	adc	r9, r9
    12b0:	88 1a       	sub	r8, r24
    12b2:	99 0a       	sbc	r9, r25
    12b4:	32 e0       	ldi	r19, 0x02	; 2
    12b6:	83 0e       	add	r8, r19
    12b8:	91 1c       	adc	r9, r1
    12ba:	09 2c       	mov	r0, r9
    12bc:	00 0c       	add	r0, r0
    12be:	aa 08       	sbc	r10, r10
    12c0:	bb 08       	sbc	r11, r11
    12c2:	08 c0       	rjmp	.+16     	; 0x12d4 <_ZN11UnitHandler10UpdateTimeEhPh+0xa0>
	
	unsigned long unit_start_block = 0x00000000;
	unsigned char block_representation;
	
	// looping to find storage location
	for (int i = 0; i <= 511; i++) 
    12c4:	31 96       	adiw	r30, 0x01	; 1
    12c6:	e1 15       	cp	r30, r1
    12c8:	82 e0       	ldi	r24, 0x02	; 2
    12ca:	f8 07       	cpc	r31, r24
    12cc:	c9 f6       	brne	.-78     	; 0x1280 <_ZN11UnitHandler10UpdateTimeEhPh+0x4c>
    12ce:	81 2c       	mov	r8, r1
    12d0:	91 2c       	mov	r9, r1
    12d2:	54 01       	movw	r10, r8
			}
		}
	}
	
	// extract day from schedule array
	unsigned char day = schedule[3];
    12d4:	f7 01       	movw	r30, r14
    12d6:	83 81       	ldd	r24, Z+3	; 0x03
	
	unsigned long daylocation = 0x00000000;
	
	// testing if day is within legal range
	if (day < 8 && day > 0) 
    12d8:	9f ef       	ldi	r25, 0xFF	; 255
    12da:	98 0f       	add	r25, r24
    12dc:	97 30       	cpi	r25, 0x07	; 7
    12de:	d0 f4       	brcc	.+52     	; 0x1314 <_ZN11UnitHandler10UpdateTimeEhPh+0xe0>
	{
		// calculate the block location of the block we use.
		daylocation = unit_start_block + (day - 1); 
    12e0:	90 e0       	ldi	r25, 0x00	; 0
    12e2:	01 97       	sbiw	r24, 0x01	; 1
    12e4:	09 2e       	mov	r0, r25
    12e6:	00 0c       	add	r0, r0
    12e8:	aa 0b       	sbc	r26, r26
    12ea:	bb 0b       	sbc	r27, r27
    12ec:	88 0e       	add	r8, r24
    12ee:	99 1e       	adc	r9, r25
    12f0:	aa 1e       	adc	r10, r26
    12f2:	bb 1e       	adc	r11, r27
		// if not within range of 1 to 7 return false
		return false;
	}
	
	// add correct starting block representation, to the new array.
	schedule[1] = block_representation;
    12f4:	11 83       	std	Z+1, r17	; 0x01
    12f6:	09 e0       	ldi	r16, 0x09	; 9
    12f8:	10 e0       	ldi	r17, 0x00	; 0
	
	//Loop to give each write operation 9 tries to succeed.
	for (int i = 0; i < 9; i++) 
	{
		if (SD->writeBlock(daylocation, schedule))
    12fa:	97 01       	movw	r18, r14
    12fc:	b5 01       	movw	r22, r10
    12fe:	a4 01       	movw	r20, r8
    1300:	f6 01       	movw	r30, r12
    1302:	80 81       	ld	r24, Z
    1304:	91 81       	ldd	r25, Z+1	; 0x01
    1306:	f2 d4       	rcall	.+2532   	; 0x1cec <_ZN6sdCard10writeBlockEmPKh>
    1308:	81 11       	cpse	r24, r1
    130a:	05 c0       	rjmp	.+10     	; 0x1316 <_ZN11UnitHandler10UpdateTimeEhPh+0xe2>
    130c:	01 50       	subi	r16, 0x01	; 1
    130e:	11 09       	sbc	r17, r1
	
	// add correct starting block representation, to the new array.
	schedule[1] = block_representation;
	
	//Loop to give each write operation 9 tries to succeed.
	for (int i = 0; i < 9; i++) 
    1310:	a1 f7       	brne	.-24     	; 0x12fa <_ZN11UnitHandler10UpdateTimeEhPh+0xc6>
    1312:	01 c0       	rjmp	.+2      	; 0x1316 <_ZN11UnitHandler10UpdateTimeEhPh+0xe2>
		daylocation = unit_start_block + (day - 1); 
	}
	else
	{
		// if not within range of 1 to 7 return false
		return false;
    1314:	80 e0       	ldi	r24, 0x00	; 0
			return true;
		}
	}
	// write failed more than 9 times.
	return false; 
}
    1316:	de 5f       	subi	r29, 0xFE	; 254
    1318:	0f b6       	in	r0, 0x3f	; 63
    131a:	f8 94       	cli
    131c:	de bf       	out	0x3e, r29	; 62
    131e:	0f be       	out	0x3f, r0	; 63
    1320:	cd bf       	out	0x3d, r28	; 61
    1322:	df 91       	pop	r29
    1324:	cf 91       	pop	r28
    1326:	1f 91       	pop	r17
    1328:	0f 91       	pop	r16
    132a:	ff 90       	pop	r15
    132c:	ef 90       	pop	r14
    132e:	df 90       	pop	r13
    1330:	cf 90       	pop	r12
    1332:	bf 90       	pop	r11
    1334:	af 90       	pop	r10
    1336:	9f 90       	pop	r9
    1338:	8f 90       	pop	r8
    133a:	08 95       	ret

0000133c <_ZN11UnitHandler12getTimeTableEhhPh>:
// =============================================================
// METHOD : getTimeTable()
// DESCR. : fills a 512 byte array with the data in the block for the requested day and unit.
// =============================================================
bool UnitHandler::getTimeTable(unsigned char day, unsigned char UnitID, unsigned char schedule[]) 
{
    133c:	8f 92       	push	r8
    133e:	9f 92       	push	r9
    1340:	af 92       	push	r10
    1342:	bf 92       	push	r11
    1344:	cf 92       	push	r12
    1346:	df 92       	push	r13
    1348:	ef 92       	push	r14
    134a:	ff 92       	push	r15
    134c:	0f 93       	push	r16
    134e:	1f 93       	push	r17
    1350:	cf 93       	push	r28
    1352:	df 93       	push	r29
    1354:	cd b7       	in	r28, 0x3d	; 61
    1356:	de b7       	in	r29, 0x3e	; 62
    1358:	d2 50       	subi	r29, 0x02	; 2
    135a:	0f b6       	in	r0, 0x3f	; 63
    135c:	f8 94       	cli
    135e:	de bf       	out	0x3e, r29	; 62
    1360:	0f be       	out	0x3f, r0	; 63
    1362:	cd bf       	out	0x3d, r28	; 61
    1364:	7c 01       	movw	r14, r24
    1366:	16 2f       	mov	r17, r22
    1368:	04 2f       	mov	r16, r20
    136a:	69 01       	movw	r12, r18
	unsigned char tempList[512] = {0x00};
    136c:	be 01       	movw	r22, r28
    136e:	6f 5f       	subi	r22, 0xFF	; 255
    1370:	7f 4f       	sbci	r23, 0xFF	; 255
    1372:	80 e0       	ldi	r24, 0x00	; 0
    1374:	92 e0       	ldi	r25, 0x02	; 2
    1376:	fb 01       	movw	r30, r22
    1378:	9c 01       	movw	r18, r24
    137a:	11 92       	st	Z+, r1
    137c:	21 50       	subi	r18, 0x01	; 1
    137e:	30 40       	sbci	r19, 0x00	; 0
    1380:	e1 f7       	brne	.-8      	; 0x137a <_ZN11UnitHandler12getTimeTableEhhPh+0x3e>
	getUnitList(tempList);
    1382:	c7 01       	movw	r24, r14
    1384:	d7 db       	rcall	.-2130   	; 0xb34 <_ZN11UnitHandler11getUnitListEPh>
	
	unsigned long unit_start_block = 0x00000000; // address storage
	
	// loop to find the value used for calculating the storage adress;
	for (int i = 0; i < 512; i++) 
    1386:	e0 e0       	ldi	r30, 0x00	; 0
    1388:	f0 e0       	ldi	r31, 0x00	; 0
	{
		if (i % 2 == 0)
    138a:	e0 fd       	sbrc	r30, 0
    138c:	1f c0       	rjmp	.+62     	; 0x13cc <_ZN11UnitHandler12getTimeTableEhhPh+0x90>
    138e:	a1 e0       	ldi	r26, 0x01	; 1
    1390:	b0 e0       	ldi	r27, 0x00	; 0
    1392:	ac 0f       	add	r26, r28
    1394:	bd 1f       	adc	r27, r29
    1396:	ae 0f       	add	r26, r30
    1398:	bf 1f       	adc	r27, r31
		{
			if (tempList[i] == UnitID)
    139a:	8c 91       	ld	r24, X
    139c:	80 13       	cpse	r24, r16
    139e:	16 c0       	rjmp	.+44     	; 0x13cc <_ZN11UnitHandler12getTimeTableEhhPh+0x90>
			{
				int j = i + 1;
				int y = tempList[j] - 1;
    13a0:	ec 0f       	add	r30, r28
    13a2:	fd 1f       	adc	r31, r29
    13a4:	82 81       	ldd	r24, Z+2	; 0x02
    13a6:	90 e0       	ldi	r25, 0x00	; 0
    13a8:	01 97       	sbiw	r24, 0x01	; 1
				unit_start_block = (2 + (y * 7));
    13aa:	4c 01       	movw	r8, r24
    13ac:	88 0c       	add	r8, r8
    13ae:	99 1c       	adc	r9, r9
    13b0:	88 0c       	add	r8, r8
    13b2:	99 1c       	adc	r9, r9
    13b4:	88 0c       	add	r8, r8
    13b6:	99 1c       	adc	r9, r9
    13b8:	88 1a       	sub	r8, r24
    13ba:	99 0a       	sbc	r9, r25
    13bc:	32 e0       	ldi	r19, 0x02	; 2
    13be:	83 0e       	add	r8, r19
    13c0:	91 1c       	adc	r9, r1
    13c2:	09 2c       	mov	r0, r9
    13c4:	00 0c       	add	r0, r0
    13c6:	aa 08       	sbc	r10, r10
    13c8:	bb 08       	sbc	r11, r11
    13ca:	08 c0       	rjmp	.+16     	; 0x13dc <_ZN11UnitHandler12getTimeTableEhhPh+0xa0>
	getUnitList(tempList);
	
	unsigned long unit_start_block = 0x00000000; // address storage
	
	// loop to find the value used for calculating the storage adress;
	for (int i = 0; i < 512; i++) 
    13cc:	31 96       	adiw	r30, 0x01	; 1
    13ce:	e1 15       	cp	r30, r1
    13d0:	82 e0       	ldi	r24, 0x02	; 2
    13d2:	f8 07       	cpc	r31, r24
    13d4:	d1 f6       	brne	.-76     	; 0x138a <_ZN11UnitHandler12getTimeTableEhhPh+0x4e>
    13d6:	81 2c       	mov	r8, r1
    13d8:	91 2c       	mov	r9, r1
    13da:	54 01       	movw	r10, r8
			}
		}
	}
	
	unsigned long daylocation = 0x00000000;
	if (day < 8 && day > 0)
    13dc:	8f ef       	ldi	r24, 0xFF	; 255
    13de:	81 0f       	add	r24, r17
    13e0:	87 30       	cpi	r24, 0x07	; 7
    13e2:	d0 f4       	brcc	.+52     	; 0x1418 <_ZN11UnitHandler12getTimeTableEhhPh+0xdc>
	{
		daylocation = unit_start_block + (day - 1);
    13e4:	81 2f       	mov	r24, r17
    13e6:	90 e0       	ldi	r25, 0x00	; 0
    13e8:	01 97       	sbiw	r24, 0x01	; 1
    13ea:	09 2e       	mov	r0, r25
    13ec:	00 0c       	add	r0, r0
    13ee:	aa 0b       	sbc	r26, r26
    13f0:	bb 0b       	sbc	r27, r27
    13f2:	88 0e       	add	r8, r24
    13f4:	99 1e       	adc	r9, r25
    13f6:	aa 1e       	adc	r10, r26
    13f8:	bb 1e       	adc	r11, r27
    13fa:	09 e0       	ldi	r16, 0x09	; 9
    13fc:	10 e0       	ldi	r17, 0x00	; 0
	{
		return false;
	}
	for (int i = 0; i < 9; i++)
	{
		if (SD->readBlock(daylocation, schedule))
    13fe:	96 01       	movw	r18, r12
    1400:	b5 01       	movw	r22, r10
    1402:	a4 01       	movw	r20, r8
    1404:	f7 01       	movw	r30, r14
    1406:	80 81       	ld	r24, Z
    1408:	91 81       	ldd	r25, Z+1	; 0x01
    140a:	0a d4       	rcall	.+2068   	; 0x1c20 <_ZN6sdCard9readBlockEmPh>
    140c:	81 11       	cpse	r24, r1
    140e:	05 c0       	rjmp	.+10     	; 0x141a <_ZN11UnitHandler12getTimeTableEhhPh+0xde>
    1410:	01 50       	subi	r16, 0x01	; 1
    1412:	11 09       	sbc	r17, r1
	}
	else
	{
		return false;
	}
	for (int i = 0; i < 9; i++)
    1414:	a1 f7       	brne	.-24     	; 0x13fe <_ZN11UnitHandler12getTimeTableEhhPh+0xc2>
    1416:	01 c0       	rjmp	.+2      	; 0x141a <_ZN11UnitHandler12getTimeTableEhhPh+0xde>
	{
		daylocation = unit_start_block + (day - 1);
	}
	else
	{
		return false;
    1418:	80 e0       	ldi	r24, 0x00	; 0
			i = 10;
			return true;
		}
	}
	return false;
}
    141a:	de 5f       	subi	r29, 0xFE	; 254
    141c:	0f b6       	in	r0, 0x3f	; 63
    141e:	f8 94       	cli
    1420:	de bf       	out	0x3e, r29	; 62
    1422:	0f be       	out	0x3f, r0	; 63
    1424:	cd bf       	out	0x3d, r28	; 61
    1426:	df 91       	pop	r29
    1428:	cf 91       	pop	r28
    142a:	1f 91       	pop	r17
    142c:	0f 91       	pop	r16
    142e:	ff 90       	pop	r15
    1430:	ef 90       	pop	r14
    1432:	df 90       	pop	r13
    1434:	cf 90       	pop	r12
    1436:	bf 90       	pop	r11
    1438:	af 90       	pop	r10
    143a:	9f 90       	pop	r9
    143c:	8f 90       	pop	r8
    143e:	08 95       	ret

00001440 <_ZN11UnitHandler8editUnitEhhh>:
// =============================================================
// METHOD : editUnit()
// DESCR. : fills a 512 byte array with the data in the block for the requested day and unit.
// =============================================================
bool UnitHandler::editUnit(unsigned char previusUnitID, unsigned char newUnitID, unsigned char roomID)
{
    1440:	4f 92       	push	r4
    1442:	5f 92       	push	r5
    1444:	6f 92       	push	r6
    1446:	7f 92       	push	r7
    1448:	af 92       	push	r10
    144a:	bf 92       	push	r11
    144c:	cf 92       	push	r12
    144e:	df 92       	push	r13
    1450:	ef 92       	push	r14
    1452:	ff 92       	push	r15
    1454:	0f 93       	push	r16
    1456:	1f 93       	push	r17
    1458:	cf 93       	push	r28
    145a:	df 93       	push	r29
    145c:	cd b7       	in	r28, 0x3d	; 61
    145e:	de b7       	in	r29, 0x3e	; 62
    1460:	d4 50       	subi	r29, 0x04	; 4
    1462:	0f b6       	in	r0, 0x3f	; 63
    1464:	f8 94       	cli
    1466:	de bf       	out	0x3e, r29	; 62
    1468:	0f be       	out	0x3f, r0	; 63
    146a:	cd bf       	out	0x3d, r28	; 61
    146c:	8c 01       	movw	r16, r24
    146e:	f6 2e       	mov	r15, r22
    1470:	a4 2e       	mov	r10, r20
    1472:	b2 2e       	mov	r11, r18
	unsigned char data2[512];
	
	unsigned char point = 0x01;
	
	
	getUnitList(data);
    1474:	be 01       	movw	r22, r28
    1476:	6f 5f       	subi	r22, 0xFF	; 255
    1478:	7d 4f       	sbci	r23, 0xFD	; 253
    147a:	5c db       	rcall	.-2376   	; 0xb34 <_ZN11UnitHandler11getUnitListEPh>
	
	//Find the starting point representation of the unit we want too update.
	for (int i = 0; i <= 511; i++)
    147c:	80 e0       	ldi	r24, 0x00	; 0
    147e:	90 e0       	ldi	r25, 0x00	; 0
	{
		if (i % 2 == 0)
    1480:	80 fd       	sbrc	r24, 0
    1482:	1c c0       	rjmp	.+56     	; 0x14bc <_ZN11UnitHandler8editUnitEhhh+0x7c>
    1484:	e1 e0       	ldi	r30, 0x01	; 1
    1486:	f2 e0       	ldi	r31, 0x02	; 2
    1488:	ec 0f       	add	r30, r28
    148a:	fd 1f       	adc	r31, r29
    148c:	e8 0f       	add	r30, r24
    148e:	f9 1f       	adc	r31, r25
		{
			if (data[i] == previusUnitID)
    1490:	20 81       	ld	r18, Z
    1492:	2f 11       	cpse	r18, r15
    1494:	13 c0       	rjmp	.+38     	; 0x14bc <_ZN11UnitHandler8editUnitEhhh+0x7c>
			{
				point = data[i + 1];
    1496:	e1 e0       	ldi	r30, 0x01	; 1
    1498:	f2 e0       	ldi	r31, 0x02	; 2
    149a:	ec 0f       	add	r30, r28
    149c:	fd 1f       	adc	r31, r29
    149e:	e8 0f       	add	r30, r24
    14a0:	f9 1f       	adc	r31, r25
    14a2:	f1 80       	ldd	r15, Z+1	; 0x01
				data[i] = newUnitID;
    14a4:	a0 82       	st	Z, r10
				SD->writeBlock(0x00, data);
    14a6:	9e 01       	movw	r18, r28
    14a8:	2f 5f       	subi	r18, 0xFF	; 255
    14aa:	3d 4f       	sbci	r19, 0xFD	; 253
    14ac:	40 e0       	ldi	r20, 0x00	; 0
    14ae:	50 e0       	ldi	r21, 0x00	; 0
    14b0:	ba 01       	movw	r22, r20
    14b2:	f8 01       	movw	r30, r16
    14b4:	80 81       	ld	r24, Z
    14b6:	91 81       	ldd	r25, Z+1	; 0x01
    14b8:	19 d4       	rcall	.+2098   	; 0x1cec <_ZN6sdCard10writeBlockEmPKh>
    14ba:	07 c0       	rjmp	.+14     	; 0x14ca <_ZN11UnitHandler8editUnitEhhh+0x8a>
	
	
	getUnitList(data);
	
	//Find the starting point representation of the unit we want too update.
	for (int i = 0; i <= 511; i++)
    14bc:	01 96       	adiw	r24, 0x01	; 1
    14be:	81 15       	cp	r24, r1
    14c0:	f2 e0       	ldi	r31, 0x02	; 2
    14c2:	9f 07       	cpc	r25, r31
    14c4:	e9 f6       	brne	.-70     	; 0x1480 <_ZN11UnitHandler8editUnitEhhh+0x40>
    14c6:	ff 24       	eor	r15, r15
    14c8:	f3 94       	inc	r15
		}
	}
	
	
	
	unsigned long address = (2 + ((point - 1) * 7));
    14ca:	8f 2d       	mov	r24, r15
    14cc:	90 e0       	ldi	r25, 0x00	; 0
    14ce:	01 97       	sbiw	r24, 0x01	; 1
    14d0:	6c 01       	movw	r12, r24
    14d2:	cc 0c       	add	r12, r12
    14d4:	dd 1c       	adc	r13, r13
    14d6:	cc 0c       	add	r12, r12
    14d8:	dd 1c       	adc	r13, r13
    14da:	cc 0c       	add	r12, r12
    14dc:	dd 1c       	adc	r13, r13
    14de:	c8 1a       	sub	r12, r24
    14e0:	d9 0a       	sbc	r13, r25
    14e2:	22 e0       	ldi	r18, 0x02	; 2
    14e4:	c2 0e       	add	r12, r18
    14e6:	d1 1c       	adc	r13, r1
    14e8:	0d 2c       	mov	r0, r13
    14ea:	00 0c       	add	r0, r0
    14ec:	ee 08       	sbc	r14, r14
    14ee:	ff 08       	sbc	r15, r15
	
	SD->readBlock(address, data2);
    14f0:	9e 01       	movw	r18, r28
    14f2:	2f 5f       	subi	r18, 0xFF	; 255
    14f4:	3f 4f       	sbci	r19, 0xFF	; 255
    14f6:	b7 01       	movw	r22, r14
    14f8:	a6 01       	movw	r20, r12
    14fa:	f8 01       	movw	r30, r16
    14fc:	80 81       	ld	r24, Z
    14fe:	91 81       	ldd	r25, Z+1	; 0x01
    1500:	8f d3       	rcall	.+1822   	; 0x1c20 <_ZN6sdCard9readBlockEmPh>
	unsigned char oldRoom = data2[2];
    1502:	7b 80       	ldd	r7, Y+3	; 0x03
	
	getRoomList(data);
    1504:	be 01       	movw	r22, r28
    1506:	6f 5f       	subi	r22, 0xFF	; 255
    1508:	7d 4f       	sbci	r23, 0xFD	; 253
    150a:	c8 01       	movw	r24, r16
    150c:	59 dc       	rcall	.-1870   	; 0xdc0 <_ZN11UnitHandler11getRoomListEPh>
	
	for (int i = 0; i <= 511; i++)
    150e:	e0 e0       	ldi	r30, 0x00	; 0
    1510:	f0 e0       	ldi	r31, 0x00	; 0
	{
		if (i % 2 == 0)
    1512:	e0 fd       	sbrc	r30, 0
    1514:	17 c0       	rjmp	.+46     	; 0x1544 <_ZN11UnitHandler8editUnitEhhh+0x104>
    1516:	a1 e0       	ldi	r26, 0x01	; 1
    1518:	b2 e0       	ldi	r27, 0x02	; 2
    151a:	ac 0f       	add	r26, r28
    151c:	bd 1f       	adc	r27, r29
    151e:	ae 0f       	add	r26, r30
    1520:	bf 1f       	adc	r27, r31
		{
			if (data[i] == oldRoom)
    1522:	8c 91       	ld	r24, X
    1524:	87 11       	cpse	r24, r7
    1526:	0e c0       	rjmp	.+28     	; 0x1544 <_ZN11UnitHandler8editUnitEhhh+0x104>
			{
				int j = i + 1;
    1528:	31 96       	adiw	r30, 0x01	; 1
				
					if (data[j] != 0x00)
    152a:	a1 e0       	ldi	r26, 0x01	; 1
    152c:	b2 e0       	ldi	r27, 0x02	; 2
    152e:	ac 0f       	add	r26, r28
    1530:	bd 1f       	adc	r27, r29
    1532:	ae 0f       	add	r26, r30
    1534:	bf 1f       	adc	r27, r31
    1536:	8c 91       	ld	r24, X
    1538:	88 23       	and	r24, r24
    153a:	49 f0       	breq	.+18     	; 0x154e <_ZN11UnitHandler8editUnitEhhh+0x10e>
					{
						data[j]--;
    153c:	fd 01       	movw	r30, r26
    153e:	81 50       	subi	r24, 0x01	; 1
    1540:	80 83       	st	Z, r24
    1542:	05 c0       	rjmp	.+10     	; 0x154e <_ZN11UnitHandler8editUnitEhhh+0x10e>
	SD->readBlock(address, data2);
	unsigned char oldRoom = data2[2];
	
	getRoomList(data);
	
	for (int i = 0; i <= 511; i++)
    1544:	31 96       	adiw	r30, 0x01	; 1
    1546:	e1 15       	cp	r30, r1
    1548:	32 e0       	ldi	r19, 0x02	; 2
    154a:	f3 07       	cpc	r31, r19
    154c:	11 f7       	brne	.-60     	; 0x1512 <_ZN11UnitHandler8editUnitEhhh+0xd2>
    154e:	e0 e0       	ldi	r30, 0x00	; 0
    1550:	f0 e0       	ldi	r31, 0x00	; 0
	}
	
	bool roomExists = false;
	for (int i = 0; i<= 511; i++) // looping to see if new room allready exists
	{
		if(i % 2 == 0)
    1552:	e0 fd       	sbrc	r30, 0
    1554:	1f c0       	rjmp	.+62     	; 0x1594 <_ZN11UnitHandler8editUnitEhhh+0x154>
    1556:	a1 e0       	ldi	r26, 0x01	; 1
    1558:	b2 e0       	ldi	r27, 0x02	; 2
    155a:	ac 0f       	add	r26, r28
    155c:	bd 1f       	adc	r27, r29
    155e:	ae 0f       	add	r26, r30
    1560:	bf 1f       	adc	r27, r31
		{
			if(data[i] == roomID)
    1562:	8c 91       	ld	r24, X
    1564:	8b 11       	cpse	r24, r11
    1566:	16 c0       	rjmp	.+44     	; 0x1594 <_ZN11UnitHandler8editUnitEhhh+0x154>
			{
				data[i + 1] = data[i + 1] + 1; // adds 1 to the unit count in new room
    1568:	31 96       	adiw	r30, 0x01	; 1
    156a:	81 e0       	ldi	r24, 0x01	; 1
    156c:	92 e0       	ldi	r25, 0x02	; 2
    156e:	8c 0f       	add	r24, r28
    1570:	9d 1f       	adc	r25, r29
    1572:	e8 0f       	add	r30, r24
    1574:	f9 1f       	adc	r31, r25
    1576:	80 81       	ld	r24, Z
    1578:	8f 5f       	subi	r24, 0xFF	; 255
    157a:	80 83       	st	Z, r24
				i = 512; // exit loop
			}
		}
	}
	
	SD->writeBlock(0x01, data); 
    157c:	9e 01       	movw	r18, r28
    157e:	2f 5f       	subi	r18, 0xFF	; 255
    1580:	3d 4f       	sbci	r19, 0xFD	; 253
    1582:	41 e0       	ldi	r20, 0x01	; 1
    1584:	50 e0       	ldi	r21, 0x00	; 0
    1586:	60 e0       	ldi	r22, 0x00	; 0
    1588:	70 e0       	ldi	r23, 0x00	; 0
    158a:	f8 01       	movw	r30, r16
    158c:	80 81       	ld	r24, Z
    158e:	91 81       	ldd	r25, Z+1	; 0x01
    1590:	ad d3       	rcall	.+1882   	; 0x1cec <_ZN6sdCard10writeBlockEmPKh>
    1592:	25 c0       	rjmp	.+74     	; 0x15de <_ZN11UnitHandler8editUnitEhhh+0x19e>
			}
		}
	}
	
	bool roomExists = false;
	for (int i = 0; i<= 511; i++) // looping to see if new room allready exists
    1594:	31 96       	adiw	r30, 0x01	; 1
    1596:	e1 15       	cp	r30, r1
    1598:	22 e0       	ldi	r18, 0x02	; 2
    159a:	f2 07       	cpc	r31, r18
    159c:	d1 f6       	brne	.-76     	; 0x1552 <_ZN11UnitHandler8editUnitEhhh+0x112>
    159e:	27 c0       	rjmp	.+78     	; 0x15ee <_ZN11UnitHandler8editUnitEhhh+0x1ae>
	}
	

	for (int i = 0; i <= 6; i++)
	{
		SD->readBlock(address, data2);
    15a0:	9e 01       	movw	r18, r28
    15a2:	2f 5f       	subi	r18, 0xFF	; 255
    15a4:	3f 4f       	sbci	r19, 0xFF	; 255
    15a6:	b7 01       	movw	r22, r14
    15a8:	a6 01       	movw	r20, r12
    15aa:	f8 01       	movw	r30, r16
    15ac:	80 81       	ld	r24, Z
    15ae:	91 81       	ldd	r25, Z+1	; 0x01
    15b0:	37 d3       	rcall	.+1646   	; 0x1c20 <_ZN6sdCard9readBlockEmPh>
		data2[0] = newUnitID;
    15b2:	a9 82       	std	Y+1, r10	; 0x01
		data2[2] = roomID;
    15b4:	bb 82       	std	Y+3, r11	; 0x03
		SD->writeBlock(address, data2);
    15b6:	9e 01       	movw	r18, r28
    15b8:	2f 5f       	subi	r18, 0xFF	; 255
    15ba:	3f 4f       	sbci	r19, 0xFF	; 255
    15bc:	b7 01       	movw	r22, r14
    15be:	a6 01       	movw	r20, r12
    15c0:	f8 01       	movw	r30, r16
    15c2:	80 81       	ld	r24, Z
    15c4:	91 81       	ldd	r25, Z+1	; 0x01
    15c6:	92 d3       	rcall	.+1828   	; 0x1cec <_ZN6sdCard10writeBlockEmPKh>
		address++;
    15c8:	ff ef       	ldi	r31, 0xFF	; 255
    15ca:	cf 1a       	sub	r12, r31
    15cc:	df 0a       	sbc	r13, r31
    15ce:	ef 0a       	sbc	r14, r31
    15d0:	ff 0a       	sbc	r15, r31
		createNewRoom(roomID);
		addUnitToRoom(roomID);
	}
	

	for (int i = 0; i <= 6; i++)
    15d2:	c4 14       	cp	r12, r4
    15d4:	d5 04       	cpc	r13, r5
    15d6:	e6 04       	cpc	r14, r6
    15d8:	f7 04       	cpc	r15, r7
    15da:	11 f7       	brne	.-60     	; 0x15a0 <_ZN11UnitHandler8editUnitEhhh+0x160>
    15dc:	1a c0       	rjmp	.+52     	; 0x1612 <_ZN11UnitHandler8editUnitEhhh+0x1d2>
    15de:	26 01       	movw	r4, r12
    15e0:	37 01       	movw	r6, r14
    15e2:	27 e0       	ldi	r18, 0x07	; 7
    15e4:	42 0e       	add	r4, r18
    15e6:	51 1c       	adc	r5, r1
    15e8:	61 1c       	adc	r6, r1
    15ea:	71 1c       	adc	r7, r1
    15ec:	d9 cf       	rjmp	.-78     	; 0x15a0 <_ZN11UnitHandler8editUnitEhhh+0x160>
				i = 512; // exit loop
			}
		}
	}
	
	SD->writeBlock(0x01, data); 
    15ee:	9e 01       	movw	r18, r28
    15f0:	2f 5f       	subi	r18, 0xFF	; 255
    15f2:	3d 4f       	sbci	r19, 0xFD	; 253
    15f4:	41 e0       	ldi	r20, 0x01	; 1
    15f6:	50 e0       	ldi	r21, 0x00	; 0
    15f8:	60 e0       	ldi	r22, 0x00	; 0
    15fa:	70 e0       	ldi	r23, 0x00	; 0
    15fc:	f8 01       	movw	r30, r16
    15fe:	80 81       	ld	r24, Z
    1600:	91 81       	ldd	r25, Z+1	; 0x01
    1602:	74 d3       	rcall	.+1768   	; 0x1cec <_ZN6sdCard10writeBlockEmPKh>
	
	// create room and add unit if room does not exits
	if(roomExists == false)
	{ 
		createNewRoom(roomID);
    1604:	6b 2d       	mov	r22, r11
    1606:	c8 01       	movw	r24, r16
    1608:	b0 dc       	rcall	.-1696   	; 0xf6a <_ZN11UnitHandler13createNewRoomEh>
		addUnitToRoom(roomID);
    160a:	6b 2d       	mov	r22, r11
    160c:	c8 01       	movw	r24, r16
    160e:	05 dd       	rcall	.-1526   	; 0x101a <_ZN11UnitHandler13addUnitToRoomEh>
    1610:	e6 cf       	rjmp	.-52     	; 0x15de <_ZN11UnitHandler8editUnitEhhh+0x19e>
		data2[2] = roomID;
		SD->writeBlock(address, data2);
		address++;
	}

}
    1612:	80 e0       	ldi	r24, 0x00	; 0
    1614:	dc 5f       	subi	r29, 0xFC	; 252
    1616:	0f b6       	in	r0, 0x3f	; 63
    1618:	f8 94       	cli
    161a:	de bf       	out	0x3e, r29	; 62
    161c:	0f be       	out	0x3f, r0	; 63
    161e:	cd bf       	out	0x3d, r28	; 61
    1620:	df 91       	pop	r29
    1622:	cf 91       	pop	r28
    1624:	1f 91       	pop	r17
    1626:	0f 91       	pop	r16
    1628:	ff 90       	pop	r15
    162a:	ef 90       	pop	r14
    162c:	df 90       	pop	r13
    162e:	cf 90       	pop	r12
    1630:	bf 90       	pop	r11
    1632:	af 90       	pop	r10
    1634:	7f 90       	pop	r7
    1636:	6f 90       	pop	r6
    1638:	5f 90       	pop	r5
    163a:	4f 90       	pop	r4
    163c:	08 95       	ret

0000163e <_ZN11UnitHandler12getUnitCountEv>:
// DESCR. : returns numbers of units.
// =============================================================
unsigned char UnitHandler::getUnitCount()
{
	return numberOfUnits;
    163e:	fc 01       	movw	r30, r24
    1640:	82 81       	ldd	r24, Z+2	; 0x02
    1642:	08 95       	ret

00001644 <_ZN3rtcC1Ehi>:
	i2c_obj.write(this->adress | 0x01);
	unsigned char currentSeconds = i2c_obj.read(1);
	i2c_obj.stop();
		
	return bcdToInt(currentSeconds);
}
    1644:	1f 93       	push	r17
    1646:	cf 93       	push	r28
    1648:	df 93       	push	r29
    164a:	ec 01       	movw	r28, r24
    164c:	16 2f       	mov	r17, r22
    164e:	61 e0       	ldi	r22, 0x01	; 1
    1650:	01 96       	adiw	r24, 0x01	; 1
    1652:	0e 94 a1 00 	call	0x142	; 0x142 <_ZN3i2cC1Ebi>
    1656:	18 83       	st	Y, r17
    1658:	df 91       	pop	r29
    165a:	cf 91       	pop	r28
    165c:	1f 91       	pop	r17
    165e:	08 95       	ret

00001660 <_ZN3rtc7setTimeEhhh>:
    1660:	cf 92       	push	r12
    1662:	df 92       	push	r13
    1664:	ef 92       	push	r14
    1666:	ff 92       	push	r15
    1668:	0f 93       	push	r16
    166a:	1f 93       	push	r17
    166c:	cf 93       	push	r28
    166e:	df 93       	push	r29
    1670:	6c 01       	movw	r12, r24
    1672:	c6 2f       	mov	r28, r22
    1674:	f4 2e       	mov	r15, r20
    1676:	e2 2e       	mov	r14, r18
    1678:	8c 01       	movw	r16, r24
    167a:	0f 5f       	subi	r16, 0xFF	; 255
    167c:	1f 4f       	sbci	r17, 0xFF	; 255
    167e:	c8 01       	movw	r24, r16
    1680:	0e 94 c2 00 	call	0x184	; 0x184 <_ZN3i2c5startEv>
    1684:	f6 01       	movw	r30, r12
    1686:	60 81       	ld	r22, Z
    1688:	6e 7f       	andi	r22, 0xFE	; 254
    168a:	c8 01       	movw	r24, r16
    168c:	0e 94 cf 00 	call	0x19e	; 0x19e <_ZN3i2c5writeEh>
    1690:	60 e0       	ldi	r22, 0x00	; 0
    1692:	c8 01       	movw	r24, r16
    1694:	0e 94 cf 00 	call	0x19e	; 0x19e <_ZN3i2c5writeEh>
    1698:	dd ec       	ldi	r29, 0xCD	; 205
    169a:	ed 9e       	mul	r14, r29
    169c:	81 2d       	mov	r24, r1
    169e:	11 24       	eor	r1, r1
    16a0:	86 95       	lsr	r24
    16a2:	86 95       	lsr	r24
    16a4:	86 95       	lsr	r24
    16a6:	28 2f       	mov	r18, r24
    16a8:	22 0f       	add	r18, r18
    16aa:	92 2f       	mov	r25, r18
    16ac:	99 0f       	add	r25, r25
    16ae:	99 0f       	add	r25, r25
    16b0:	92 0f       	add	r25, r18
    16b2:	6e 2d       	mov	r22, r14
    16b4:	69 1b       	sub	r22, r25
    16b6:	f0 e1       	ldi	r31, 0x10	; 16
    16b8:	8f 9f       	mul	r24, r31
    16ba:	60 0d       	add	r22, r0
    16bc:	11 24       	eor	r1, r1
    16be:	c8 01       	movw	r24, r16
    16c0:	0e 94 cf 00 	call	0x19e	; 0x19e <_ZN3i2c5writeEh>
    16c4:	fd 9e       	mul	r15, r29
    16c6:	81 2d       	mov	r24, r1
    16c8:	11 24       	eor	r1, r1
    16ca:	86 95       	lsr	r24
    16cc:	86 95       	lsr	r24
    16ce:	86 95       	lsr	r24
    16d0:	28 2f       	mov	r18, r24
    16d2:	22 0f       	add	r18, r18
    16d4:	92 2f       	mov	r25, r18
    16d6:	99 0f       	add	r25, r25
    16d8:	99 0f       	add	r25, r25
    16da:	92 0f       	add	r25, r18
    16dc:	6f 2d       	mov	r22, r15
    16de:	69 1b       	sub	r22, r25
    16e0:	90 e1       	ldi	r25, 0x10	; 16
    16e2:	89 9f       	mul	r24, r25
    16e4:	60 0d       	add	r22, r0
    16e6:	11 24       	eor	r1, r1
    16e8:	c8 01       	movw	r24, r16
    16ea:	0e 94 cf 00 	call	0x19e	; 0x19e <_ZN3i2c5writeEh>
    16ee:	cd 9f       	mul	r28, r29
    16f0:	d1 2d       	mov	r29, r1
    16f2:	11 24       	eor	r1, r1
    16f4:	d6 95       	lsr	r29
    16f6:	d6 95       	lsr	r29
    16f8:	d6 95       	lsr	r29
    16fa:	9d 2f       	mov	r25, r29
    16fc:	99 0f       	add	r25, r25
    16fe:	89 2f       	mov	r24, r25
    1700:	88 0f       	add	r24, r24
    1702:	88 0f       	add	r24, r24
    1704:	89 0f       	add	r24, r25
    1706:	6c 2f       	mov	r22, r28
    1708:	68 1b       	sub	r22, r24
    170a:	e0 e1       	ldi	r30, 0x10	; 16
    170c:	de 9f       	mul	r29, r30
    170e:	60 0d       	add	r22, r0
    1710:	11 24       	eor	r1, r1
    1712:	60 64       	ori	r22, 0x40	; 64
    1714:	c8 01       	movw	r24, r16
    1716:	0e 94 cf 00 	call	0x19e	; 0x19e <_ZN3i2c5writeEh>
    171a:	c8 01       	movw	r24, r16
    171c:	0e 94 cb 00 	call	0x196	; 0x196 <_ZN3i2c4stopEv>
    1720:	df 91       	pop	r29
    1722:	cf 91       	pop	r28
    1724:	1f 91       	pop	r17
    1726:	0f 91       	pop	r16
    1728:	ff 90       	pop	r15
    172a:	ef 90       	pop	r14
    172c:	df 90       	pop	r13
    172e:	cf 90       	pop	r12
    1730:	08 95       	ret

00001732 <_ZN3rtc7setDateEhhhh>:
    1732:	af 92       	push	r10
    1734:	bf 92       	push	r11
    1736:	df 92       	push	r13
    1738:	ef 92       	push	r14
    173a:	ff 92       	push	r15
    173c:	0f 93       	push	r16
    173e:	1f 93       	push	r17
    1740:	cf 93       	push	r28
    1742:	df 93       	push	r29
    1744:	5c 01       	movw	r10, r24
    1746:	d6 2e       	mov	r13, r22
    1748:	e4 2e       	mov	r14, r20
    174a:	f2 2e       	mov	r15, r18
    174c:	ec 01       	movw	r28, r24
    174e:	21 96       	adiw	r28, 0x01	; 1
    1750:	ce 01       	movw	r24, r28
    1752:	0e 94 c2 00 	call	0x184	; 0x184 <_ZN3i2c5startEv>
    1756:	f5 01       	movw	r30, r10
    1758:	80 81       	ld	r24, Z
    175a:	68 2f       	mov	r22, r24
    175c:	6e 7f       	andi	r22, 0xFE	; 254
    175e:	ce 01       	movw	r24, r28
    1760:	0e 94 cf 00 	call	0x19e	; 0x19e <_ZN3i2c5writeEh>
    1764:	63 e0       	ldi	r22, 0x03	; 3
    1766:	ce 01       	movw	r24, r28
    1768:	0e 94 cf 00 	call	0x19e	; 0x19e <_ZN3i2c5writeEh>
    176c:	60 2f       	mov	r22, r16
    176e:	ce 01       	movw	r24, r28
    1770:	0e 94 cf 00 	call	0x19e	; 0x19e <_ZN3i2c5writeEh>
    1774:	1d ec       	ldi	r17, 0xCD	; 205
    1776:	d1 9e       	mul	r13, r17
    1778:	81 2d       	mov	r24, r1
    177a:	11 24       	eor	r1, r1
    177c:	86 95       	lsr	r24
    177e:	86 95       	lsr	r24
    1780:	86 95       	lsr	r24
    1782:	28 2f       	mov	r18, r24
    1784:	22 0f       	add	r18, r18
    1786:	92 2f       	mov	r25, r18
    1788:	99 0f       	add	r25, r25
    178a:	99 0f       	add	r25, r25
    178c:	92 0f       	add	r25, r18
    178e:	6d 2d       	mov	r22, r13
    1790:	69 1b       	sub	r22, r25
    1792:	f0 e1       	ldi	r31, 0x10	; 16
    1794:	8f 9f       	mul	r24, r31
    1796:	60 0d       	add	r22, r0
    1798:	11 24       	eor	r1, r1
    179a:	ce 01       	movw	r24, r28
    179c:	0e 94 cf 00 	call	0x19e	; 0x19e <_ZN3i2c5writeEh>
    17a0:	e1 9e       	mul	r14, r17
    17a2:	81 2d       	mov	r24, r1
    17a4:	11 24       	eor	r1, r1
    17a6:	86 95       	lsr	r24
    17a8:	86 95       	lsr	r24
    17aa:	86 95       	lsr	r24
    17ac:	28 2f       	mov	r18, r24
    17ae:	22 0f       	add	r18, r18
    17b0:	92 2f       	mov	r25, r18
    17b2:	99 0f       	add	r25, r25
    17b4:	99 0f       	add	r25, r25
    17b6:	92 0f       	add	r25, r18
    17b8:	6e 2d       	mov	r22, r14
    17ba:	69 1b       	sub	r22, r25
    17bc:	90 e1       	ldi	r25, 0x10	; 16
    17be:	89 9f       	mul	r24, r25
    17c0:	60 0d       	add	r22, r0
    17c2:	11 24       	eor	r1, r1
    17c4:	ce 01       	movw	r24, r28
    17c6:	0e 94 cf 00 	call	0x19e	; 0x19e <_ZN3i2c5writeEh>
    17ca:	f1 9e       	mul	r15, r17
    17cc:	11 2d       	mov	r17, r1
    17ce:	11 24       	eor	r1, r1
    17d0:	16 95       	lsr	r17
    17d2:	16 95       	lsr	r17
    17d4:	16 95       	lsr	r17
    17d6:	91 2f       	mov	r25, r17
    17d8:	99 0f       	add	r25, r25
    17da:	89 2f       	mov	r24, r25
    17dc:	88 0f       	add	r24, r24
    17de:	88 0f       	add	r24, r24
    17e0:	89 0f       	add	r24, r25
    17e2:	6f 2d       	mov	r22, r15
    17e4:	68 1b       	sub	r22, r24
    17e6:	e0 e1       	ldi	r30, 0x10	; 16
    17e8:	1e 9f       	mul	r17, r30
    17ea:	60 0d       	add	r22, r0
    17ec:	11 24       	eor	r1, r1
    17ee:	ce 01       	movw	r24, r28
    17f0:	0e 94 cf 00 	call	0x19e	; 0x19e <_ZN3i2c5writeEh>
    17f4:	ce 01       	movw	r24, r28
    17f6:	0e 94 cb 00 	call	0x196	; 0x196 <_ZN3i2c4stopEv>
    17fa:	df 91       	pop	r29
    17fc:	cf 91       	pop	r28
    17fe:	1f 91       	pop	r17
    1800:	0f 91       	pop	r16
    1802:	ff 90       	pop	r15
    1804:	ef 90       	pop	r14
    1806:	df 90       	pop	r13
    1808:	bf 90       	pop	r11
    180a:	af 90       	pop	r10
    180c:	08 95       	ret

0000180e <_ZN3rtc8getHoursEv>:
    180e:	0f 93       	push	r16
    1810:	1f 93       	push	r17
    1812:	cf 93       	push	r28
    1814:	df 93       	push	r29
    1816:	8c 01       	movw	r16, r24
    1818:	ec 01       	movw	r28, r24
    181a:	21 96       	adiw	r28, 0x01	; 1
    181c:	ce 01       	movw	r24, r28
    181e:	0e 94 c2 00 	call	0x184	; 0x184 <_ZN3i2c5startEv>
    1822:	f8 01       	movw	r30, r16
    1824:	60 81       	ld	r22, Z
    1826:	6e 7f       	andi	r22, 0xFE	; 254
    1828:	ce 01       	movw	r24, r28
    182a:	0e 94 cf 00 	call	0x19e	; 0x19e <_ZN3i2c5writeEh>
    182e:	62 e0       	ldi	r22, 0x02	; 2
    1830:	ce 01       	movw	r24, r28
    1832:	0e 94 cf 00 	call	0x19e	; 0x19e <_ZN3i2c5writeEh>
    1836:	ce 01       	movw	r24, r28
    1838:	0e 94 cb 00 	call	0x196	; 0x196 <_ZN3i2c4stopEv>
    183c:	ce 01       	movw	r24, r28
    183e:	0e 94 c2 00 	call	0x184	; 0x184 <_ZN3i2c5startEv>
    1842:	f8 01       	movw	r30, r16
    1844:	60 81       	ld	r22, Z
    1846:	61 60       	ori	r22, 0x01	; 1
    1848:	ce 01       	movw	r24, r28
    184a:	0e 94 cf 00 	call	0x19e	; 0x19e <_ZN3i2c5writeEh>
    184e:	61 e0       	ldi	r22, 0x01	; 1
    1850:	ce 01       	movw	r24, r28
    1852:	0e 94 da 00 	call	0x1b4	; 0x1b4 <_ZN3i2c4readEb>
    1856:	18 2f       	mov	r17, r24
    1858:	ce 01       	movw	r24, r28
    185a:	0e 94 cb 00 	call	0x196	; 0x196 <_ZN3i2c4stopEv>
    185e:	21 2f       	mov	r18, r17
    1860:	2f 70       	andi	r18, 0x0F	; 15
    1862:	16 95       	lsr	r17
    1864:	16 95       	lsr	r17
    1866:	16 95       	lsr	r17
    1868:	16 71       	andi	r17, 0x16	; 22
    186a:	81 2f       	mov	r24, r17
    186c:	88 0f       	add	r24, r24
    186e:	88 0f       	add	r24, r24
    1870:	18 0f       	add	r17, r24
    1872:	81 2f       	mov	r24, r17
    1874:	90 e0       	ldi	r25, 0x00	; 0
    1876:	82 0f       	add	r24, r18
    1878:	91 1d       	adc	r25, r1
    187a:	df 91       	pop	r29
    187c:	cf 91       	pop	r28
    187e:	1f 91       	pop	r17
    1880:	0f 91       	pop	r16
    1882:	08 95       	ret

00001884 <_ZN3rtc9getMinutsEv>:
    1884:	0f 93       	push	r16
    1886:	1f 93       	push	r17
    1888:	cf 93       	push	r28
    188a:	df 93       	push	r29
    188c:	8c 01       	movw	r16, r24
    188e:	ec 01       	movw	r28, r24
    1890:	21 96       	adiw	r28, 0x01	; 1
    1892:	ce 01       	movw	r24, r28
    1894:	0e 94 c2 00 	call	0x184	; 0x184 <_ZN3i2c5startEv>
    1898:	f8 01       	movw	r30, r16
    189a:	60 81       	ld	r22, Z
    189c:	6e 7f       	andi	r22, 0xFE	; 254
    189e:	ce 01       	movw	r24, r28
    18a0:	0e 94 cf 00 	call	0x19e	; 0x19e <_ZN3i2c5writeEh>
    18a4:	61 e0       	ldi	r22, 0x01	; 1
    18a6:	ce 01       	movw	r24, r28
    18a8:	0e 94 cf 00 	call	0x19e	; 0x19e <_ZN3i2c5writeEh>
    18ac:	ce 01       	movw	r24, r28
    18ae:	0e 94 cb 00 	call	0x196	; 0x196 <_ZN3i2c4stopEv>
    18b2:	ce 01       	movw	r24, r28
    18b4:	0e 94 c2 00 	call	0x184	; 0x184 <_ZN3i2c5startEv>
    18b8:	f8 01       	movw	r30, r16
    18ba:	60 81       	ld	r22, Z
    18bc:	61 60       	ori	r22, 0x01	; 1
    18be:	ce 01       	movw	r24, r28
    18c0:	0e 94 cf 00 	call	0x19e	; 0x19e <_ZN3i2c5writeEh>
    18c4:	61 e0       	ldi	r22, 0x01	; 1
    18c6:	ce 01       	movw	r24, r28
    18c8:	0e 94 da 00 	call	0x1b4	; 0x1b4 <_ZN3i2c4readEb>
    18cc:	18 2f       	mov	r17, r24
    18ce:	ce 01       	movw	r24, r28
    18d0:	0e 94 cb 00 	call	0x196	; 0x196 <_ZN3i2c4stopEv>
    18d4:	21 2f       	mov	r18, r17
    18d6:	2f 70       	andi	r18, 0x0F	; 15
    18d8:	12 95       	swap	r17
    18da:	1f 70       	andi	r17, 0x0F	; 15
    18dc:	11 0f       	add	r17, r17
    18de:	81 2f       	mov	r24, r17
    18e0:	88 0f       	add	r24, r24
    18e2:	88 0f       	add	r24, r24
    18e4:	18 0f       	add	r17, r24
    18e6:	81 2f       	mov	r24, r17
    18e8:	90 e0       	ldi	r25, 0x00	; 0
    18ea:	82 0f       	add	r24, r18
    18ec:	91 1d       	adc	r25, r1
    18ee:	df 91       	pop	r29
    18f0:	cf 91       	pop	r28
    18f2:	1f 91       	pop	r17
    18f4:	0f 91       	pop	r16
    18f6:	08 95       	ret

000018f8 <_ZN3rtc12getDayOfWeekEv>:
//=============================================================
// METHOD : getDayOfWeek
// DESCR. : returns current Day of the week from the RTC module
//=============================================================
int rtc::getDayOfWeek()
{
    18f8:	0f 93       	push	r16
    18fa:	1f 93       	push	r17
    18fc:	cf 93       	push	r28
    18fe:	df 93       	push	r29
    1900:	8c 01       	movw	r16, r24
	i2c_obj.start();
    1902:	ec 01       	movw	r28, r24
    1904:	21 96       	adiw	r28, 0x01	; 1
    1906:	ce 01       	movw	r24, r28
    1908:	0e 94 c2 00 	call	0x184	; 0x184 <_ZN3i2c5startEv>
	i2c_obj.write(this->adress & 0xFE);
    190c:	f8 01       	movw	r30, r16
    190e:	60 81       	ld	r22, Z
    1910:	6e 7f       	andi	r22, 0xFE	; 254
    1912:	ce 01       	movw	r24, r28
    1914:	0e 94 cf 00 	call	0x19e	; 0x19e <_ZN3i2c5writeEh>
	i2c_obj.write(0x03);
    1918:	63 e0       	ldi	r22, 0x03	; 3
    191a:	ce 01       	movw	r24, r28
    191c:	0e 94 cf 00 	call	0x19e	; 0x19e <_ZN3i2c5writeEh>
	i2c_obj.stop();
    1920:	ce 01       	movw	r24, r28
    1922:	0e 94 cb 00 	call	0x196	; 0x196 <_ZN3i2c4stopEv>
		
	i2c_obj.start();
    1926:	ce 01       	movw	r24, r28
    1928:	0e 94 c2 00 	call	0x184	; 0x184 <_ZN3i2c5startEv>
	i2c_obj.write(this->adress | 0x01);
    192c:	f8 01       	movw	r30, r16
    192e:	60 81       	ld	r22, Z
    1930:	61 60       	ori	r22, 0x01	; 1
    1932:	ce 01       	movw	r24, r28
    1934:	0e 94 cf 00 	call	0x19e	; 0x19e <_ZN3i2c5writeEh>
	unsigned char currentDay = i2c_obj.read(1);
    1938:	61 e0       	ldi	r22, 0x01	; 1
    193a:	ce 01       	movw	r24, r28
    193c:	0e 94 da 00 	call	0x1b4	; 0x1b4 <_ZN3i2c4readEb>
    1940:	18 2f       	mov	r17, r24
	i2c_obj.stop();
    1942:	ce 01       	movw	r24, r28
    1944:	0e 94 cb 00 	call	0x196	; 0x196 <_ZN3i2c4stopEv>
		
	return currentDay;
}
    1948:	81 2f       	mov	r24, r17
    194a:	90 e0       	ldi	r25, 0x00	; 0
    194c:	df 91       	pop	r29
    194e:	cf 91       	pop	r28
    1950:	1f 91       	pop	r17
    1952:	0f 91       	pop	r16
    1954:	08 95       	ret

00001956 <_ZN6sdCardC1Ei>:
	return spi_obj.recieveByte();
}

void sdCard::writeByte( unsigned char bla)
{
	spi_obj.writeByte(bla);
    1956:	0f 93       	push	r16
    1958:	1f 93       	push	r17
    195a:	cf 93       	push	r28
    195c:	df 93       	push	r29
    195e:	ec 01       	movw	r28, r24
    1960:	8b 01       	movw	r16, r22
    1962:	6d e7       	ldi	r22, 0x7D	; 125
    1964:	70 e0       	ldi	r23, 0x00	; 0
    1966:	8e d2       	rcall	.+1308   	; 0x1e84 <_ZN3SPIC1Ei>
    1968:	1a 83       	std	Y+2, r17	; 0x02
    196a:	09 83       	std	Y+1, r16	; 0x01
    196c:	df 91       	pop	r29
    196e:	cf 91       	pop	r28
    1970:	1f 91       	pop	r17
    1972:	0f 91       	pop	r16
    1974:	08 95       	ret

00001976 <_ZN6sdCard4initEv>:
}

bool sdCard::init()
{
    1976:	af 92       	push	r10
    1978:	bf 92       	push	r11
    197a:	cf 92       	push	r12
    197c:	df 92       	push	r13
    197e:	ef 92       	push	r14
    1980:	ff 92       	push	r15
    1982:	0f 93       	push	r16
    1984:	1f 93       	push	r17
    1986:	cf 93       	push	r28
    1988:	df 93       	push	r29
    198a:	00 d0       	rcall	.+0      	; 0x198c <_ZN6sdCard4initEv+0x16>
    198c:	1f 92       	push	r1
    198e:	1f 92       	push	r1
    1990:	cd b7       	in	r28, 0x3d	; 61
    1992:	de b7       	in	r29, 0x3e	; 62
    1994:	e8 2e       	mov	r14, r24
    1996:	f9 2e       	mov	r15, r25
	#else
		//round up by default
		__ticks_dc = (uint32_t)(ceil(fabs(__tmp)));
	#endif

	__builtin_avr_delay_cycles(__ticks_dc);
    1998:	83 ef       	ldi	r24, 0xF3	; 243
    199a:	91 e0       	ldi	r25, 0x01	; 1
    199c:	01 97       	sbiw	r24, 0x01	; 1
    199e:	f1 f7       	brne	.-4      	; 0x199c <_ZN6sdCard4initEv+0x26>
    19a0:	00 c0       	rjmp	.+0      	; 0x19a2 <_ZN6sdCard4initEv+0x2c>
    19a2:	00 00       	nop
	_delay_ms(2);
	PORTB = PINB | 0b00000001; // sets the SS pin ghigh
    19a4:	83 b1       	in	r24, 0x03	; 3
    19a6:	81 60       	ori	r24, 0x01	; 1
    19a8:	85 b9       	out	0x05, r24	; 5
	spi_obj.setFreq(125); // frequency during initiation must be lower than 400 kHz.
    19aa:	1e 2d       	mov	r17, r14
    19ac:	0f 2d       	mov	r16, r15
    19ae:	6d e7       	ldi	r22, 0x7D	; 125
    19b0:	70 e0       	ldi	r23, 0x00	; 0
    19b2:	8e 2d       	mov	r24, r14
    19b4:	9f 2d       	mov	r25, r15
    19b6:	41 d2       	rcall	.+1154   	; 0x1e3a <_ZN3SPI7setFreqEi>
    19b8:	e3 ef       	ldi	r30, 0xF3	; 243
    19ba:	f1 e0       	ldi	r31, 0x01	; 1
    19bc:	31 97       	sbiw	r30, 0x01	; 1
    19be:	f1 f7       	brne	.-4      	; 0x19bc <_ZN6sdCard4initEv+0x46>
    19c0:	00 c0       	rjmp	.+0      	; 0x19c2 <_ZN6sdCard4initEv+0x4c>
    19c2:	00 00       	nop
	_delay_ms(2); // let the clock settle in.
	
	// dummy cycles need to be moved to sdCard class.
	spi_obj.writeByte(0xFF);
    19c4:	6f ef       	ldi	r22, 0xFF	; 255
    19c6:	8e 2d       	mov	r24, r14
    19c8:	9f 2d       	mov	r25, r15
    19ca:	62 d2       	rcall	.+1220   	; 0x1e90 <_ZN3SPI9writeByteEh>
	spi_obj.writeByte(0xFF);
    19cc:	6f ef       	ldi	r22, 0xFF	; 255
    19ce:	8e 2d       	mov	r24, r14
    19d0:	9f 2d       	mov	r25, r15
    19d2:	5e d2       	rcall	.+1212   	; 0x1e90 <_ZN3SPI9writeByteEh>
	spi_obj.writeByte(0xFF);
    19d4:	6f ef       	ldi	r22, 0xFF	; 255
    19d6:	8e 2d       	mov	r24, r14
    19d8:	9f 2d       	mov	r25, r15
    19da:	5a d2       	rcall	.+1204   	; 0x1e90 <_ZN3SPI9writeByteEh>
	spi_obj.writeByte(0xFF);
    19dc:	6f ef       	ldi	r22, 0xFF	; 255
    19de:	8e 2d       	mov	r24, r14
    19e0:	9f 2d       	mov	r25, r15
    19e2:	56 d2       	rcall	.+1196   	; 0x1e90 <_ZN3SPI9writeByteEh>
	spi_obj.writeByte(0xFF);
    19e4:	6f ef       	ldi	r22, 0xFF	; 255
    19e6:	8e 2d       	mov	r24, r14
    19e8:	9f 2d       	mov	r25, r15
    19ea:	52 d2       	rcall	.+1188   	; 0x1e90 <_ZN3SPI9writeByteEh>
	spi_obj.writeByte(0xFF);
    19ec:	6f ef       	ldi	r22, 0xFF	; 255
    19ee:	8e 2d       	mov	r24, r14
    19f0:	9f 2d       	mov	r25, r15
    19f2:	4e d2       	rcall	.+1180   	; 0x1e90 <_ZN3SPI9writeByteEh>
	spi_obj.writeByte(0xFF);
    19f4:	6f ef       	ldi	r22, 0xFF	; 255
    19f6:	8e 2d       	mov	r24, r14
    19f8:	9f 2d       	mov	r25, r15
    19fa:	4a d2       	rcall	.+1172   	; 0x1e90 <_ZN3SPI9writeByteEh>
	spi_obj.writeByte(0xFF);
    19fc:	6f ef       	ldi	r22, 0xFF	; 255
    19fe:	8e 2d       	mov	r24, r14
    1a00:	9f 2d       	mov	r25, r15
    1a02:	46 d2       	rcall	.+1164   	; 0x1e90 <_ZN3SPI9writeByteEh>
	spi_obj.writeByte(0xFF);
    1a04:	6f ef       	ldi	r22, 0xFF	; 255
    1a06:	8e 2d       	mov	r24, r14
    1a08:	9f 2d       	mov	r25, r15
    1a0a:	42 d2       	rcall	.+1156   	; 0x1e90 <_ZN3SPI9writeByteEh>
	spi_obj.writeByte(0xFF);
    1a0c:	6f ef       	ldi	r22, 0xFF	; 255
    1a0e:	8e 2d       	mov	r24, r14
    1a10:	9f 2d       	mov	r25, r15
    1a12:	3e d2       	rcall	.+1148   	; 0x1e90 <_ZN3SPI9writeByteEh>
	
	unsigned char result = 0x00; // variable to store the result for error checking.
	do
	{
		PORTB = PINB & 0b11111110; // set the SS pin low
    1a14:	23 b1       	in	r18, 0x03	; 3
    1a16:	2e 7f       	andi	r18, 0xFE	; 254
    1a18:	25 b9       	out	0x05, r18	; 5
		// CMD0 needs to be moved to SD card class
		spi_obj.writeByte(0xFF); // dummy byte to let clock sync.
    1a1a:	6f ef       	ldi	r22, 0xFF	; 255
    1a1c:	81 2f       	mov	r24, r17
    1a1e:	90 2f       	mov	r25, r16
    1a20:	37 d2       	rcall	.+1134   	; 0x1e90 <_ZN3SPI9writeByteEh>
		spi_obj.writeByte(0x40); // cmd
    1a22:	60 e4       	ldi	r22, 0x40	; 64
    1a24:	81 2f       	mov	r24, r17
    1a26:	90 2f       	mov	r25, r16
    1a28:	33 d2       	rcall	.+1126   	; 0x1e90 <_ZN3SPI9writeByteEh>
		spi_obj.writeByte(0x00); // no argument
    1a2a:	60 e0       	ldi	r22, 0x00	; 0
    1a2c:	81 2f       	mov	r24, r17
    1a2e:	90 2f       	mov	r25, r16
    1a30:	2f d2       	rcall	.+1118   	; 0x1e90 <_ZN3SPI9writeByteEh>
		spi_obj.writeByte(0x00); // no argument
    1a32:	60 e0       	ldi	r22, 0x00	; 0
    1a34:	81 2f       	mov	r24, r17
    1a36:	90 2f       	mov	r25, r16
    1a38:	2b d2       	rcall	.+1110   	; 0x1e90 <_ZN3SPI9writeByteEh>
		spi_obj.writeByte(0x00); // no argument
    1a3a:	60 e0       	ldi	r22, 0x00	; 0
    1a3c:	81 2f       	mov	r24, r17
    1a3e:	90 2f       	mov	r25, r16
    1a40:	27 d2       	rcall	.+1102   	; 0x1e90 <_ZN3SPI9writeByteEh>
		spi_obj.writeByte(0x00); // no argument
    1a42:	60 e0       	ldi	r22, 0x00	; 0
    1a44:	81 2f       	mov	r24, r17
    1a46:	90 2f       	mov	r25, r16
    1a48:	23 d2       	rcall	.+1094   	; 0x1e90 <_ZN3SPI9writeByteEh>
		spi_obj.writeByte(0x95); // CRC
    1a4a:	65 e9       	ldi	r22, 0x95	; 149
    1a4c:	81 2f       	mov	r24, r17
    1a4e:	90 2f       	mov	r25, r16
    1a50:	1f d2       	rcall	.+1086   	; 0x1e90 <_ZN3SPI9writeByteEh>
		spi_obj.recieveByte(); // grab blank return before the real value is extracted
    1a52:	81 2f       	mov	r24, r17
    1a54:	90 2f       	mov	r25, r16
    1a56:	22 d2       	rcall	.+1092   	; 0x1e9c <_ZN3SPI11recieveByteEv>
		result = spi_obj.recieveByte(); // grab R1 return value
    1a58:	81 2f       	mov	r24, r17
    1a5a:	90 2f       	mov	r25, r16
    1a5c:	1f d2       	rcall	.+1086   	; 0x1e9c <_ZN3SPI11recieveByteEv>
	spi_obj.writeByte(0xFF);
	spi_obj.writeByte(0xFF);
	spi_obj.writeByte(0xFF);
	
	unsigned char result = 0x00; // variable to store the result for error checking.
	do
    1a5e:	8f 3f       	cpi	r24, 0xFF	; 255
    1a60:	c9 f2       	breq	.-78     	; 0x1a14 <_ZN6sdCard4initEv+0x9e>
		spi_obj.writeByte(0x95); // CRC
		spi_obj.recieveByte(); // grab blank return before the real value is extracted
		result = spi_obj.recieveByte(); // grab R1 return value
	} while (result == 0xFF);
	
	if(result == 0x01)
    1a62:	81 30       	cpi	r24, 0x01	; 1
    1a64:	09 f0       	breq	.+2      	; 0x1a68 <_ZN6sdCard4initEv+0xf2>
    1a66:	bf c0       	rjmp	.+382    	; 0x1be6 <_ZN6sdCard4initEv+0x270>
	{
		// CMD8 needs to be moved to SD card class
		spi_obj.writeByte(0xFF); // Dummy byte to let clock sync
    1a68:	6f ef       	ldi	r22, 0xFF	; 255
    1a6a:	8e 2d       	mov	r24, r14
    1a6c:	9f 2d       	mov	r25, r15
    1a6e:	10 d2       	rcall	.+1056   	; 0x1e90 <_ZN3SPI9writeByteEh>
		spi_obj.writeByte(0x48); // CMD
    1a70:	68 e4       	ldi	r22, 0x48	; 72
    1a72:	8e 2d       	mov	r24, r14
    1a74:	9f 2d       	mov	r25, r15
    1a76:	0c d2       	rcall	.+1048   	; 0x1e90 <_ZN3SPI9writeByteEh>
		spi_obj.writeByte(0x00); // argument data 4 bytes
    1a78:	60 e0       	ldi	r22, 0x00	; 0
    1a7a:	8e 2d       	mov	r24, r14
    1a7c:	9f 2d       	mov	r25, r15
    1a7e:	08 d2       	rcall	.+1040   	; 0x1e90 <_ZN3SPI9writeByteEh>
		spi_obj.writeByte(0x00);
    1a80:	60 e0       	ldi	r22, 0x00	; 0
    1a82:	8e 2d       	mov	r24, r14
    1a84:	9f 2d       	mov	r25, r15
    1a86:	04 d2       	rcall	.+1032   	; 0x1e90 <_ZN3SPI9writeByteEh>
		spi_obj.writeByte(0x01);
    1a88:	61 e0       	ldi	r22, 0x01	; 1
    1a8a:	8e 2d       	mov	r24, r14
    1a8c:	9f 2d       	mov	r25, r15
    1a8e:	00 d2       	rcall	.+1024   	; 0x1e90 <_ZN3SPI9writeByteEh>
		spi_obj.writeByte(0xAA);
    1a90:	6a ea       	ldi	r22, 0xAA	; 170
    1a92:	8e 2d       	mov	r24, r14
    1a94:	9f 2d       	mov	r25, r15
    1a96:	fc d1       	rcall	.+1016   	; 0x1e90 <_ZN3SPI9writeByteEh>
		spi_obj.writeByte(0x87); // CRC
    1a98:	67 e8       	ldi	r22, 0x87	; 135
    1a9a:	8e 2d       	mov	r24, r14
    1a9c:	9f 2d       	mov	r25, r15
    1a9e:	f8 d1       	rcall	.+1008   	; 0x1e90 <_ZN3SPI9writeByteEh>
	else
	{
		return false;
	}
	unsigned char cmd8result[5];
	spi_obj.recieveByte(); // grab useless data from pause before the real response.
    1aa0:	8e 2d       	mov	r24, r14
    1aa2:	9f 2d       	mov	r25, r15
    1aa4:	fb d1       	rcall	.+1014   	; 0x1e9c <_ZN3SPI11recieveByteEv>
    1aa6:	ce 01       	movw	r24, r28
    1aa8:	01 96       	adiw	r24, 0x01	; 1
    1aaa:	6c 01       	movw	r12, r24
    1aac:	5e 01       	movw	r10, r28
    1aae:	96 e0       	ldi	r25, 0x06	; 6
    1ab0:	a9 0e       	add	r10, r25
    1ab2:	b1 1c       	adc	r11, r1
	for(int i = 0; i < 5; i++)
	{
		cmd8result[i] = spi_obj.recieveByte(); // fill in the response array
    1ab4:	81 2f       	mov	r24, r17
    1ab6:	90 2f       	mov	r25, r16
    1ab8:	f1 d1       	rcall	.+994    	; 0x1e9c <_ZN3SPI11recieveByteEv>
    1aba:	f6 01       	movw	r30, r12
    1abc:	81 93       	st	Z+, r24
    1abe:	6f 01       	movw	r12, r30
	{
		return false;
	}
	unsigned char cmd8result[5];
	spi_obj.recieveByte(); // grab useless data from pause before the real response.
	for(int i = 0; i < 5; i++)
    1ac0:	ea 15       	cp	r30, r10
    1ac2:	fb 05       	cpc	r31, r11
    1ac4:	b9 f7       	brne	.-18     	; 0x1ab4 <_ZN6sdCard4initEv+0x13e>
	{
		cmd8result[i] = spi_obj.recieveByte(); // fill in the response array
	}

	if( cmd8result[0] == 0x01 && cmd8result[1] == 0x00 && cmd8result[2] == 0x00 && cmd8result[3] == 0x01 && cmd8result[4] == 0xAA ) // validate that the card is sd v2
    1ac6:	89 81       	ldd	r24, Y+1	; 0x01
    1ac8:	81 30       	cpi	r24, 0x01	; 1
    1aca:	09 f0       	breq	.+2      	; 0x1ace <_ZN6sdCard4initEv+0x158>
    1acc:	8e c0       	rjmp	.+284    	; 0x1bea <_ZN6sdCard4initEv+0x274>
    1ace:	8a 81       	ldd	r24, Y+2	; 0x02
    1ad0:	81 11       	cpse	r24, r1
    1ad2:	8d c0       	rjmp	.+282    	; 0x1bee <_ZN6sdCard4initEv+0x278>
    1ad4:	8b 81       	ldd	r24, Y+3	; 0x03
    1ad6:	81 11       	cpse	r24, r1
    1ad8:	8c c0       	rjmp	.+280    	; 0x1bf2 <_ZN6sdCard4initEv+0x27c>
    1ada:	8c 81       	ldd	r24, Y+4	; 0x04
    1adc:	81 30       	cpi	r24, 0x01	; 1
    1ade:	09 f0       	breq	.+2      	; 0x1ae2 <_ZN6sdCard4initEv+0x16c>
    1ae0:	8a c0       	rjmp	.+276    	; 0x1bf6 <_ZN6sdCard4initEv+0x280>
    1ae2:	8d 81       	ldd	r24, Y+5	; 0x05
    1ae4:	8a 3a       	cpi	r24, 0xAA	; 170
    1ae6:	09 f0       	breq	.+2      	; 0x1aea <_ZN6sdCard4initEv+0x174>
    1ae8:	88 c0       	rjmp	.+272    	; 0x1bfa <_ZN6sdCard4initEv+0x284>
		// if cmd8 successfull start initiating the card
		do // loop fra ACMD41 untill card goes busy.
		{ 
		// CMD55 part of ACMD41
		
		spi_obj.writeByte(0xFF); // sync byte
    1aea:	6f ef       	ldi	r22, 0xFF	; 255
    1aec:	81 2f       	mov	r24, r17
    1aee:	90 2f       	mov	r25, r16
    1af0:	cf d1       	rcall	.+926    	; 0x1e90 <_ZN3SPI9writeByteEh>
		spi_obj.writeByte(0x77); // CMD 55
    1af2:	67 e7       	ldi	r22, 0x77	; 119
    1af4:	81 2f       	mov	r24, r17
    1af6:	90 2f       	mov	r25, r16
    1af8:	cb d1       	rcall	.+918    	; 0x1e90 <_ZN3SPI9writeByteEh>
		spi_obj.writeByte(0x00);
    1afa:	60 e0       	ldi	r22, 0x00	; 0
    1afc:	81 2f       	mov	r24, r17
    1afe:	90 2f       	mov	r25, r16
    1b00:	c7 d1       	rcall	.+910    	; 0x1e90 <_ZN3SPI9writeByteEh>
		spi_obj.writeByte(0x00);
    1b02:	60 e0       	ldi	r22, 0x00	; 0
    1b04:	81 2f       	mov	r24, r17
    1b06:	90 2f       	mov	r25, r16
    1b08:	c3 d1       	rcall	.+902    	; 0x1e90 <_ZN3SPI9writeByteEh>
		spi_obj.writeByte(0x00);
    1b0a:	60 e0       	ldi	r22, 0x00	; 0
    1b0c:	81 2f       	mov	r24, r17
    1b0e:	90 2f       	mov	r25, r16
    1b10:	bf d1       	rcall	.+894    	; 0x1e90 <_ZN3SPI9writeByteEh>
		spi_obj.writeByte(0x00);
    1b12:	60 e0       	ldi	r22, 0x00	; 0
    1b14:	81 2f       	mov	r24, r17
    1b16:	90 2f       	mov	r25, r16
    1b18:	bb d1       	rcall	.+886    	; 0x1e90 <_ZN3SPI9writeByteEh>
		spi_obj.writeByte(0xFF); // dummy CRC since CRC should be off now;
    1b1a:	6f ef       	ldi	r22, 0xFF	; 255
    1b1c:	81 2f       	mov	r24, r17
    1b1e:	90 2f       	mov	r25, r16
    1b20:	b7 d1       	rcall	.+878    	; 0x1e90 <_ZN3SPI9writeByteEh>
		spi_obj.recieveByte();
    1b22:	81 2f       	mov	r24, r17
    1b24:	90 2f       	mov	r25, r16
    1b26:	ba d1       	rcall	.+884    	; 0x1e9c <_ZN3SPI11recieveByteEv>
		
		result = spi_obj.recieveByte();
    1b28:	81 2f       	mov	r24, r17
    1b2a:	90 2f       	mov	r25, r16
    1b2c:	b7 d1       	rcall	.+878    	; 0x1e9c <_ZN3SPI11recieveByteEv>
	
		//rest of ACMD41
		spi_obj.writeByte(0xFF);
    1b2e:	6f ef       	ldi	r22, 0xFF	; 255
    1b30:	81 2f       	mov	r24, r17
    1b32:	90 2f       	mov	r25, r16
    1b34:	ad d1       	rcall	.+858    	; 0x1e90 <_ZN3SPI9writeByteEh>
		spi_obj.writeByte(0x69); // acmd41
    1b36:	69 e6       	ldi	r22, 0x69	; 105
    1b38:	81 2f       	mov	r24, r17
    1b3a:	90 2f       	mov	r25, r16
    1b3c:	a9 d1       	rcall	.+850    	; 0x1e90 <_ZN3SPI9writeByteEh>
		spi_obj.writeByte(0x40); // HCS bit set high.
    1b3e:	60 e4       	ldi	r22, 0x40	; 64
    1b40:	81 2f       	mov	r24, r17
    1b42:	90 2f       	mov	r25, r16
    1b44:	a5 d1       	rcall	.+842    	; 0x1e90 <_ZN3SPI9writeByteEh>
		spi_obj.writeByte(0x00);
    1b46:	60 e0       	ldi	r22, 0x00	; 0
    1b48:	81 2f       	mov	r24, r17
    1b4a:	90 2f       	mov	r25, r16
    1b4c:	a1 d1       	rcall	.+834    	; 0x1e90 <_ZN3SPI9writeByteEh>
		spi_obj.writeByte(0x00);
    1b4e:	60 e0       	ldi	r22, 0x00	; 0
    1b50:	81 2f       	mov	r24, r17
    1b52:	90 2f       	mov	r25, r16
    1b54:	9d d1       	rcall	.+826    	; 0x1e90 <_ZN3SPI9writeByteEh>
		spi_obj.writeByte(0x00);
    1b56:	60 e0       	ldi	r22, 0x00	; 0
    1b58:	81 2f       	mov	r24, r17
    1b5a:	90 2f       	mov	r25, r16
    1b5c:	99 d1       	rcall	.+818    	; 0x1e90 <_ZN3SPI9writeByteEh>
		spi_obj.writeByte(0xFF); // dummy CRC
    1b5e:	6f ef       	ldi	r22, 0xFF	; 255
    1b60:	81 2f       	mov	r24, r17
    1b62:	90 2f       	mov	r25, r16
    1b64:	95 d1       	rcall	.+810    	; 0x1e90 <_ZN3SPI9writeByteEh>
		spi_obj.recieveByte();
    1b66:	81 2f       	mov	r24, r17
    1b68:	90 2f       	mov	r25, r16
    1b6a:	98 d1       	rcall	.+816    	; 0x1e9c <_ZN3SPI11recieveByteEv>
		result = spi_obj.recieveByte();
    1b6c:	81 2f       	mov	r24, r17
    1b6e:	90 2f       	mov	r25, r16
    1b70:	95 d1       	rcall	.+810    	; 0x1e9c <_ZN3SPI11recieveByteEv>
	}

	if( cmd8result[0] == 0x01 && cmd8result[1] == 0x00 && cmd8result[2] == 0x00 && cmd8result[3] == 0x01 && cmd8result[4] == 0xAA ) // validate that the card is sd v2
	{
		// if cmd8 successfull start initiating the card
		do // loop fra ACMD41 untill card goes busy.
    1b72:	81 11       	cpse	r24, r1
    1b74:	ba cf       	rjmp	.-140    	; 0x1aea <_ZN6sdCard4initEv+0x174>
		
		//SendChar(result);
		} while(result != 0x00); // loop untill card goes busy, indicating the cmd was accepted.
	
		// sending command 58 to request OCR register
		spi_obj.writeByte(0xFF);
    1b76:	6f ef       	ldi	r22, 0xFF	; 255
    1b78:	8e 2d       	mov	r24, r14
    1b7a:	9f 2d       	mov	r25, r15
    1b7c:	89 d1       	rcall	.+786    	; 0x1e90 <_ZN3SPI9writeByteEh>
		spi_obj.writeByte(0x7A); // cmd 58
    1b7e:	6a e7       	ldi	r22, 0x7A	; 122
    1b80:	8e 2d       	mov	r24, r14
    1b82:	9f 2d       	mov	r25, r15
    1b84:	85 d1       	rcall	.+778    	; 0x1e90 <_ZN3SPI9writeByteEh>
		spi_obj.writeByte(0x00);
    1b86:	60 e0       	ldi	r22, 0x00	; 0
    1b88:	8e 2d       	mov	r24, r14
    1b8a:	9f 2d       	mov	r25, r15
    1b8c:	81 d1       	rcall	.+770    	; 0x1e90 <_ZN3SPI9writeByteEh>
		spi_obj.writeByte(0x00);
    1b8e:	60 e0       	ldi	r22, 0x00	; 0
    1b90:	8e 2d       	mov	r24, r14
    1b92:	9f 2d       	mov	r25, r15
    1b94:	7d d1       	rcall	.+762    	; 0x1e90 <_ZN3SPI9writeByteEh>
		spi_obj.writeByte(0x00);
    1b96:	60 e0       	ldi	r22, 0x00	; 0
    1b98:	8e 2d       	mov	r24, r14
    1b9a:	9f 2d       	mov	r25, r15
    1b9c:	79 d1       	rcall	.+754    	; 0x1e90 <_ZN3SPI9writeByteEh>
		spi_obj.writeByte(0x00);
    1b9e:	60 e0       	ldi	r22, 0x00	; 0
    1ba0:	8e 2d       	mov	r24, r14
    1ba2:	9f 2d       	mov	r25, r15
    1ba4:	75 d1       	rcall	.+746    	; 0x1e90 <_ZN3SPI9writeByteEh>
		spi_obj.writeByte(0xFF); // dummy CRC;
    1ba6:	6f ef       	ldi	r22, 0xFF	; 255
    1ba8:	8e 2d       	mov	r24, r14
    1baa:	9f 2d       	mov	r25, r15
    1bac:	71 d1       	rcall	.+738    	; 0x1e90 <_ZN3SPI9writeByteEh>
	
		unsigned char OCR[4]; // used to store the OCR register
	
		spi_obj.recieveByte();
    1bae:	8e 2d       	mov	r24, r14
    1bb0:	9f 2d       	mov	r25, r15
    1bb2:	74 d1       	rcall	.+744    	; 0x1e9c <_ZN3SPI11recieveByteEv>
		spi_obj.recieveByte(); // R1 byte, not using the content of it here, as i'm keeping it simplified.
    1bb4:	8e 2d       	mov	r24, r14
    1bb6:	9f 2d       	mov	r25, r15
    1bb8:	71 d1       	rcall	.+738    	; 0x1e9c <_ZN3SPI11recieveByteEv>
		OCR[0] = spi_obj.recieveByte(); // getting the 4 bytes of OCR
    1bba:	8e 2d       	mov	r24, r14
    1bbc:	9f 2d       	mov	r25, r15
    1bbe:	6e d1       	rcall	.+732    	; 0x1e9c <_ZN3SPI11recieveByteEv>
    1bc0:	18 2f       	mov	r17, r24
		OCR[1] = spi_obj.recieveByte();
    1bc2:	8e 2d       	mov	r24, r14
    1bc4:	9f 2d       	mov	r25, r15
    1bc6:	6a d1       	rcall	.+724    	; 0x1e9c <_ZN3SPI11recieveByteEv>
		OCR[2] = spi_obj.recieveByte();
    1bc8:	8e 2d       	mov	r24, r14
    1bca:	9f 2d       	mov	r25, r15
    1bcc:	67 d1       	rcall	.+718    	; 0x1e9c <_ZN3SPI11recieveByteEv>
		OCR[3] = spi_obj.recieveByte();
    1bce:	8e 2d       	mov	r24, r14
    1bd0:	9f 2d       	mov	r25, r15
    1bd2:	64 d1       	rcall	.+712    	; 0x1e9c <_ZN3SPI11recieveByteEv>
	
		unsigned char isvalid = OCR[0] & 0b1000000; // getting the validate pin first needs to be high for HC pin to be valid;
		unsigned char isHC = OCR[0] & 0b01000000; // getting HC pin value.
		if(isHC && isvalid) 
    1bd4:	16 ff       	sbrs	r17, 6
    1bd6:	13 c0       	rjmp	.+38     	; 0x1bfe <_ZN6sdCard4initEv+0x288>
		{
			spi_obj.setFreq(4000);
    1bd8:	60 ea       	ldi	r22, 0xA0	; 160
    1bda:	7f e0       	ldi	r23, 0x0F	; 15
    1bdc:	8e 2d       	mov	r24, r14
    1bde:	9f 2d       	mov	r25, r15
    1be0:	2c d1       	rcall	.+600    	; 0x1e3a <_ZN3SPI7setFreqEi>
			return true;
    1be2:	81 e0       	ldi	r24, 0x01	; 1
    1be4:	0d c0       	rjmp	.+26     	; 0x1c00 <_ZN6sdCard4initEv+0x28a>
		spi_obj.writeByte(0x87); // CRC
		//0x48 00 00 01 AA 87
	}
	else
	{
		return false;
    1be6:	80 e0       	ldi	r24, 0x00	; 0
    1be8:	0b c0       	rjmp	.+22     	; 0x1c00 <_ZN6sdCard4initEv+0x28a>
			return false;
		}	
	} 
	else 
	{
		return false;
    1bea:	80 e0       	ldi	r24, 0x00	; 0
    1bec:	09 c0       	rjmp	.+18     	; 0x1c00 <_ZN6sdCard4initEv+0x28a>
    1bee:	80 e0       	ldi	r24, 0x00	; 0
    1bf0:	07 c0       	rjmp	.+14     	; 0x1c00 <_ZN6sdCard4initEv+0x28a>
    1bf2:	80 e0       	ldi	r24, 0x00	; 0
    1bf4:	05 c0       	rjmp	.+10     	; 0x1c00 <_ZN6sdCard4initEv+0x28a>
    1bf6:	80 e0       	ldi	r24, 0x00	; 0
    1bf8:	03 c0       	rjmp	.+6      	; 0x1c00 <_ZN6sdCard4initEv+0x28a>
    1bfa:	80 e0       	ldi	r24, 0x00	; 0
    1bfc:	01 c0       	rjmp	.+2      	; 0x1c00 <_ZN6sdCard4initEv+0x28a>
		{
			spi_obj.setFreq(4000);
			return true;
		}
		else {
			return false;
    1bfe:	80 e0       	ldi	r24, 0x00	; 0
	{
		return false;
	}		
			
	
}
    1c00:	0f 90       	pop	r0
    1c02:	0f 90       	pop	r0
    1c04:	0f 90       	pop	r0
    1c06:	0f 90       	pop	r0
    1c08:	0f 90       	pop	r0
    1c0a:	df 91       	pop	r29
    1c0c:	cf 91       	pop	r28
    1c0e:	1f 91       	pop	r17
    1c10:	0f 91       	pop	r16
    1c12:	ff 90       	pop	r15
    1c14:	ef 90       	pop	r14
    1c16:	df 90       	pop	r13
    1c18:	cf 90       	pop	r12
    1c1a:	bf 90       	pop	r11
    1c1c:	af 90       	pop	r10
    1c1e:	08 95       	ret

00001c20 <_ZN6sdCard9readBlockEmPh>:

bool sdCard::readBlock( unsigned long adress, unsigned char outputdata[] )
{
    1c20:	af 92       	push	r10
    1c22:	bf 92       	push	r11
    1c24:	cf 92       	push	r12
    1c26:	df 92       	push	r13
    1c28:	ef 92       	push	r14
    1c2a:	ff 92       	push	r15
    1c2c:	0f 93       	push	r16
    1c2e:	1f 93       	push	r17
    1c30:	cf 93       	push	r28
    1c32:	df 93       	push	r29
    1c34:	00 d0       	rcall	.+0      	; 0x1c36 <_ZN6sdCard9readBlockEmPh+0x16>
    1c36:	1f 92       	push	r1
    1c38:	cd b7       	in	r28, 0x3d	; 61
    1c3a:	de b7       	in	r29, 0x3e	; 62
    1c3c:	a8 2e       	mov	r10, r24
    1c3e:	b9 2e       	mov	r11, r25
    1c40:	49 83       	std	Y+1, r20	; 0x01
    1c42:	5a 83       	std	Y+2, r21	; 0x02
    1c44:	6b 83       	std	Y+3, r22	; 0x03
    1c46:	7c 83       	std	Y+4, r23	; 0x04
    1c48:	69 01       	movw	r12, r18
	unsigned char *argument_byte_pointer = (unsigned char*)&adress;
	spi_obj.writeByte(0xFF); // clock sync
    1c4a:	f8 2e       	mov	r15, r24
    1c4c:	e9 2e       	mov	r14, r25
    1c4e:	6f ef       	ldi	r22, 0xFF	; 255
    1c50:	1f d1       	rcall	.+574    	; 0x1e90 <_ZN3SPI9writeByteEh>
	spi_obj.writeByte(0x51);
    1c52:	61 e5       	ldi	r22, 0x51	; 81
    1c54:	8a 2d       	mov	r24, r10
    1c56:	9b 2d       	mov	r25, r11
    1c58:	1b d1       	rcall	.+566    	; 0x1e90 <_ZN3SPI9writeByteEh>
	spi_obj.writeByte(argument_byte_pointer[3]);
    1c5a:	6c 81       	ldd	r22, Y+4	; 0x04
    1c5c:	8a 2d       	mov	r24, r10
    1c5e:	9b 2d       	mov	r25, r11
    1c60:	17 d1       	rcall	.+558    	; 0x1e90 <_ZN3SPI9writeByteEh>
	spi_obj.writeByte(argument_byte_pointer[2]);
    1c62:	6b 81       	ldd	r22, Y+3	; 0x03
    1c64:	8a 2d       	mov	r24, r10
    1c66:	9b 2d       	mov	r25, r11
    1c68:	13 d1       	rcall	.+550    	; 0x1e90 <_ZN3SPI9writeByteEh>
	spi_obj.writeByte(argument_byte_pointer[1]);
    1c6a:	6a 81       	ldd	r22, Y+2	; 0x02
    1c6c:	8a 2d       	mov	r24, r10
    1c6e:	9b 2d       	mov	r25, r11
    1c70:	0f d1       	rcall	.+542    	; 0x1e90 <_ZN3SPI9writeByteEh>
	spi_obj.writeByte(argument_byte_pointer[0]);
    1c72:	69 81       	ldd	r22, Y+1	; 0x01
    1c74:	8a 2d       	mov	r24, r10
    1c76:	9b 2d       	mov	r25, r11
    1c78:	0b d1       	rcall	.+534    	; 0x1e90 <_ZN3SPI9writeByteEh>
	spi_obj.writeByte(0xFF); // dummy CRC;
    1c7a:	6f ef       	ldi	r22, 0xFF	; 255
    1c7c:	8a 2d       	mov	r24, r10
    1c7e:	9b 2d       	mov	r25, r11
    1c80:	07 d1       	rcall	.+526    	; 0x1e90 <_ZN3SPI9writeByteEh>
	
	spi_obj.recieveByte(); // getting empty response out of the way.
    1c82:	8a 2d       	mov	r24, r10
    1c84:	9b 2d       	mov	r25, r11
    1c86:	0a d1       	rcall	.+532    	; 0x1e9c <_ZN3SPI11recieveByteEv>
	unsigned char result;
	result = spi_obj.recieveByte();
    1c88:	8a 2d       	mov	r24, r10
    1c8a:	9b 2d       	mov	r25, r11
    1c8c:	07 d1       	rcall	.+526    	; 0x1e9c <_ZN3SPI11recieveByteEv>
	if(result != 0x00){
    1c8e:	81 11       	cpse	r24, r1
    1c90:	1b c0       	rjmp	.+54     	; 0x1cc8 <_ZN6sdCard9readBlockEmPh+0xa8>
		return false;
	}
	
	do 
	{
		result = spi_obj.recieveByte();
    1c92:	8f 2d       	mov	r24, r15
    1c94:	9e 2d       	mov	r25, r14
    1c96:	02 d1       	rcall	.+516    	; 0x1e9c <_ZN3SPI11recieveByteEv>
	result = spi_obj.recieveByte();
	if(result != 0x00){
		return false;
	}
	
	do 
    1c98:	8f 3f       	cpi	r24, 0xFF	; 255
    1c9a:	d9 f3       	breq	.-10     	; 0x1c92 <_ZN6sdCard9readBlockEmPh+0x72>
	{
		result = spi_obj.recieveByte();
	} while (result == 0xFF);
	
	if(result != 0xFE){
    1c9c:	8e 3f       	cpi	r24, 0xFE	; 254
    1c9e:	b1 f4       	brne	.+44     	; 0x1ccc <_ZN6sdCard9readBlockEmPh+0xac>
    1ca0:	86 01       	movw	r16, r12
    1ca2:	8e ef       	ldi	r24, 0xFE	; 254
    1ca4:	d8 1a       	sub	r13, r24
		return false;
	}
	
	for( int i = 0; i < 512; i++ ){ // filling up the supplied array with the data content of the requested block.
		outputdata[i] = spi_obj.recieveByte();
    1ca6:	8f 2d       	mov	r24, r15
    1ca8:	9e 2d       	mov	r25, r14
    1caa:	f8 d0       	rcall	.+496    	; 0x1e9c <_ZN3SPI11recieveByteEv>
    1cac:	f8 01       	movw	r30, r16
    1cae:	81 93       	st	Z+, r24
    1cb0:	8f 01       	movw	r16, r30
	
	if(result != 0xFE){
		return false;
	}
	
	for( int i = 0; i < 512; i++ ){ // filling up the supplied array with the data content of the requested block.
    1cb2:	ec 15       	cp	r30, r12
    1cb4:	fd 05       	cpc	r31, r13
    1cb6:	b9 f7       	brne	.-18     	; 0x1ca6 <_ZN6sdCard9readBlockEmPh+0x86>
		outputdata[i] = spi_obj.recieveByte();
	}
	spi_obj.recieveByte();
    1cb8:	8a 2d       	mov	r24, r10
    1cba:	9b 2d       	mov	r25, r11
    1cbc:	ef d0       	rcall	.+478    	; 0x1e9c <_ZN3SPI11recieveByteEv>
	spi_obj.recieveByte();	
    1cbe:	8a 2d       	mov	r24, r10
    1cc0:	9b 2d       	mov	r25, r11
    1cc2:	ec d0       	rcall	.+472    	; 0x1e9c <_ZN3SPI11recieveByteEv>
	return true;
    1cc4:	81 e0       	ldi	r24, 0x01	; 1
    1cc6:	03 c0       	rjmp	.+6      	; 0x1cce <_ZN6sdCard9readBlockEmPh+0xae>
	
	spi_obj.recieveByte(); // getting empty response out of the way.
	unsigned char result;
	result = spi_obj.recieveByte();
	if(result != 0x00){
		return false;
    1cc8:	80 e0       	ldi	r24, 0x00	; 0
    1cca:	01 c0       	rjmp	.+2      	; 0x1cce <_ZN6sdCard9readBlockEmPh+0xae>
	{
		result = spi_obj.recieveByte();
	} while (result == 0xFF);
	
	if(result != 0xFE){
		return false;
    1ccc:	80 e0       	ldi	r24, 0x00	; 0
		outputdata[i] = spi_obj.recieveByte();
	}
	spi_obj.recieveByte();
	spi_obj.recieveByte();	
	return true;
}
    1cce:	0f 90       	pop	r0
    1cd0:	0f 90       	pop	r0
    1cd2:	0f 90       	pop	r0
    1cd4:	0f 90       	pop	r0
    1cd6:	df 91       	pop	r29
    1cd8:	cf 91       	pop	r28
    1cda:	1f 91       	pop	r17
    1cdc:	0f 91       	pop	r16
    1cde:	ff 90       	pop	r15
    1ce0:	ef 90       	pop	r14
    1ce2:	df 90       	pop	r13
    1ce4:	cf 90       	pop	r12
    1ce6:	bf 90       	pop	r11
    1ce8:	af 90       	pop	r10
    1cea:	08 95       	ret

00001cec <_ZN6sdCard10writeBlockEmPKh>:

bool sdCard::writeBlock( unsigned long adress, const unsigned char data[] )
{
    1cec:	af 92       	push	r10
    1cee:	bf 92       	push	r11
    1cf0:	cf 92       	push	r12
    1cf2:	df 92       	push	r13
    1cf4:	ef 92       	push	r14
    1cf6:	ff 92       	push	r15
    1cf8:	0f 93       	push	r16
    1cfa:	1f 93       	push	r17
    1cfc:	cf 93       	push	r28
    1cfe:	df 93       	push	r29
    1d00:	00 d0       	rcall	.+0      	; 0x1d02 <_ZN6sdCard10writeBlockEmPKh+0x16>
    1d02:	1f 92       	push	r1
    1d04:	cd b7       	in	r28, 0x3d	; 61
    1d06:	de b7       	in	r29, 0x3e	; 62
    1d08:	a8 2e       	mov	r10, r24
    1d0a:	b9 2e       	mov	r11, r25
    1d0c:	49 83       	std	Y+1, r20	; 0x01
    1d0e:	5a 83       	std	Y+2, r21	; 0x02
    1d10:	6b 83       	std	Y+3, r22	; 0x03
    1d12:	7c 83       	std	Y+4, r23	; 0x04
    1d14:	69 01       	movw	r12, r18
		unsigned char *argument_byte_pointer = (unsigned char*)&adress;

		//sendchar(dataout[7]);
		spi_obj.writeByte(0xff); // dummy byte
    1d16:	f8 2e       	mov	r15, r24
    1d18:	e9 2e       	mov	r14, r25
    1d1a:	6f ef       	ldi	r22, 0xFF	; 255
    1d1c:	b9 d0       	rcall	.+370    	; 0x1e90 <_ZN3SPI9writeByteEh>
		spi_obj.writeByte(0x58); // write cmd
    1d1e:	68 e5       	ldi	r22, 0x58	; 88
    1d20:	8a 2d       	mov	r24, r10
    1d22:	9b 2d       	mov	r25, r11
    1d24:	b5 d0       	rcall	.+362    	; 0x1e90 <_ZN3SPI9writeByteEh>
		spi_obj.writeByte(argument_byte_pointer[3]); // adress bytes 
    1d26:	6c 81       	ldd	r22, Y+4	; 0x04
    1d28:	8a 2d       	mov	r24, r10
    1d2a:	9b 2d       	mov	r25, r11
    1d2c:	b1 d0       	rcall	.+354    	; 0x1e90 <_ZN3SPI9writeByteEh>
		spi_obj.writeByte(argument_byte_pointer[2]); // adress bytes 
    1d2e:	6b 81       	ldd	r22, Y+3	; 0x03
    1d30:	8a 2d       	mov	r24, r10
    1d32:	9b 2d       	mov	r25, r11
    1d34:	ad d0       	rcall	.+346    	; 0x1e90 <_ZN3SPI9writeByteEh>
		spi_obj.writeByte(argument_byte_pointer[1]); // adress bytes 
    1d36:	6a 81       	ldd	r22, Y+2	; 0x02
    1d38:	8a 2d       	mov	r24, r10
    1d3a:	9b 2d       	mov	r25, r11
    1d3c:	a9 d0       	rcall	.+338    	; 0x1e90 <_ZN3SPI9writeByteEh>
		spi_obj.writeByte(argument_byte_pointer[0]); // adress bytes 
    1d3e:	69 81       	ldd	r22, Y+1	; 0x01
    1d40:	8a 2d       	mov	r24, r10
    1d42:	9b 2d       	mov	r25, r11
    1d44:	a5 d0       	rcall	.+330    	; 0x1e90 <_ZN3SPI9writeByteEh>
		spi_obj.writeByte(0xff); // CRC
    1d46:	6f ef       	ldi	r22, 0xFF	; 255
    1d48:	8a 2d       	mov	r24, r10
    1d4a:	9b 2d       	mov	r25, r11
    1d4c:	a1 d0       	rcall	.+322    	; 0x1e90 <_ZN3SPI9writeByteEh>
		spi_obj.recieveByte(); // grab that idle byte returned
    1d4e:	8a 2d       	mov	r24, r10
    1d50:	9b 2d       	mov	r25, r11
    1d52:	a4 d0       	rcall	.+328    	; 0x1e9c <_ZN3SPI11recieveByteEv>
		unsigned char val = spi_obj.recieveByte(); // grab return value (R1)
    1d54:	8a 2d       	mov	r24, r10
    1d56:	9b 2d       	mov	r25, r11
    1d58:	a1 d0       	rcall	.+322    	; 0x1e9c <_ZN3SPI11recieveByteEv>
		if(val != 0x00){ // fejl hvis ikke busy. 
    1d5a:	81 11       	cpse	r24, r1
    1d5c:	5a c0       	rjmp	.+180    	; 0x1e12 <_ZN6sdCard10writeBlockEmPKh+0x126>
			return false;
		}
		
		spi_obj.writeByte(0xff); // dummy byte
    1d5e:	6f ef       	ldi	r22, 0xFF	; 255
    1d60:	8a 2d       	mov	r24, r10
    1d62:	9b 2d       	mov	r25, r11
    1d64:	95 d0       	rcall	.+298    	; 0x1e90 <_ZN3SPI9writeByteEh>
		spi_obj.writeByte(0xfe); // data start byte
    1d66:	6e ef       	ldi	r22, 0xFE	; 254
    1d68:	8a 2d       	mov	r24, r10
    1d6a:	9b 2d       	mov	r25, r11
    1d6c:	91 d0       	rcall	.+290    	; 0x1e90 <_ZN3SPI9writeByteEh>
    1d6e:	86 01       	movw	r16, r12
    1d70:	8e ef       	ldi	r24, 0xFE	; 254
    1d72:	d8 1a       	sub	r13, r24
		for(int z = 0; z < 512; z++){
			spi_obj.writeByte(data[z]); // send the content of the data array to be stored
    1d74:	f8 01       	movw	r30, r16
    1d76:	61 91       	ld	r22, Z+
    1d78:	8f 01       	movw	r16, r30
    1d7a:	8f 2d       	mov	r24, r15
    1d7c:	9e 2d       	mov	r25, r14
    1d7e:	88 d0       	rcall	.+272    	; 0x1e90 <_ZN3SPI9writeByteEh>
			return false;
		}
		
		spi_obj.writeByte(0xff); // dummy byte
		spi_obj.writeByte(0xfe); // data start byte
		for(int z = 0; z < 512; z++){
    1d80:	0c 15       	cp	r16, r12
    1d82:	1d 05       	cpc	r17, r13
    1d84:	b9 f7       	brne	.-18     	; 0x1d74 <_ZN6sdCard10writeBlockEmPKh+0x88>
			spi_obj.writeByte(data[z]); // send the content of the data array to be stored
		}
		spi_obj.writeByte(0xff); // dummy checksum 16 bit
    1d86:	6f ef       	ldi	r22, 0xFF	; 255
    1d88:	8a 2d       	mov	r24, r10
    1d8a:	9b 2d       	mov	r25, r11
    1d8c:	81 d0       	rcall	.+258    	; 0x1e90 <_ZN3SPI9writeByteEh>
		spi_obj.writeByte(0xff); // dummy checksom 16 bit;
    1d8e:	6f ef       	ldi	r22, 0xFF	; 255
    1d90:	8a 2d       	mov	r24, r10
    1d92:	9b 2d       	mov	r25, r11
    1d94:	7d d0       	rcall	.+250    	; 0x1e90 <_ZN3SPI9writeByteEh>
		unsigned char result; 
		do
		{
			result = spi_obj.recieveByte(); // grab result byte untill card is not busy
    1d96:	8f 2d       	mov	r24, r15
    1d98:	9e 2d       	mov	r25, r14
    1d9a:	80 d0       	rcall	.+256    	; 0x1e9c <_ZN3SPI11recieveByteEv>
			spi_obj.writeByte(data[z]); // send the content of the data array to be stored
		}
		spi_obj.writeByte(0xff); // dummy checksum 16 bit
		spi_obj.writeByte(0xff); // dummy checksom 16 bit;
		unsigned char result; 
		do
    1d9c:	88 23       	and	r24, r24
    1d9e:	d9 f3       	breq	.-10     	; 0x1d96 <_ZN6sdCard10writeBlockEmPKh+0xaa>
		{
			result = spi_obj.recieveByte(); // grab result byte untill card is not busy
		} while (result == 0x00);
		if(result != 0xE5){ // if data not accepted return false.
    1da0:	85 3e       	cpi	r24, 0xE5	; 229
    1da2:	09 f0       	breq	.+2      	; 0x1da6 <_ZN6sdCard10writeBlockEmPKh+0xba>
    1da4:	38 c0       	rjmp	.+112    	; 0x1e16 <_ZN6sdCard10writeBlockEmPKh+0x12a>
			return false;
		}
		
		spi_obj.recieveByte();
    1da6:	8a 2d       	mov	r24, r10
    1da8:	9b 2d       	mov	r25, r11
    1daa:	78 d0       	rcall	.+240    	; 0x1e9c <_ZN3SPI11recieveByteEv>
		do
		{
			result = spi_obj.recieveByte(); // looping untill card is done writing data
    1dac:	8f 2d       	mov	r24, r15
    1dae:	9e 2d       	mov	r25, r14
    1db0:	75 d0       	rcall	.+234    	; 0x1e9c <_ZN3SPI11recieveByteEv>
		if(result != 0xE5){ // if data not accepted return false.
			return false;
		}
		
		spi_obj.recieveByte();
		do
    1db2:	8f 3f       	cpi	r24, 0xFF	; 255
    1db4:	d9 f7       	brne	.-10     	; 0x1dac <_ZN6sdCard10writeBlockEmPKh+0xc0>
		{
			result = spi_obj.recieveByte(); // looping untill card is done writing data
		} while (result != 0xff);
		
		spi_obj.writeByte(0xff); // dummy byte
    1db6:	6f ef       	ldi	r22, 0xFF	; 255
    1db8:	8a 2d       	mov	r24, r10
    1dba:	9b 2d       	mov	r25, r11
    1dbc:	69 d0       	rcall	.+210    	; 0x1e90 <_ZN3SPI9writeByteEh>
		spi_obj.writeByte(0x4d); // cmd for requesting card status to make sure the write completed correctly.
    1dbe:	6d e4       	ldi	r22, 0x4D	; 77
    1dc0:	8a 2d       	mov	r24, r10
    1dc2:	9b 2d       	mov	r25, r11
    1dc4:	65 d0       	rcall	.+202    	; 0x1e90 <_ZN3SPI9writeByteEh>
		spi_obj.writeByte(0x00);
    1dc6:	60 e0       	ldi	r22, 0x00	; 0
    1dc8:	8a 2d       	mov	r24, r10
    1dca:	9b 2d       	mov	r25, r11
    1dcc:	61 d0       	rcall	.+194    	; 0x1e90 <_ZN3SPI9writeByteEh>
		spi_obj.writeByte(0x00);
    1dce:	60 e0       	ldi	r22, 0x00	; 0
    1dd0:	8a 2d       	mov	r24, r10
    1dd2:	9b 2d       	mov	r25, r11
    1dd4:	5d d0       	rcall	.+186    	; 0x1e90 <_ZN3SPI9writeByteEh>
		spi_obj.writeByte(0x00);
    1dd6:	60 e0       	ldi	r22, 0x00	; 0
    1dd8:	8a 2d       	mov	r24, r10
    1dda:	9b 2d       	mov	r25, r11
    1ddc:	59 d0       	rcall	.+178    	; 0x1e90 <_ZN3SPI9writeByteEh>
		spi_obj.writeByte(0x00);
    1dde:	60 e0       	ldi	r22, 0x00	; 0
    1de0:	8a 2d       	mov	r24, r10
    1de2:	9b 2d       	mov	r25, r11
    1de4:	55 d0       	rcall	.+170    	; 0x1e90 <_ZN3SPI9writeByteEh>
		spi_obj.writeByte(0xff);  // CRC
    1de6:	6f ef       	ldi	r22, 0xFF	; 255
    1de8:	8a 2d       	mov	r24, r10
    1dea:	9b 2d       	mov	r25, r11
    1dec:	51 d0       	rcall	.+162    	; 0x1e90 <_ZN3SPI9writeByteEh>
		
		spi_obj.recieveByte(); // get the dummy FF byte out of the way
    1dee:	8a 2d       	mov	r24, r10
    1df0:	9b 2d       	mov	r25, r11
    1df2:	54 d0       	rcall	.+168    	; 0x1e9c <_ZN3SPI11recieveByteEv>
		unsigned char r2[2]; // array for storing the R2 reply
		r2[0] = spi_obj.recieveByte(); // grab two bytes and store them in array
    1df4:	8a 2d       	mov	r24, r10
    1df6:	9b 2d       	mov	r25, r11
    1df8:	51 d0       	rcall	.+162    	; 0x1e9c <_ZN3SPI11recieveByteEv>
    1dfa:	18 2f       	mov	r17, r24
		r2[1] = spi_obj.recieveByte(); 
    1dfc:	8a 2d       	mov	r24, r10
    1dfe:	9b 2d       	mov	r25, r11
    1e00:	4d d0       	rcall	.+154    	; 0x1e9c <_ZN3SPI11recieveByteEv>
    1e02:	98 2f       	mov	r25, r24
		
		if(r2[0] != 0x00){
    1e04:	11 11       	cpse	r17, r1
    1e06:	09 c0       	rjmp	.+18     	; 0x1e1a <_ZN6sdCard10writeBlockEmPKh+0x12e>
			return false;
		} 
		else if(r2[1] != 0x00){
    1e08:	81 e0       	ldi	r24, 0x01	; 1
    1e0a:	99 23       	and	r25, r25
    1e0c:	39 f0       	breq	.+14     	; 0x1e1c <_ZN6sdCard10writeBlockEmPKh+0x130>
    1e0e:	80 e0       	ldi	r24, 0x00	; 0
    1e10:	05 c0       	rjmp	.+10     	; 0x1e1c <_ZN6sdCard10writeBlockEmPKh+0x130>
		spi_obj.writeByte(argument_byte_pointer[0]); // adress bytes 
		spi_obj.writeByte(0xff); // CRC
		spi_obj.recieveByte(); // grab that idle byte returned
		unsigned char val = spi_obj.recieveByte(); // grab return value (R1)
		if(val != 0x00){ // fejl hvis ikke busy. 
			return false;
    1e12:	80 e0       	ldi	r24, 0x00	; 0
    1e14:	03 c0       	rjmp	.+6      	; 0x1e1c <_ZN6sdCard10writeBlockEmPKh+0x130>
		do
		{
			result = spi_obj.recieveByte(); // grab result byte untill card is not busy
		} while (result == 0x00);
		if(result != 0xE5){ // if data not accepted return false.
			return false;
    1e16:	80 e0       	ldi	r24, 0x00	; 0
    1e18:	01 c0       	rjmp	.+2      	; 0x1e1c <_ZN6sdCard10writeBlockEmPKh+0x130>
		unsigned char r2[2]; // array for storing the R2 reply
		r2[0] = spi_obj.recieveByte(); // grab two bytes and store them in array
		r2[1] = spi_obj.recieveByte(); 
		
		if(r2[0] != 0x00){
			return false;
    1e1a:	80 e0       	ldi	r24, 0x00	; 0
			return true;
		}
		//sendchar(r2[0]);
		//sendchar(r2[1]);
		
}
    1e1c:	0f 90       	pop	r0
    1e1e:	0f 90       	pop	r0
    1e20:	0f 90       	pop	r0
    1e22:	0f 90       	pop	r0
    1e24:	df 91       	pop	r29
    1e26:	cf 91       	pop	r28
    1e28:	1f 91       	pop	r17
    1e2a:	0f 91       	pop	r16
    1e2c:	ff 90       	pop	r15
    1e2e:	ef 90       	pop	r14
    1e30:	df 90       	pop	r13
    1e32:	cf 90       	pop	r12
    1e34:	bf 90       	pop	r11
    1e36:	af 90       	pop	r10
    1e38:	08 95       	ret

00001e3a <_ZN3SPI7setFreqEi>:
// as a parameter, 4000, 1000, 250, 125 are available options,
// defaults to 4000 if invalid parameter.
//=============================================================
void SPI::setFreq( int freq ) // sets prescaler based on requested freq in kHz, calculations assume a 16MHz clock speed.
{
	switch(freq)
    1e3a:	6a 3f       	cpi	r22, 0xFA	; 250
    1e3c:	71 05       	cpc	r23, r1
    1e3e:	a9 f0       	breq	.+42     	; 0x1e6a <_ZN3SPI7setFreqEi+0x30>
    1e40:	24 f4       	brge	.+8      	; 0x1e4a <_ZN3SPI7setFreqEi+0x10>
    1e42:	6d 37       	cpi	r22, 0x7D	; 125
    1e44:	71 05       	cpc	r23, r1
    1e46:	b1 f0       	breq	.+44     	; 0x1e74 <_ZN3SPI7setFreqEi+0x3a>
    1e48:	19 c0       	rjmp	.+50     	; 0x1e7c <_ZN3SPI7setFreqEi+0x42>
    1e4a:	68 3e       	cpi	r22, 0xE8	; 232
    1e4c:	83 e0       	ldi	r24, 0x03	; 3
    1e4e:	78 07       	cpc	r23, r24
    1e50:	39 f0       	breq	.+14     	; 0x1e60 <_ZN3SPI7setFreqEi+0x26>
    1e52:	60 3a       	cpi	r22, 0xA0	; 160
    1e54:	7f 40       	sbci	r23, 0x0F	; 15
    1e56:	91 f4       	brne	.+36     	; 0x1e7c <_ZN3SPI7setFreqEi+0x42>
	{
	case 4000:
		SPCR = SPCR & 0b11111100; // prescaler = 4
    1e58:	8c b5       	in	r24, 0x2c	; 44
    1e5a:	8c 7f       	andi	r24, 0xFC	; 252
    1e5c:	8c bd       	out	0x2c, r24	; 44
		break;
    1e5e:	08 95       	ret
	case 1000:
		SPCR = (SPCR & 0b11111100) | 0b00000001; // prescaler = 16
    1e60:	8c b5       	in	r24, 0x2c	; 44
    1e62:	8c 7f       	andi	r24, 0xFC	; 252
    1e64:	81 60       	ori	r24, 0x01	; 1
    1e66:	8c bd       	out	0x2c, r24	; 44
		break;
    1e68:	08 95       	ret
	case 250:
		SPCR = (SPCR & 0b11111100) | 0b00000010; // prescaler = 64
    1e6a:	8c b5       	in	r24, 0x2c	; 44
    1e6c:	8c 7f       	andi	r24, 0xFC	; 252
    1e6e:	82 60       	ori	r24, 0x02	; 2
    1e70:	8c bd       	out	0x2c, r24	; 44
		break;
    1e72:	08 95       	ret
	case 125:
		SPCR = SPCR | 0b00000011; // prescaler = 128
    1e74:	8c b5       	in	r24, 0x2c	; 44
    1e76:	83 60       	ori	r24, 0x03	; 3
    1e78:	8c bd       	out	0x2c, r24	; 44
		break;
    1e7a:	08 95       	ret
	default:
		SPCR = SPCR & 0b11111100; // defaults to 4000 kHz
    1e7c:	8c b5       	in	r24, 0x2c	; 44
    1e7e:	8c 7f       	andi	r24, 0xFC	; 252
    1e80:	8c bd       	out	0x2c, r24	; 44
    1e82:	08 95       	ret

00001e84 <_ZN3SPIC1Ei>:
// to freq.
//=============================================================
 SPI::SPI( int freq )
{
	// only using master mode in the project so slave mode is not part of this SPI driver.
	DDRB = 0b00000111; // sets MOSI as output and SCK as output rest as input on port B.
    1e84:	27 e0       	ldi	r18, 0x07	; 7
    1e86:	24 b9       	out	0x04, r18	; 4
	SPCR = 0b01010000; // enable SPI and set mode to master
    1e88:	20 e5       	ldi	r18, 0x50	; 80
    1e8a:	2c bd       	out	0x2c, r18	; 44
	setFreq(freq);
    1e8c:	d6 cf       	rjmp	.-84     	; 0x1e3a <_ZN3SPI7setFreqEi>
    1e8e:	08 95       	ret

00001e90 <_ZN3SPI9writeByteEh>:
// DESCR. : sends 1 byte of data out on MOSI,
// returns the response recieved from the reciever
//=============================================================
unsigned char SPI::writeByte( unsigned char data )
{
	SPDR = data; // starting the transmission
    1e90:	6e bd       	out	0x2e, r22	; 46
	while(!(SPSR &(1<<SPIF)));
    1e92:	0d b4       	in	r0, 0x2d	; 45
    1e94:	07 fe       	sbrs	r0, 7
    1e96:	fd cf       	rjmp	.-6      	; 0x1e92 <_ZN3SPI9writeByteEh+0x2>
	return SPDR;	
    1e98:	8e b5       	in	r24, 0x2e	; 46
}
    1e9a:	08 95       	ret

00001e9c <_ZN3SPI11recieveByteEv>:
// DESCR. : Recieves 1 byte of data, has to send out dummy data to MOSI to recieve.
// returns the response recieved from the reciever
//=============================================================
unsigned char SPI::recieveByte()
{
	SPDR = 0xFF; // sends don't care byte to transmit clocks.
    1e9c:	8f ef       	ldi	r24, 0xFF	; 255
    1e9e:	8e bd       	out	0x2e, r24	; 46
	while(!(SPSR &(1<<SPIF)));
    1ea0:	0d b4       	in	r0, 0x2d	; 45
    1ea2:	07 fe       	sbrs	r0, 7
    1ea4:	fd cf       	rjmp	.-6      	; 0x1ea0 <_ZN3SPI11recieveByteEv+0x4>
	return SPDR; // read data and return it.
    1ea6:	8e b5       	in	r24, 0x2e	; 46
}
    1ea8:	08 95       	ret

00001eaa <_ZN3X10C1Ehh>:
//=============================================================
// METHOD :
// DESCR. :
//=============================================================
void X10::switchLight(bool newState)
{
    1eaa:	1f 93       	push	r17
    1eac:	cf 93       	push	r28
    1eae:	df 93       	push	r29
    1eb0:	ec 01       	movw	r28, r24
    1eb2:	16 2f       	mov	r17, r22
    1eb4:	02 96       	adiw	r24, 0x02	; 2
    1eb6:	c9 d0       	rcall	.+402    	; 0x204a <_ZN12X10_modtagerC1Ehh>
    1eb8:	ce 01       	movw	r24, r28
    1eba:	42 96       	adiw	r24, 0x12	; 18
    1ebc:	45 d2       	rcall	.+1162   	; 0x2348 <_ZN10X10_senderC1Ev>
    1ebe:	18 83       	st	Y, r17
    1ec0:	19 82       	std	Y+1, r1	; 0x01
    1ec2:	8e ee       	ldi	r24, 0xEE	; 238
    1ec4:	95 e8       	ldi	r25, 0x85	; 133
    1ec6:	90 93 a5 00 	sts	0x00A5, r25
    1eca:	80 93 a4 00 	sts	0x00A4, r24
    1ece:	df 91       	pop	r29
    1ed0:	cf 91       	pop	r28
    1ed2:	1f 91       	pop	r17
    1ed4:	08 95       	ret

00001ed6 <_ZN3X1013getUnitStatusEhRb>:
    1ed6:	af 92       	push	r10
    1ed8:	bf 92       	push	r11
    1eda:	df 92       	push	r13
    1edc:	ef 92       	push	r14
    1ede:	ff 92       	push	r15
    1ee0:	0f 93       	push	r16
    1ee2:	1f 93       	push	r17
    1ee4:	cf 93       	push	r28
    1ee6:	df 93       	push	r29
    1ee8:	00 d0       	rcall	.+0      	; 0x1eea <_ZN3X1013getUnitStatusEhRb+0x14>
    1eea:	cd b7       	in	r28, 0x3d	; 61
    1eec:	de b7       	in	r29, 0x3e	; 62
    1eee:	7c 01       	movw	r14, r24
    1ef0:	5a 01       	movw	r10, r20
    1ef2:	00 e0       	ldi	r16, 0x00	; 0
    1ef4:	20 e0       	ldi	r18, 0x00	; 0
    1ef6:	46 2f       	mov	r20, r22
    1ef8:	fc 01       	movw	r30, r24
    1efa:	60 81       	ld	r22, Z
    1efc:	42 96       	adiw	r24, 0x12	; 18
    1efe:	b8 d2       	rcall	.+1392   	; 0x2470 <_ZN10X10_sender11sendCommandEhhhh>
    1f00:	e1 ea       	ldi	r30, 0xA1	; 161
    1f02:	f0 e0       	ldi	r31, 0x00	; 0
    1f04:	80 81       	ld	r24, Z
    1f06:	85 60       	ori	r24, 0x05	; 5
    1f08:	80 83       	st	Z, r24
    1f0a:	87 01       	movw	r16, r14
    1f0c:	0e 5f       	subi	r16, 0xFE	; 254
    1f0e:	1f 4f       	sbci	r17, 0xFF	; 255
    1f10:	10 c0       	rjmp	.+32     	; 0x1f32 <_ZN3X1013getUnitStatusEhRb+0x5c>
    1f12:	c8 9b       	sbis	0x19, 0	; 25
    1f14:	0e c0       	rjmp	.+28     	; 0x1f32 <_ZN3X1013getUnitStatusEhRb+0x5c>
    1f16:	c8 9a       	sbi	0x19, 0	; 25
    1f18:	e1 ea       	ldi	r30, 0xA1	; 161
    1f1a:	f0 e0       	ldi	r31, 0x00	; 0
    1f1c:	80 81       	ld	r24, Z
    1f1e:	8a 7f       	andi	r24, 0xFA	; 250
    1f20:	80 83       	st	Z, r24
    1f22:	8e ee       	ldi	r24, 0xEE	; 238
    1f24:	95 e8       	ldi	r25, 0x85	; 133
    1f26:	90 93 a5 00 	sts	0x00A5, r25
    1f2a:	80 93 a4 00 	sts	0x00A4, r24
    1f2e:	f1 2c       	mov	r15, r1
    1f30:	30 c0       	rjmp	.+96     	; 0x1f92 <_ZN3X1013getUnitStatusEhRb+0xbc>
    1f32:	c8 01       	movw	r24, r16
    1f34:	b5 d1       	rcall	.+874    	; 0x22a0 <_ZN12X10_modtager11isDataReadyEv>
    1f36:	f8 2e       	mov	r15, r24
    1f38:	81 11       	cpse	r24, r1
    1f3a:	eb cf       	rjmp	.-42     	; 0x1f12 <_ZN3X1013getUnitStatusEhRb+0x3c>
    1f3c:	e1 ea       	ldi	r30, 0xA1	; 161
    1f3e:	f0 e0       	ldi	r31, 0x00	; 0
    1f40:	80 81       	ld	r24, Z
    1f42:	8a 7f       	andi	r24, 0xFA	; 250
    1f44:	80 83       	st	Z, r24
    1f46:	8e ee       	ldi	r24, 0xEE	; 238
    1f48:	95 e8       	ldi	r25, 0x85	; 133
    1f4a:	90 93 a5 00 	sts	0x00A5, r25
    1f4e:	80 93 a4 00 	sts	0x00A4, r24
    1f52:	9e 01       	movw	r18, r28
    1f54:	2f 5f       	subi	r18, 0xFF	; 255
    1f56:	3f 4f       	sbci	r19, 0xFF	; 255
    1f58:	ae 01       	movw	r20, r28
    1f5a:	4e 5f       	subi	r20, 0xFE	; 254
    1f5c:	5f 4f       	sbci	r21, 0xFF	; 255
    1f5e:	be 01       	movw	r22, r28
    1f60:	6d 5f       	subi	r22, 0xFD	; 253
    1f62:	7f 4f       	sbci	r23, 0xFF	; 255
    1f64:	80 2f       	mov	r24, r16
    1f66:	91 2f       	mov	r25, r17
    1f68:	78 d1       	rcall	.+752    	; 0x225a <_ZN12X10_modtager9fetchDataERhS0_Rb>
    1f6a:	89 81       	ldd	r24, Y+1	; 0x01
    1f6c:	88 23       	and	r24, r24
    1f6e:	81 f0       	breq	.+32     	; 0x1f90 <_ZN3X1013getUnitStatusEhRb+0xba>
    1f70:	9b 81       	ldd	r25, Y+3	; 0x03
    1f72:	91 30       	cpi	r25, 0x01	; 1
    1f74:	71 f4       	brne	.+28     	; 0x1f92 <_ZN3X1013getUnitStatusEhRb+0xbc>
    1f76:	9a 81       	ldd	r25, Y+2	; 0x02
    1f78:	91 11       	cpse	r25, r1
    1f7a:	04 c0       	rjmp	.+8      	; 0x1f84 <_ZN3X1013getUnitStatusEhRb+0xae>
    1f7c:	f5 01       	movw	r30, r10
    1f7e:	10 82       	st	Z, r1
    1f80:	f8 2e       	mov	r15, r24
    1f82:	07 c0       	rjmp	.+14     	; 0x1f92 <_ZN3X1013getUnitStatusEhRb+0xbc>
    1f84:	91 30       	cpi	r25, 0x01	; 1
    1f86:	29 f4       	brne	.+10     	; 0x1f92 <_ZN3X1013getUnitStatusEhRb+0xbc>
    1f88:	f5 01       	movw	r30, r10
    1f8a:	90 83       	st	Z, r25
    1f8c:	f8 2e       	mov	r15, r24
    1f8e:	01 c0       	rjmp	.+2      	; 0x1f92 <_ZN3X1013getUnitStatusEhRb+0xbc>
    1f90:	f8 2e       	mov	r15, r24
    1f92:	8f 2d       	mov	r24, r15
    1f94:	0f 90       	pop	r0
    1f96:	0f 90       	pop	r0
    1f98:	0f 90       	pop	r0
    1f9a:	df 91       	pop	r29
    1f9c:	cf 91       	pop	r28
    1f9e:	1f 91       	pop	r17
    1fa0:	0f 91       	pop	r16
    1fa2:	ff 90       	pop	r15
    1fa4:	ef 90       	pop	r14
    1fa6:	df 90       	pop	r13
    1fa8:	bf 90       	pop	r11
    1faa:	af 90       	pop	r10
    1fac:	08 95       	ret

00001fae <_ZN3X1022reciveSendHighInteruptEv>:
//=============================================================
// METHOD :
// DESCR. :
//=============================================================
void X10::reciveSendHighInterupt()
{
    1fae:	0f 93       	push	r16
    1fb0:	1f 93       	push	r17
    1fb2:	cf 93       	push	r28
    1fb4:	df 93       	push	r29
    1fb6:	ec 01       	movw	r28, r24
	if(sender_.getSendMode())
    1fb8:	8c 01       	movw	r16, r24
    1fba:	0e 5e       	subi	r16, 0xEE	; 238
    1fbc:	1f 4f       	sbci	r17, 0xFF	; 255
    1fbe:	c8 01       	movw	r24, r16
    1fc0:	32 d2       	rcall	.+1124   	; 0x2426 <_ZN10X10_sender11getSendModeEv>
    1fc2:	88 23       	and	r24, r24
    1fc4:	19 f0       	breq	.+6      	; 0x1fcc <_ZN3X1022reciveSendHighInteruptEv+0x1e>
		sender_.sendHigh();
    1fc6:	c8 01       	movw	r24, r16
    1fc8:	06 d3       	rcall	.+1548   	; 0x25d6 <_ZN10X10_sender8sendHighEv>
    1fca:	03 c0       	rjmp	.+6      	; 0x1fd2 <_ZN3X1022reciveSendHighInteruptEv+0x24>
	else
		modtager_.receiveHigh();
    1fcc:	ce 01       	movw	r24, r28
    1fce:	02 96       	adiw	r24, 0x02	; 2
    1fd0:	7f d1       	rcall	.+766    	; 0x22d0 <_ZN12X10_modtager11receiveHighEv>
}
    1fd2:	df 91       	pop	r29
    1fd4:	cf 91       	pop	r28
    1fd6:	1f 91       	pop	r17
    1fd8:	0f 91       	pop	r16
    1fda:	08 95       	ret

00001fdc <_ZN3X1021reciveSendLowInteruptEv>:
//=============================================================
// METHOD :
// DESCR. :
//=============================================================
void X10::reciveSendLowInterupt()
{
    1fdc:	0f 93       	push	r16
    1fde:	1f 93       	push	r17
    1fe0:	cf 93       	push	r28
    1fe2:	df 93       	push	r29
    1fe4:	ec 01       	movw	r28, r24
	if(sender_.getSendMode())
    1fe6:	8c 01       	movw	r16, r24
    1fe8:	0e 5e       	subi	r16, 0xEE	; 238
    1fea:	1f 4f       	sbci	r17, 0xFF	; 255
    1fec:	c8 01       	movw	r24, r16
    1fee:	1b d2       	rcall	.+1078   	; 0x2426 <_ZN10X10_sender11getSendModeEv>
    1ff0:	88 23       	and	r24, r24
    1ff2:	19 f0       	breq	.+6      	; 0x1ffa <_ZN3X1021reciveSendLowInteruptEv+0x1e>
		sender_.sendLow();
    1ff4:	c8 01       	movw	r24, r16
    1ff6:	2f d3       	rcall	.+1630   	; 0x2656 <_ZN10X10_sender7sendLowEv>
    1ff8:	03 c0       	rjmp	.+6      	; 0x2000 <_ZN3X1021reciveSendLowInteruptEv+0x24>
	else
		modtager_.receiveLow();
    1ffa:	ce 01       	movw	r24, r28
    1ffc:	02 96       	adiw	r24, 0x02	; 2
    1ffe:	84 d1       	rcall	.+776    	; 0x2308 <_ZN12X10_modtager10receiveLowEv>
}
    2000:	df 91       	pop	r29
    2002:	cf 91       	pop	r28
    2004:	1f 91       	pop	r17
    2006:	0f 91       	pop	r16
    2008:	08 95       	ret

0000200a <_ZN3X1015stop120InteruptEv>:
// METHOD :
// DESCR. :
//=============================================================
void X10::stop120Interupt()
{
	sender_.stop120();
    200a:	42 96       	adiw	r24, 0x12	; 18
    200c:	fc c1       	rjmp	.+1016   	; 0x2406 <_ZN10X10_sender7stop120Ev>
    200e:	08 95       	ret

00002010 <_ZN3X1020resetReciverInteruptEv>:
// METHOD :
// DESCR. :
//=============================================================
void X10::resetReciverInterupt()
{
	modtager_.resetReceiver();
    2010:	02 96       	adiw	r24, 0x02	; 2
    2012:	05 d0       	rcall	.+10     	; 0x201e <_ZN12X10_modtager13resetReceiverEv>
	PORTB |= 1;
    2014:	28 9a       	sbi	0x05, 0	; 5
    2016:	08 95       	ret

00002018 <_ZN3X1021inputCompleteInteruptEv>:
// METHOD :
// DESCR. :
//=============================================================
void X10::inputCompleteInterupt()
{
	modtager_.inputComplete();
    2018:	02 96       	adiw	r24, 0x02	; 2
    201a:	4b c1       	rjmp	.+662    	; 0x22b2 <_ZN12X10_modtager13inputCompleteEv>
    201c:	08 95       	ret

0000201e <_ZN12X10_modtager13resetReceiverEv>:
{
	if(data ^ 1)
		return true;
	else
		return false;
}
    201e:	fc 01       	movw	r30, r24
    2020:	11 82       	std	Z+1, r1	; 0x01
    2022:	10 82       	st	Z, r1
    2024:	13 82       	std	Z+3, r1	; 0x03
    2026:	12 82       	std	Z+2, r1	; 0x02
    2028:	14 82       	std	Z+4, r1	; 0x04
    202a:	15 82       	std	Z+5, r1	; 0x05
    202c:	81 e0       	ldi	r24, 0x01	; 1
    202e:	86 83       	std	Z+6, r24	; 0x06
    2030:	13 86       	std	Z+11, r1	; 0x0b
    2032:	17 82       	std	Z+7, r1	; 0x07
    2034:	16 86       	std	Z+14, r1	; 0x0e
    2036:	12 86       	std	Z+10, r1	; 0x0a
    2038:	14 86       	std	Z+12, r1	; 0x0c
    203a:	17 86       	std	Z+15, r1	; 0x0f
    203c:	15 86       	std	Z+13, r1	; 0x0d
    203e:	e1 e9       	ldi	r30, 0x91	; 145
    2040:	f0 e0       	ldi	r31, 0x00	; 0
    2042:	80 81       	ld	r24, Z
    2044:	8d 7f       	andi	r24, 0xFD	; 253
    2046:	80 83       	st	Z, r24
    2048:	08 95       	ret

0000204a <_ZN12X10_modtagerC1Ehh>:
    204a:	fc 01       	movw	r30, r24
    204c:	60 87       	std	Z+8, r22	; 0x08
    204e:	41 87       	std	Z+9, r20	; 0x09
    2050:	e1 e7       	ldi	r30, 0x71	; 113
    2052:	f0 e0       	ldi	r31, 0x00	; 0
    2054:	20 81       	ld	r18, Z
    2056:	21 60       	ori	r18, 0x01	; 1
    2058:	20 83       	st	Z, r18
    205a:	10 92 b2 00 	sts	0x00B2, r1
    205e:	df cf       	rjmp	.-66     	; 0x201e <_ZN12X10_modtager13resetReceiverEv>
    2060:	08 95       	ret

00002062 <_ZN12X10_modtager18writeDataToPacket1Eh>:
    2062:	fc 01       	movw	r30, r24
    2064:	94 81       	ldd	r25, Z+4	; 0x04
    2066:	99 23       	and	r25, r25
    2068:	51 f0       	breq	.+20     	; 0x207e <_ZN12X10_modtager18writeDataToPacket1Eh+0x1c>
    206a:	20 81       	ld	r18, Z
    206c:	31 81       	ldd	r19, Z+1	; 0x01
    206e:	22 0f       	add	r18, r18
    2070:	33 1f       	adc	r19, r19
    2072:	26 2b       	or	r18, r22
    2074:	31 83       	std	Z+1, r19	; 0x01
    2076:	20 83       	st	Z, r18
    2078:	9f 30       	cpi	r25, 0x0F	; 15
    207a:	48 f4       	brcc	.+18     	; 0x208e <_ZN12X10_modtager18writeDataToPacket1Eh+0x2c>
    207c:	05 c0       	rjmp	.+10     	; 0x2088 <_ZN12X10_modtager18writeDataToPacket1Eh+0x26>
    207e:	20 81       	ld	r18, Z
    2080:	31 81       	ldd	r19, Z+1	; 0x01
    2082:	26 2b       	or	r18, r22
    2084:	31 83       	std	Z+1, r19	; 0x01
    2086:	20 83       	st	Z, r18
    2088:	9f 5f       	subi	r25, 0xFF	; 255
    208a:	94 83       	std	Z+4, r25	; 0x04
    208c:	08 95       	ret
    208e:	9f 5f       	subi	r25, 0xFF	; 255
    2090:	94 83       	std	Z+4, r25	; 0x04
    2092:	08 95       	ret

00002094 <_ZN12X10_modtager18writeDataToPacket2Eh>:
    2094:	fc 01       	movw	r30, r24
    2096:	85 81       	ldd	r24, Z+5	; 0x05
    2098:	88 23       	and	r24, r24
    209a:	41 f0       	breq	.+16     	; 0x20ac <_ZN12X10_modtager18writeDataToPacket2Eh+0x18>
    209c:	22 81       	ldd	r18, Z+2	; 0x02
    209e:	33 81       	ldd	r19, Z+3	; 0x03
    20a0:	22 0f       	add	r18, r18
    20a2:	33 1f       	adc	r19, r19
    20a4:	26 2b       	or	r18, r22
    20a6:	33 83       	std	Z+3, r19	; 0x03
    20a8:	22 83       	std	Z+2, r18	; 0x02
    20aa:	05 c0       	rjmp	.+10     	; 0x20b6 <_ZN12X10_modtager18writeDataToPacket2Eh+0x22>
    20ac:	22 81       	ldd	r18, Z+2	; 0x02
    20ae:	33 81       	ldd	r19, Z+3	; 0x03
    20b0:	26 2b       	or	r18, r22
    20b2:	33 83       	std	Z+3, r19	; 0x03
    20b4:	22 83       	std	Z+2, r18	; 0x02
    20b6:	48 2f       	mov	r20, r24
    20b8:	50 e0       	ldi	r21, 0x00	; 0
    20ba:	23 85       	ldd	r18, Z+11	; 0x0b
    20bc:	30 e0       	ldi	r19, 0x00	; 0
    20be:	28 5f       	subi	r18, 0xF8	; 248
    20c0:	3f 4f       	sbci	r19, 0xFF	; 255
    20c2:	42 17       	cp	r20, r18
    20c4:	53 07       	cpc	r21, r19
    20c6:	1c f4       	brge	.+6      	; 0x20ce <_ZN12X10_modtager18writeDataToPacket2Eh+0x3a>
    20c8:	8f 5f       	subi	r24, 0xFF	; 255
    20ca:	85 83       	std	Z+5, r24	; 0x05
    20cc:	08 95       	ret
    20ce:	8f 5f       	subi	r24, 0xFF	; 255
    20d0:	85 83       	std	Z+5, r24	; 0x05
    20d2:	16 82       	std	Z+6, r1	; 0x06
    20d4:	08 95       	ret

000020d6 <_ZN12X10_modtager13isPacketForMeEv>:
    20d6:	fc 01       	movw	r30, r24
    20d8:	80 81       	ld	r24, Z
    20da:	91 81       	ldd	r25, Z+1	; 0x01
    20dc:	40 85       	ldd	r20, Z+8	; 0x08
    20de:	50 e0       	ldi	r21, 0x00	; 0
    20e0:	29 2f       	mov	r18, r25
    20e2:	33 27       	eor	r19, r19
    20e4:	2f 70       	andi	r18, 0x0F	; 15
    20e6:	33 27       	eor	r19, r19
    20e8:	42 17       	cp	r20, r18
    20ea:	53 07       	cpc	r21, r19
    20ec:	51 f4       	brne	.+20     	; 0x2102 <_ZN12X10_modtager13isPacketForMeEv+0x2c>
    20ee:	41 85       	ldd	r20, Z+9	; 0x09
    20f0:	50 e0       	ldi	r21, 0x00	; 0
    20f2:	9c 01       	movw	r18, r24
    20f4:	33 27       	eor	r19, r19
    20f6:	81 e0       	ldi	r24, 0x01	; 1
    20f8:	42 17       	cp	r20, r18
    20fa:	53 07       	cpc	r21, r19
    20fc:	19 f0       	breq	.+6      	; 0x2104 <_ZN12X10_modtager13isPacketForMeEv+0x2e>
    20fe:	80 e0       	ldi	r24, 0x00	; 0
    2100:	08 95       	ret
    2102:	80 e0       	ldi	r24, 0x00	; 0
    2104:	08 95       	ret

00002106 <_ZN12X10_modtager13getPacketDataEv>:
    2106:	fc 01       	movw	r30, r24
    2108:	93 85       	ldd	r25, Z+11	; 0x0b
    210a:	91 30       	cpi	r25, 0x01	; 1
    210c:	49 f4       	brne	.+18     	; 0x2120 <_ZN12X10_modtager13getPacketDataEv+0x1a>
    210e:	82 81       	ldd	r24, Z+2	; 0x02
    2110:	93 81       	ldd	r25, Z+3	; 0x03
    2112:	88 0f       	add	r24, r24
    2114:	89 2f       	mov	r24, r25
    2116:	88 1f       	adc	r24, r24
    2118:	99 0b       	sbc	r25, r25
    211a:	91 95       	neg	r25
    211c:	81 70       	andi	r24, 0x01	; 1
    211e:	08 95       	ret
    2120:	92 30       	cpi	r25, 0x02	; 2
    2122:	49 f4       	brne	.+18     	; 0x2136 <_ZN12X10_modtager13getPacketDataEv+0x30>
    2124:	82 81       	ldd	r24, Z+2	; 0x02
    2126:	93 81       	ldd	r25, Z+3	; 0x03
    2128:	88 0f       	add	r24, r24
    212a:	89 2f       	mov	r24, r25
    212c:	88 1f       	adc	r24, r24
    212e:	99 0b       	sbc	r25, r25
    2130:	91 95       	neg	r25
    2132:	83 70       	andi	r24, 0x03	; 3
    2134:	08 95       	ret
    2136:	80 e0       	ldi	r24, 0x00	; 0
    2138:	08 95       	ret

0000213a <_ZN12X10_modtager15validatePacketsEv>:
//=============================================================
// METHOD : validatePackets
// DESCR. : checks if the whole packet is valid
//=============================================================
bool X10_modtager::validatePackets()
{
    213a:	fc 01       	movw	r30, r24
	unsigned char parity = 0;
	
	for (unsigned char i = 0; i < 16; i++)
	{
		parity = (parity ^ ((packet1_ >> i) & 1));
    213c:	60 81       	ld	r22, Z
    213e:	71 81       	ldd	r23, Z+1	; 0x01
    2140:	20 e0       	ldi	r18, 0x00	; 0
    2142:	30 e0       	ldi	r19, 0x00	; 0
// METHOD : validatePackets
// DESCR. : checks if the whole packet is valid
//=============================================================
bool X10_modtager::validatePackets()
{
	unsigned char parity = 0;
    2144:	90 e0       	ldi	r25, 0x00	; 0
	
	for (unsigned char i = 0; i < 16; i++)
	{
		parity = (parity ^ ((packet1_ >> i) & 1));
    2146:	ab 01       	movw	r20, r22
    2148:	02 2e       	mov	r0, r18
    214a:	02 c0       	rjmp	.+4      	; 0x2150 <_ZN12X10_modtager15validatePacketsEv+0x16>
    214c:	56 95       	lsr	r21
    214e:	47 95       	ror	r20
    2150:	0a 94       	dec	r0
    2152:	e2 f7       	brpl	.-8      	; 0x214c <_ZN12X10_modtager15validatePacketsEv+0x12>
    2154:	41 70       	andi	r20, 0x01	; 1
    2156:	94 27       	eor	r25, r20
    2158:	2f 5f       	subi	r18, 0xFF	; 255
    215a:	3f 4f       	sbci	r19, 0xFF	; 255
//=============================================================
bool X10_modtager::validatePackets()
{
	unsigned char parity = 0;
	
	for (unsigned char i = 0; i < 16; i++)
    215c:	20 31       	cpi	r18, 0x10	; 16
    215e:	31 05       	cpc	r19, r1
    2160:	91 f7       	brne	.-28     	; 0x2146 <_ZN12X10_modtager15validatePacketsEv+0xc>
		parity = (parity ^ ((packet1_ >> i) & 1));
	}
	
	for (unsigned char i = 0; i < (12); i++)
	{
		parity = (parity ^ ((packet2_ >> i) & 1));
    2162:	62 81       	ldd	r22, Z+2	; 0x02
    2164:	73 81       	ldd	r23, Z+3	; 0x03
    2166:	20 e0       	ldi	r18, 0x00	; 0
    2168:	30 e0       	ldi	r19, 0x00	; 0
    216a:	ab 01       	movw	r20, r22
    216c:	02 2e       	mov	r0, r18
    216e:	02 c0       	rjmp	.+4      	; 0x2174 <_ZN12X10_modtager15validatePacketsEv+0x3a>
    2170:	56 95       	lsr	r21
    2172:	47 95       	ror	r20
    2174:	0a 94       	dec	r0
    2176:	e2 f7       	brpl	.-8      	; 0x2170 <_ZN12X10_modtager15validatePacketsEv+0x36>
    2178:	41 70       	andi	r20, 0x01	; 1
    217a:	94 27       	eor	r25, r20
    217c:	2f 5f       	subi	r18, 0xFF	; 255
    217e:	3f 4f       	sbci	r19, 0xFF	; 255
	for (unsigned char i = 0; i < 16; i++)
	{
		parity = (parity ^ ((packet1_ >> i) & 1));
	}
	
	for (unsigned char i = 0; i < (12); i++)
    2180:	2c 30       	cpi	r18, 0x0C	; 12
    2182:	31 05       	cpc	r19, r1
    2184:	91 f7       	brne	.-28     	; 0x216a <_ZN12X10_modtager15validatePacketsEv+0x30>
	{
		parity = (parity ^ ((packet2_ >> i) & 1));
	}
	
	if(parity != 0)
    2186:	81 e0       	ldi	r24, 0x01	; 1
    2188:	91 11       	cpse	r25, r1
    218a:	80 e0       	ldi	r24, 0x00	; 0
		return false;
	else
		return true;
}
    218c:	08 95       	ret

0000218e <_ZN12X10_modtager11receiveDataEh>:
//=============================================================
// METHOD : receiveData
// DESCR. : Handles receiving data, and the compilation of type and data
//=============================================================
void X10_modtager::receiveData(unsigned char data)
{	
    218e:	1f 93       	push	r17
    2190:	cf 93       	push	r28
    2192:	df 93       	push	r29
    2194:	ec 01       	movw	r28, r24
    2196:	16 2f       	mov	r17, r22
// 		startTimout();
// 	else
// 		resetTimout();
		
	
	if(notReciving_ == false)
    2198:	8f 81       	ldd	r24, Y+7	; 0x07
    219a:	81 11       	cpse	r24, r1
    219c:	4d c0       	rjmp	.+154    	; 0x2238 <__stack+0x39>
	{
		if(currentPacket_ == 1)
    219e:	8e 81       	ldd	r24, Y+6	; 0x06
    21a0:	81 30       	cpi	r24, 0x01	; 1
    21a2:	c9 f4       	brne	.+50     	; 0x21d6 <_ZN12X10_modtager11receiveDataEh+0x48>
		{
			writeDataToPacket1(data);
    21a4:	ce 01       	movw	r24, r28
    21a6:	5d df       	rcall	.-326    	; 0x2062 <_ZN12X10_modtager18writeDataToPacket1Eh>
			if(currentPos1_ == 4)
    21a8:	8c 81       	ldd	r24, Y+4	; 0x04
    21aa:	84 30       	cpi	r24, 0x04	; 4
    21ac:	41 f4       	brne	.+16     	; 0x21be <_ZN12X10_modtager11receiveDataEh+0x30>
			{
				if(isValidStart())
    21ae:	88 81       	ld	r24, Y
    21b0:	99 81       	ldd	r25, Y+1	; 0x01
    21b2:	0e 97       	sbiw	r24, 0x0e	; 14
    21b4:	09 f4       	brne	.+2      	; 0x21b8 <_ZN12X10_modtager11receiveDataEh+0x2a>
    21b6:	3d c0       	rjmp	.+122    	; 0x2232 <__stack+0x33>
				{
				}
				else
				{
					notReciving_ = true;
    21b8:	81 e0       	ldi	r24, 0x01	; 1
    21ba:	8f 83       	std	Y+7, r24	; 0x07
    21bc:	3d c0       	rjmp	.+122    	; 0x2238 <__stack+0x39>
				}
			}
			else if (currentPos1_ == 16)
    21be:	80 31       	cpi	r24, 0x10	; 16
    21c0:	c1 f5       	brne	.+112    	; 0x2232 <__stack+0x33>
			{
				if(isPacketForMe())
    21c2:	ce 01       	movw	r24, r28
    21c4:	88 df       	rcall	.-240    	; 0x20d6 <_ZN12X10_modtager13isPacketForMeEv>
    21c6:	88 23       	and	r24, r24
    21c8:	19 f0       	breq	.+6      	; 0x21d0 <_ZN12X10_modtager11receiveDataEh+0x42>
				{
					currentPacket_ = 2;
    21ca:	82 e0       	ldi	r24, 0x02	; 2
    21cc:	8e 83       	std	Y+6, r24	; 0x06
    21ce:	31 c0       	rjmp	.+98     	; 0x2232 <__stack+0x33>
				}
				else
				{
					notReciving_ = true;
    21d0:	81 e0       	ldi	r24, 0x01	; 1
    21d2:	8f 83       	std	Y+7, r24	; 0x07
    21d4:	31 c0       	rjmp	.+98     	; 0x2238 <__stack+0x39>
				}
				
			}
		}
		
		else if(currentPacket_ == 2)
    21d6:	82 30       	cpi	r24, 0x02	; 2
    21d8:	e9 f4       	brne	.+58     	; 0x2214 <__stack+0x15>
		{
			
			writeDataToPacket2(data);
    21da:	ce 01       	movw	r24, r28
    21dc:	5b df       	rcall	.-330    	; 0x2094 <_ZN12X10_modtager18writeDataToPacket2Eh>
			if(currentPos2_ == 3)
    21de:	8d 81       	ldd	r24, Y+5	; 0x05
    21e0:	83 30       	cpi	r24, 0x03	; 3
    21e2:	39 f5       	brne	.+78     	; 0x2232 <__stack+0x33>
// METHOD : getPacketType
// DESCR. : Retrieve the packet type from the packet
//=============================================================
unsigned char X10_modtager::getPacketType()
{
	return (packet2_ & 0b111);
    21e4:	8a 81       	ldd	r24, Y+2	; 0x02
    21e6:	87 70       	andi	r24, 0x07	; 7
		{
			
			writeDataToPacket2(data);
			if(currentPos2_ == 3)
			{
				type_ = getPacketType();
    21e8:	8a 87       	std	Y+10, r24	; 0x0a
				if(type_ == 0b000 || type_ == 0b011 || type_ == 0b100)
    21ea:	88 23       	and	r24, r24
    21ec:	21 f0       	breq	.+8      	; 0x21f6 <_ZN12X10_modtager11receiveDataEh+0x68>
    21ee:	9d ef       	ldi	r25, 0xFD	; 253
    21f0:	98 0f       	add	r25, r24
    21f2:	92 30       	cpi	r25, 0x02	; 2
    21f4:	10 f4       	brcc	.+4      	; 0x21fa <_ZN12X10_modtager11receiveDataEh+0x6c>
				{
					numberOfData_ = 0;
    21f6:	1b 86       	std	Y+11, r1	; 0x0b
    21f8:	1c c0       	rjmp	.+56     	; 0x2232 <__stack+0x33>
				}
				else if(type_ == 0b001 || type_ == 0b010)
    21fa:	9f ef       	ldi	r25, 0xFF	; 255
    21fc:	98 0f       	add	r25, r24
    21fe:	92 30       	cpi	r25, 0x02	; 2
    2200:	18 f4       	brcc	.+6      	; 0x2208 <__stack+0x9>
				{
					numberOfData_ = 1;
    2202:	81 e0       	ldi	r24, 0x01	; 1
    2204:	8b 87       	std	Y+11, r24	; 0x0b
    2206:	15 c0       	rjmp	.+42     	; 0x2232 <__stack+0x33>
				}
				else if(type_ == 0b110 || type_ == 0b101)
    2208:	85 50       	subi	r24, 0x05	; 5
    220a:	82 30       	cpi	r24, 0x02	; 2
    220c:	90 f4       	brcc	.+36     	; 0x2232 <__stack+0x33>
				{
					numberOfData_ = 2;
    220e:	82 e0       	ldi	r24, 0x02	; 2
    2210:	8b 87       	std	Y+11, r24	; 0x0b
    2212:	0f c0       	rjmp	.+30     	; 0x2232 <__stack+0x33>
				else
				{
				}
			}
		}
		else if(currentPacket_ == 0)
    2214:	81 11       	cpse	r24, r1
    2216:	1d c0       	rjmp	.+58     	; 0x2252 <__stack+0x53>
		{
			TCCR3B &= ~(1 << CS31); //stop timeout
    2218:	e1 e9       	ldi	r30, 0x91	; 145
    221a:	f0 e0       	ldi	r31, 0x00	; 0
    221c:	80 81       	ld	r24, Z
    221e:	8d 7f       	andi	r24, 0xFD	; 253
    2220:	80 83       	st	Z, r24
			data_ = getPacketData();
    2222:	ce 01       	movw	r24, r28
    2224:	70 df       	rcall	.-288    	; 0x2106 <_ZN12X10_modtager13getPacketDataEv>
    2226:	8c 87       	std	Y+12, r24	; 0x0c
			packetValidity_ = validatePackets();
    2228:	ce 01       	movw	r24, r28
    222a:	87 df       	rcall	.-242    	; 0x213a <_ZN12X10_modtager15validatePacketsEv>
    222c:	8d 87       	std	Y+13, r24	; 0x0d
			dataReady_ = true;
    222e:	81 e0       	ldi	r24, 0x01	; 1
    2230:	8e 87       	std	Y+14, r24	; 0x0e
		}
	}
	else{}
		
	if(notReciving_)
    2232:	8f 81       	ldd	r24, Y+7	; 0x07
    2234:	88 23       	and	r24, r24
    2236:	69 f0       	breq	.+26     	; 0x2252 <__stack+0x53>
	{
		PORTB |= (1 << 7);
    2238:	2f 9a       	sbi	0x05, 7	; 5
		
		if(checkForZero(data))
    223a:	11 30       	cpi	r17, 0x01	; 1
    223c:	31 f0       	breq	.+12     	; 0x224a <__stack+0x4b>
			++numberOfZero_;
    223e:	8f 85       	ldd	r24, Y+15	; 0x0f
    2240:	8f 5f       	subi	r24, 0xFF	; 255
    2242:	8f 87       	std	Y+15, r24	; 0x0f
		else
			numberOfZero_ = 0;
		
		if(numberOfZero_ >= 6)
    2244:	86 30       	cpi	r24, 0x06	; 6
    2246:	18 f4       	brcc	.+6      	; 0x224e <__stack+0x4f>
    2248:	04 c0       	rjmp	.+8      	; 0x2252 <__stack+0x53>
		PORTB |= (1 << 7);
		
		if(checkForZero(data))
			++numberOfZero_;
		else
			numberOfZero_ = 0;
    224a:	1f 86       	std	Y+15, r1	; 0x0f
    224c:	02 c0       	rjmp	.+4      	; 0x2252 <__stack+0x53>
		
		if(numberOfZero_ >= 6)
			resetReceiver();
    224e:	ce 01       	movw	r24, r28
    2250:	e6 de       	rcall	.-564    	; 0x201e <_ZN12X10_modtager13resetReceiverEv>
		else{}
			
	}
	else{}	
}
    2252:	df 91       	pop	r29
    2254:	cf 91       	pop	r28
    2256:	1f 91       	pop	r17
    2258:	08 95       	ret

0000225a <_ZN12X10_modtager9fetchDataERhS0_Rb>:
//=============================================================
// METHOD : fetchData
// DESCR. : Extracts the type, data and the validity of the message received
//=============================================================
void X10_modtager::fetchData(unsigned char& type, unsigned char& data, bool& validity)
{
    225a:	cf 93       	push	r28
    225c:	df 93       	push	r29
	if(dataReady_)
    225e:	dc 01       	movw	r26, r24
    2260:	1e 96       	adiw	r26, 0x0e	; 14
    2262:	ec 91       	ld	r30, X
    2264:	1e 97       	sbiw	r26, 0x0e	; 14
    2266:	ee 23       	and	r30, r30
    2268:	91 f0       	breq	.+36     	; 0x228e <_ZN12X10_modtager9fetchDataERhS0_Rb+0x34>
    226a:	e9 01       	movw	r28, r18
	{
		type = type_;
    226c:	1a 96       	adiw	r26, 0x0a	; 10
    226e:	8c 91       	ld	r24, X
    2270:	1a 97       	sbiw	r26, 0x0a	; 10
    2272:	fb 01       	movw	r30, r22
    2274:	80 83       	st	Z, r24
		data = data_;
    2276:	1c 96       	adiw	r26, 0x0c	; 12
    2278:	6c 91       	ld	r22, X
    227a:	1c 97       	sbiw	r26, 0x0c	; 12
    227c:	fa 01       	movw	r30, r20
    227e:	60 83       	st	Z, r22
		validity = packetValidity_;
    2280:	1d 96       	adiw	r26, 0x0d	; 13
    2282:	4c 91       	ld	r20, X
    2284:	1d 97       	sbiw	r26, 0x0d	; 13
    2286:	48 83       	st	Y, r20
		resetReceiver();
    2288:	cd 01       	movw	r24, r26
    228a:	c9 de       	rcall	.-622    	; 0x201e <_ZN12X10_modtager13resetReceiverEv>
    228c:	06 c0       	rjmp	.+12     	; 0x229a <_ZN12X10_modtager9fetchDataERhS0_Rb+0x40>
	}
	else
	{
		type = 0;
    228e:	db 01       	movw	r26, r22
    2290:	1c 92       	st	X, r1
		data = 0;
    2292:	fa 01       	movw	r30, r20
    2294:	10 82       	st	Z, r1
		validity = 0;
    2296:	d9 01       	movw	r26, r18
    2298:	1c 92       	st	X, r1
	}
}
    229a:	df 91       	pop	r29
    229c:	cf 91       	pop	r28
    229e:	08 95       	ret

000022a0 <_ZN12X10_modtager11isDataReadyEv>:
// DESCR. : Returns true if there currently is data ready to be read
//=============================================================
bool X10_modtager::isDataReady()
{
	return dataReady_;
}
    22a0:	fc 01       	movw	r30, r24
    22a2:	86 85       	ldd	r24, Z+14	; 0x0e
    22a4:	08 95       	ret

000022a6 <_ZN12X10_modtager10startInputEv>:
// METHOD : startInput
// DESCR. : Start the timer for cheeking the input for a fixed time
//=============================================================
void X10_modtager::startInput()
{
	TCCR2B |= (1 << CS22);
    22a6:	e1 eb       	ldi	r30, 0xB1	; 177
    22a8:	f0 e0       	ldi	r31, 0x00	; 0
    22aa:	80 81       	ld	r24, Z
    22ac:	84 60       	ori	r24, 0x04	; 4
    22ae:	80 83       	st	Z, r24
    22b0:	08 95       	ret

000022b2 <_ZN12X10_modtager13inputCompleteEv>:
// METHOD : inputComplete
// DESCR. : Stops the timer and reset overflow flag in TIFR2
//=============================================================
void X10_modtager::inputComplete()
{
	TCCR2B &= ~(1 << CS22);
    22b2:	e1 eb       	ldi	r30, 0xB1	; 177
    22b4:	f0 e0       	ldi	r31, 0x00	; 0
    22b6:	80 81       	ld	r24, Z
    22b8:	8b 7f       	andi	r24, 0xFB	; 251
    22ba:	80 83       	st	Z, r24
	TCCR2B &= ~(1 << CS12);
    22bc:	80 81       	ld	r24, Z
    22be:	8b 7f       	andi	r24, 0xFB	; 251
    22c0:	80 83       	st	Z, r24
	TCCR2B &= ~(1 << CS02);
    22c2:	80 81       	ld	r24, Z
    22c4:	8b 7f       	andi	r24, 0xFB	; 251
    22c6:	80 83       	st	Z, r24
	TCNT2 = 0;
    22c8:	10 92 b2 00 	sts	0x00B2, r1
	TIFR2 |= (1 << TOV2);
    22cc:	b8 9a       	sbi	0x17, 0	; 23
    22ce:	08 95       	ret

000022d0 <_ZN12X10_modtager11receiveHighEv>:
//=============================================================
// METHOD : 
// DESCR. : 
//=============================================================
void X10_modtager::receiveHigh()
{
    22d0:	0f 93       	push	r16
    22d2:	1f 93       	push	r17
    22d4:	cf 93       	push	r28
    22d6:	df 93       	push	r29
    22d8:	8c 01       	movw	r16, r24
	startInput();
    22da:	e5 df       	rcall	.-54     	; 0x22a6 <_ZN12X10_modtager10startInputEv>
	bool recived = false;
    22dc:	80 e0       	ldi	r24, 0x00	; 0
	while((TIFR2 & (1 << TOV2)) == 0 && recived == false)
	{
		
		if((PINH & (1 << PINH6)) != 0)
    22de:	c0 e0       	ldi	r28, 0x00	; 0
    22e0:	d1 e0       	ldi	r29, 0x01	; 1
//=============================================================
void X10_modtager::receiveHigh()
{
	startInput();
	bool recived = false;
	while((TIFR2 & (1 << TOV2)) == 0 && recived == false)
    22e2:	07 c0       	rjmp	.+14     	; 0x22f2 <_ZN12X10_modtager11receiveHighEv+0x22>
	{
		
		if((PINH & (1 << PINH6)) != 0)
    22e4:	98 81       	ld	r25, Y
    22e6:	96 ff       	sbrs	r25, 6
    22e8:	04 c0       	rjmp	.+8      	; 0x22f2 <_ZN12X10_modtager11receiveHighEv+0x22>
		{
			recived = true;
			receiveData(1);
    22ea:	61 e0       	ldi	r22, 0x01	; 1
    22ec:	c8 01       	movw	r24, r16
    22ee:	4f df       	rcall	.-354    	; 0x218e <_ZN12X10_modtager11receiveDataEh>
	while((TIFR2 & (1 << TOV2)) == 0 && recived == false)
	{
		
		if((PINH & (1 << PINH6)) != 0)
		{
			recived = true;
    22f0:	81 e0       	ldi	r24, 0x01	; 1
//=============================================================
void X10_modtager::receiveHigh()
{
	startInput();
	bool recived = false;
	while((TIFR2 & (1 << TOV2)) == 0 && recived == false)
    22f2:	b8 99       	sbic	0x17, 0	; 23
    22f4:	02 c0       	rjmp	.+4      	; 0x22fa <_ZN12X10_modtager11receiveHighEv+0x2a>
    22f6:	88 23       	and	r24, r24
    22f8:	a9 f3       	breq	.-22     	; 0x22e4 <_ZN12X10_modtager11receiveHighEv+0x14>
		{
			recived = true;
			receiveData(1);
		}
	}
	inputComplete();
    22fa:	c8 01       	movw	r24, r16
    22fc:	da df       	rcall	.-76     	; 0x22b2 <_ZN12X10_modtager13inputCompleteEv>
}
    22fe:	df 91       	pop	r29
    2300:	cf 91       	pop	r28
    2302:	1f 91       	pop	r17
    2304:	0f 91       	pop	r16
    2306:	08 95       	ret

00002308 <_ZN12X10_modtager10receiveLowEv>:
//=============================================================
// METHOD :
// DESCR. :
//=============================================================
void X10_modtager::receiveLow()
{
    2308:	ff 92       	push	r15
    230a:	0f 93       	push	r16
    230c:	1f 93       	push	r17
    230e:	cf 93       	push	r28
    2310:	df 93       	push	r29
    2312:	8c 01       	movw	r16, r24
	startInput();
    2314:	c8 df       	rcall	.-112    	; 0x22a6 <_ZN12X10_modtager10startInputEv>
	bool recived = false;
    2316:	80 e0       	ldi	r24, 0x00	; 0
	while((TIFR2 & (1 << TOV2)) == 0 && recived == false)
	{
		if((PINH & (1 << PINH6)) != 0)
    2318:	c0 e0       	ldi	r28, 0x00	; 0
    231a:	d1 e0       	ldi	r29, 0x01	; 1
		{
			recived = true;
    231c:	ff 24       	eor	r15, r15
    231e:	f3 94       	inc	r15
//=============================================================
void X10_modtager::receiveLow()
{
	startInput();
	bool recived = false;
	while((TIFR2 & (1 << TOV2)) == 0 && recived == false)
    2320:	07 c0       	rjmp	.+14     	; 0x2330 <_ZN12X10_modtager10receiveLowEv+0x28>
	{
		if((PINH & (1 << PINH6)) != 0)
    2322:	98 81       	ld	r25, Y
    2324:	96 ff       	sbrs	r25, 6
    2326:	04 c0       	rjmp	.+8      	; 0x2330 <_ZN12X10_modtager10receiveLowEv+0x28>
		{
			recived = true;
			receiveData(0);
    2328:	60 e0       	ldi	r22, 0x00	; 0
    232a:	c8 01       	movw	r24, r16
    232c:	30 df       	rcall	.-416    	; 0x218e <_ZN12X10_modtager11receiveDataEh>
	bool recived = false;
	while((TIFR2 & (1 << TOV2)) == 0 && recived == false)
	{
		if((PINH & (1 << PINH6)) != 0)
		{
			recived = true;
    232e:	8f 2d       	mov	r24, r15
//=============================================================
void X10_modtager::receiveLow()
{
	startInput();
	bool recived = false;
	while((TIFR2 & (1 << TOV2)) == 0 && recived == false)
    2330:	b8 99       	sbic	0x17, 0	; 23
    2332:	02 c0       	rjmp	.+4      	; 0x2338 <_ZN12X10_modtager10receiveLowEv+0x30>
    2334:	88 23       	and	r24, r24
    2336:	a9 f3       	breq	.-22     	; 0x2322 <_ZN12X10_modtager10receiveLowEv+0x1a>
		{
			recived = true;
			receiveData(0);
		}
	}
	inputComplete();
    2338:	c8 01       	movw	r24, r16
    233a:	bb df       	rcall	.-138    	; 0x22b2 <_ZN12X10_modtager13inputCompleteEv>
    233c:	df 91       	pop	r29
    233e:	cf 91       	pop	r28
    2340:	1f 91       	pop	r17
    2342:	0f 91       	pop	r16
    2344:	ff 90       	pop	r15
    2346:	08 95       	ret

00002348 <_ZN10X10_senderC1Ev>:
// DESCR. : retrieve the current pos of the bit to send
//=============================================================
unsigned char X10_sender::getCurrentPos2()
{
	return currentPos2_;
}
    2348:	fc 01       	movw	r30, r24
    234a:	11 82       	std	Z+1, r1	; 0x01
    234c:	10 82       	st	Z, r1
    234e:	13 82       	std	Z+3, r1	; 0x03
    2350:	12 82       	std	Z+2, r1	; 0x02
    2352:	16 82       	std	Z+6, r1	; 0x06
    2354:	14 82       	std	Z+4, r1	; 0x04
    2356:	15 82       	std	Z+5, r1	; 0x05
    2358:	17 82       	std	Z+7, r1	; 0x07
    235a:	8e e0       	ldi	r24, 0x0E	; 14
    235c:	80 87       	std	Z+8, r24	; 0x08
    235e:	e1 e8       	ldi	r30, 0x81	; 129
    2360:	f0 e0       	ldi	r31, 0x00	; 0
    2362:	80 81       	ld	r24, Z
    2364:	80 61       	ori	r24, 0x10	; 16
    2366:	80 83       	st	Z, r24
    2368:	80 81       	ld	r24, Z
    236a:	87 7f       	andi	r24, 0xF7	; 247
    236c:	80 83       	st	Z, r24
    236e:	a0 e8       	ldi	r26, 0x80	; 128
    2370:	b0 e0       	ldi	r27, 0x00	; 0
    2372:	8c 91       	ld	r24, X
    2374:	8d 7f       	andi	r24, 0xFD	; 253
    2376:	8c 93       	st	X, r24
    2378:	8c 91       	ld	r24, X
    237a:	8e 7f       	andi	r24, 0xFE	; 254
    237c:	8c 93       	st	X, r24
    237e:	80 81       	ld	r24, Z
    2380:	8b 7f       	andi	r24, 0xFB	; 251
    2382:	80 83       	st	Z, r24
    2384:	80 81       	ld	r24, Z
    2386:	8d 7f       	andi	r24, 0xFD	; 253
    2388:	80 83       	st	Z, r24
    238a:	80 81       	ld	r24, Z
    238c:	81 60       	ori	r24, 0x01	; 1
    238e:	80 83       	st	Z, r24
    2390:	83 e4       	ldi	r24, 0x43	; 67
    2392:	90 e0       	ldi	r25, 0x00	; 0
    2394:	90 93 87 00 	sts	0x0087, r25
    2398:	80 93 86 00 	sts	0x0086, r24
    239c:	8c 91       	ld	r24, X
    239e:	80 68       	ori	r24, 0x80	; 128
    23a0:	8c 93       	st	X, r24
    23a2:	8c 91       	ld	r24, X
    23a4:	8f 7b       	andi	r24, 0xBF	; 191
    23a6:	8c 93       	st	X, r24
    23a8:	10 92 89 00 	sts	0x0089, r1
    23ac:	10 92 88 00 	sts	0x0088, r1
    23b0:	25 9a       	sbi	0x04, 5	; 4
    23b2:	85 b5       	in	r24, 0x25	; 37
    23b4:	87 7f       	andi	r24, 0xF7	; 247
    23b6:	85 bd       	out	0x25, r24	; 37
    23b8:	84 b5       	in	r24, 0x24	; 36
    23ba:	8d 7f       	andi	r24, 0xFD	; 253
    23bc:	84 bd       	out	0x24, r24	; 36
    23be:	84 b5       	in	r24, 0x24	; 36
    23c0:	8e 7f       	andi	r24, 0xFE	; 254
    23c2:	84 bd       	out	0x24, r24	; 36
    23c4:	85 b5       	in	r24, 0x25	; 37
    23c6:	8b 7f       	andi	r24, 0xFB	; 251
    23c8:	85 bd       	out	0x25, r24	; 37
    23ca:	85 b5       	in	r24, 0x25	; 37
    23cc:	8d 7f       	andi	r24, 0xFD	; 253
    23ce:	85 bd       	out	0x25, r24	; 37
    23d0:	85 b5       	in	r24, 0x25	; 37
    23d2:	8e 7f       	andi	r24, 0xFE	; 254
    23d4:	85 bd       	out	0x25, r24	; 37
    23d6:	ee e6       	ldi	r30, 0x6E	; 110
    23d8:	f0 e0       	ldi	r31, 0x00	; 0
    23da:	80 81       	ld	r24, Z
    23dc:	81 60       	ori	r24, 0x01	; 1
    23de:	80 83       	st	Z, r24
    23e0:	86 e0       	ldi	r24, 0x06	; 6
    23e2:	86 bd       	out	0x26, r24	; 38
    23e4:	08 95       	ret

000023e6 <_ZN10X10_sender8start120Ev>:
    23e6:	81 e2       	ldi	r24, 0x21	; 33
    23e8:	90 e0       	ldi	r25, 0x00	; 0
    23ea:	90 93 89 00 	sts	0x0089, r25
    23ee:	80 93 88 00 	sts	0x0088, r24
    23f2:	85 b5       	in	r24, 0x25	; 37
    23f4:	8b 7f       	andi	r24, 0xFB	; 251
    23f6:	85 bd       	out	0x25, r24	; 37
    23f8:	85 b5       	in	r24, 0x25	; 37
    23fa:	82 60       	ori	r24, 0x02	; 2
    23fc:	85 bd       	out	0x25, r24	; 37
    23fe:	85 b5       	in	r24, 0x25	; 37
    2400:	81 60       	ori	r24, 0x01	; 1
    2402:	85 bd       	out	0x25, r24	; 37
    2404:	08 95       	ret

00002406 <_ZN10X10_sender7stop120Ev>:
    2406:	85 b5       	in	r24, 0x25	; 37
    2408:	8b 7f       	andi	r24, 0xFB	; 251
    240a:	85 bd       	out	0x25, r24	; 37
    240c:	85 b5       	in	r24, 0x25	; 37
    240e:	8d 7f       	andi	r24, 0xFD	; 253
    2410:	85 bd       	out	0x25, r24	; 37
    2412:	85 b5       	in	r24, 0x25	; 37
    2414:	8e 7f       	andi	r24, 0xFE	; 254
    2416:	85 bd       	out	0x25, r24	; 37
    2418:	86 e0       	ldi	r24, 0x06	; 6
    241a:	86 bd       	out	0x26, r24	; 38
    241c:	10 92 89 00 	sts	0x0089, r1
    2420:	10 92 88 00 	sts	0x0088, r1
    2424:	08 95       	ret

00002426 <_ZN10X10_sender11getSendModeEv>:
    2426:	fc 01       	movw	r30, r24
    2428:	87 81       	ldd	r24, Z+7	; 0x07
    242a:	08 95       	ret

0000242c <_ZN10X10_sender14generateParityEjj>:
//=============================================================
// METHOD : generateParity
// DESCR. : generates a parity bit for the whole packet
//=============================================================
unsigned char X10_sender::generateParity(unsigned int packet1, unsigned int packet2)
{
    242c:	20 e0       	ldi	r18, 0x00	; 0
    242e:	30 e0       	ldi	r19, 0x00	; 0
	unsigned char parity = 0;
    2430:	80 e0       	ldi	r24, 0x00	; 0
	
	for (unsigned char i = 0; i < 16; i++)
	{
		parity = parity ^ ((packet1 >> i) & 1);
    2432:	fb 01       	movw	r30, r22
    2434:	02 2e       	mov	r0, r18
    2436:	02 c0       	rjmp	.+4      	; 0x243c <_ZN10X10_sender14generateParityEjj+0x10>
    2438:	f6 95       	lsr	r31
    243a:	e7 95       	ror	r30
    243c:	0a 94       	dec	r0
    243e:	e2 f7       	brpl	.-8      	; 0x2438 <_ZN10X10_sender14generateParityEjj+0xc>
    2440:	e1 70       	andi	r30, 0x01	; 1
    2442:	8e 27       	eor	r24, r30
    2444:	2f 5f       	subi	r18, 0xFF	; 255
    2446:	3f 4f       	sbci	r19, 0xFF	; 255
//=============================================================
unsigned char X10_sender::generateParity(unsigned int packet1, unsigned int packet2)
{
	unsigned char parity = 0;
	
	for (unsigned char i = 0; i < 16; i++)
    2448:	20 31       	cpi	r18, 0x10	; 16
    244a:	31 05       	cpc	r19, r1
    244c:	91 f7       	brne	.-28     	; 0x2432 <_ZN10X10_sender14generateParityEjj+0x6>
    244e:	20 e0       	ldi	r18, 0x00	; 0
    2450:	30 e0       	ldi	r19, 0x00	; 0
		parity = parity ^ ((packet1 >> i) & 1);
	}
	
	for (unsigned char i = 0; i < 4; i++)
	{
		parity = parity ^ ((packet2 >> i) & 1);
    2452:	ba 01       	movw	r22, r20
    2454:	02 2e       	mov	r0, r18
    2456:	02 c0       	rjmp	.+4      	; 0x245c <_ZN10X10_sender14generateParityEjj+0x30>
    2458:	76 95       	lsr	r23
    245a:	67 95       	ror	r22
    245c:	0a 94       	dec	r0
    245e:	e2 f7       	brpl	.-8      	; 0x2458 <_ZN10X10_sender14generateParityEjj+0x2c>
    2460:	61 70       	andi	r22, 0x01	; 1
    2462:	86 27       	eor	r24, r22
    2464:	2f 5f       	subi	r18, 0xFF	; 255
    2466:	3f 4f       	sbci	r19, 0xFF	; 255
	for (unsigned char i = 0; i < 16; i++)
	{
		parity = parity ^ ((packet1 >> i) & 1);
	}
	
	for (unsigned char i = 0; i < 4; i++)
    2468:	24 30       	cpi	r18, 0x04	; 4
    246a:	31 05       	cpc	r19, r1
    246c:	91 f7       	brne	.-28     	; 0x2452 <_ZN10X10_sender14generateParityEjj+0x26>
		parity = parity ^ ((packet2 >> i) & 1);
	}
	
	return parity;
		
}
    246e:	08 95       	ret

00002470 <_ZN10X10_sender11sendCommandEhhhh>:
//=============================================================
// METHOD : sendCommand
// DESCR. : Handles compiling a packet to send, and sets the unit to send the packet
//=============================================================
void X10_sender::sendCommand(unsigned char houseCode, unsigned char adress, unsigned char type, unsigned char data)
{
    2470:	ff 92       	push	r15
    2472:	0f 93       	push	r16
    2474:	1f 93       	push	r17
    2476:	cf 93       	push	r28
    2478:	df 93       	push	r29
    247a:	00 d0       	rcall	.+0      	; 0x247c <_ZN10X10_sender11sendCommandEhhhh+0xc>
    247c:	1f 92       	push	r1
    247e:	cd b7       	in	r28, 0x3d	; 61
    2480:	de b7       	in	r29, 0x3e	; 62
	volatile unsigned int tempPacketData1 = 0;
    2482:	1c 82       	std	Y+4, r1	; 0x04
    2484:	1b 82       	std	Y+3, r1	; 0x03
	volatile unsigned int tempPacketData2 = 0;
    2486:	1a 82       	std	Y+2, r1	; 0x02
    2488:	19 82       	std	Y+1, r1	; 0x01
	unsigned char tempPacketSize = 0;
	
	
	tempPacketData1 |= startBit_;
    248a:	eb 81       	ldd	r30, Y+3	; 0x03
    248c:	fc 81       	ldd	r31, Y+4	; 0x04
    248e:	dc 01       	movw	r26, r24
    2490:	18 96       	adiw	r26, 0x08	; 8
    2492:	3c 91       	ld	r19, X
    2494:	e3 2b       	or	r30, r19
    2496:	fc 83       	std	Y+4, r31	; 0x04
    2498:	eb 83       	std	Y+3, r30	; 0x03
	
	tempPacketData1 = tempPacketData1 << 4;
    249a:	eb 81       	ldd	r30, Y+3	; 0x03
    249c:	fc 81       	ldd	r31, Y+4	; 0x04
    249e:	e2 95       	swap	r30
    24a0:	f2 95       	swap	r31
    24a2:	f0 7f       	andi	r31, 0xF0	; 240
    24a4:	fe 27       	eor	r31, r30
    24a6:	e0 7f       	andi	r30, 0xF0	; 240
    24a8:	fe 27       	eor	r31, r30
    24aa:	fc 83       	std	Y+4, r31	; 0x04
    24ac:	eb 83       	std	Y+3, r30	; 0x03
	tempPacketData1 |= houseCode;
    24ae:	eb 81       	ldd	r30, Y+3	; 0x03
    24b0:	fc 81       	ldd	r31, Y+4	; 0x04
    24b2:	df 01       	movw	r26, r30
    24b4:	a6 2b       	or	r26, r22
    24b6:	bd 01       	movw	r22, r26
    24b8:	7c 83       	std	Y+4, r23	; 0x04
    24ba:	6b 83       	std	Y+3, r22	; 0x03
	
	tempPacketData1 = tempPacketData1 << 8;
    24bc:	6b 81       	ldd	r22, Y+3	; 0x03
    24be:	7c 81       	ldd	r23, Y+4	; 0x04
    24c0:	76 2f       	mov	r23, r22
    24c2:	66 27       	eor	r22, r22
    24c4:	7c 83       	std	Y+4, r23	; 0x04
    24c6:	6b 83       	std	Y+3, r22	; 0x03
	tempPacketData1 |= adress;
    24c8:	6b 81       	ldd	r22, Y+3	; 0x03
    24ca:	7c 81       	ldd	r23, Y+4	; 0x04
    24cc:	fb 01       	movw	r30, r22
    24ce:	e4 2b       	or	r30, r20
    24d0:	af 01       	movw	r20, r30
    24d2:	5c 83       	std	Y+4, r21	; 0x04
    24d4:	4b 83       	std	Y+3, r20	; 0x03
	
	tempPacketData2 |= type;
    24d6:	49 81       	ldd	r20, Y+1	; 0x01
    24d8:	5a 81       	ldd	r21, Y+2	; 0x02
    24da:	42 2b       	or	r20, r18
    24dc:	5a 83       	std	Y+2, r21	; 0x02
    24de:	49 83       	std	Y+1, r20	; 0x01
	
	if(type == 0b000 || type == 0b011 || type == 0b100)
    24e0:	22 23       	and	r18, r18
    24e2:	71 f1       	breq	.+92     	; 0x2540 <_ZN10X10_sender11sendCommandEhhhh+0xd0>
    24e4:	3d ef       	ldi	r19, 0xFD	; 253
    24e6:	32 0f       	add	r19, r18
    24e8:	32 30       	cpi	r19, 0x02	; 2
    24ea:	78 f1       	brcs	.+94     	; 0x254a <_ZN10X10_sender11sendCommandEhhhh+0xda>
	{
		tempPacketSize = 9;
	}
	
	else if(type == 0b001 || type == 0b010)
    24ec:	3f ef       	ldi	r19, 0xFF	; 255
    24ee:	32 0f       	add	r19, r18
    24f0:	32 30       	cpi	r19, 0x02	; 2
    24f2:	80 f4       	brcc	.+32     	; 0x2514 <_ZN10X10_sender11sendCommandEhhhh+0xa4>
	{
		tempPacketData2 = tempPacketData2 << 1;
    24f4:	29 81       	ldd	r18, Y+1	; 0x01
    24f6:	3a 81       	ldd	r19, Y+2	; 0x02
    24f8:	22 0f       	add	r18, r18
    24fa:	33 1f       	adc	r19, r19
    24fc:	3a 83       	std	Y+2, r19	; 0x02
    24fe:	29 83       	std	Y+1, r18	; 0x01
		tempPacketData2 |= data;
    2500:	29 81       	ldd	r18, Y+1	; 0x01
    2502:	3a 81       	ldd	r19, Y+2	; 0x02
    2504:	20 2b       	or	r18, r16
    2506:	3a 83       	std	Y+2, r19	; 0x02
    2508:	29 83       	std	Y+1, r18	; 0x01
				
		tempPacketSize = 10;
    250a:	0f 2e       	mov	r0, r31
    250c:	fa e0       	ldi	r31, 0x0A	; 10
    250e:	ff 2e       	mov	r15, r31
    2510:	f0 2d       	mov	r31, r0
    2512:	1f c0       	rjmp	.+62     	; 0x2552 <_ZN10X10_sender11sendCommandEhhhh+0xe2>
	}
	
	else if(type == 0b110 || type == 0b101)
    2514:	25 50       	subi	r18, 0x05	; 5
    2516:	22 30       	cpi	r18, 0x02	; 2
    2518:	08 f0       	brcs	.+2      	; 0x251c <_ZN10X10_sender11sendCommandEhhhh+0xac>
    251a:	53 c0       	rjmp	.+166    	; 0x25c2 <_ZN10X10_sender11sendCommandEhhhh+0x152>
	{
		tempPacketData2 = tempPacketData2 << 2;
    251c:	29 81       	ldd	r18, Y+1	; 0x01
    251e:	3a 81       	ldd	r19, Y+2	; 0x02
    2520:	22 0f       	add	r18, r18
    2522:	33 1f       	adc	r19, r19
    2524:	22 0f       	add	r18, r18
    2526:	33 1f       	adc	r19, r19
    2528:	3a 83       	std	Y+2, r19	; 0x02
    252a:	29 83       	std	Y+1, r18	; 0x01
		tempPacketData2 |= data;
    252c:	29 81       	ldd	r18, Y+1	; 0x01
    252e:	3a 81       	ldd	r19, Y+2	; 0x02
    2530:	20 2b       	or	r18, r16
    2532:	3a 83       	std	Y+2, r19	; 0x02
    2534:	29 83       	std	Y+1, r18	; 0x01
	
		tempPacketSize = 11;
    2536:	0f 2e       	mov	r0, r31
    2538:	fb e0       	ldi	r31, 0x0B	; 11
    253a:	ff 2e       	mov	r15, r31
    253c:	f0 2d       	mov	r31, r0
    253e:	09 c0       	rjmp	.+18     	; 0x2552 <_ZN10X10_sender11sendCommandEhhhh+0xe2>
	
	tempPacketData2 |= type;
	
	if(type == 0b000 || type == 0b011 || type == 0b100)
	{
		tempPacketSize = 9;
    2540:	0f 2e       	mov	r0, r31
    2542:	f9 e0       	ldi	r31, 0x09	; 9
    2544:	ff 2e       	mov	r15, r31
    2546:	f0 2d       	mov	r31, r0
    2548:	04 c0       	rjmp	.+8      	; 0x2552 <_ZN10X10_sender11sendCommandEhhhh+0xe2>
    254a:	0f 2e       	mov	r0, r31
    254c:	f9 e0       	ldi	r31, 0x09	; 9
    254e:	ff 2e       	mov	r15, r31
    2550:	f0 2d       	mov	r31, r0
    2552:	8c 01       	movw	r16, r24
	else
	{
		return;
	}
		
	tempPacketData2 = tempPacketData2 << 1;
    2554:	89 81       	ldd	r24, Y+1	; 0x01
    2556:	9a 81       	ldd	r25, Y+2	; 0x02
    2558:	88 0f       	add	r24, r24
    255a:	99 1f       	adc	r25, r25
    255c:	9a 83       	std	Y+2, r25	; 0x02
    255e:	89 83       	std	Y+1, r24	; 0x01
	tempPacketData2 |= generateParity(tempPacketData1, tempPacketData2);
    2560:	49 81       	ldd	r20, Y+1	; 0x01
    2562:	5a 81       	ldd	r21, Y+2	; 0x02
    2564:	6b 81       	ldd	r22, Y+3	; 0x03
    2566:	7c 81       	ldd	r23, Y+4	; 0x04
    2568:	c8 01       	movw	r24, r16
    256a:	60 df       	rcall	.-320    	; 0x242c <_ZN10X10_sender14generateParityEjj>
    256c:	29 81       	ldd	r18, Y+1	; 0x01
    256e:	3a 81       	ldd	r19, Y+2	; 0x02
    2570:	28 2b       	or	r18, r24
    2572:	3a 83       	std	Y+2, r19	; 0x02
    2574:	29 83       	std	Y+1, r18	; 0x01
	
	tempPacketData2 = tempPacketData2 << 6;
    2576:	89 81       	ldd	r24, Y+1	; 0x01
    2578:	9a 81       	ldd	r25, Y+2	; 0x02
    257a:	00 24       	eor	r0, r0
    257c:	96 95       	lsr	r25
    257e:	87 95       	ror	r24
    2580:	07 94       	ror	r0
    2582:	96 95       	lsr	r25
    2584:	87 95       	ror	r24
    2586:	07 94       	ror	r0
    2588:	98 2f       	mov	r25, r24
    258a:	80 2d       	mov	r24, r0
    258c:	9a 83       	std	Y+2, r25	; 0x02
    258e:	89 83       	std	Y+1, r24	; 0x01
		
	outGoingPacket1_ = tempPacketData1;
    2590:	8b 81       	ldd	r24, Y+3	; 0x03
    2592:	9c 81       	ldd	r25, Y+4	; 0x04
    2594:	d8 01       	movw	r26, r16
    2596:	11 96       	adiw	r26, 0x01	; 1
    2598:	9c 93       	st	X, r25
    259a:	8e 93       	st	-X, r24
	outGoingPacket2_ = tempPacketData2;
    259c:	89 81       	ldd	r24, Y+1	; 0x01
    259e:	9a 81       	ldd	r25, Y+2	; 0x02
    25a0:	13 96       	adiw	r26, 0x03	; 3
    25a2:	9c 93       	st	X, r25
    25a4:	8e 93       	st	-X, r24
    25a6:	12 97       	sbiw	r26, 0x02	; 2
	currentPos1_ = 15;
    25a8:	8f e0       	ldi	r24, 0x0F	; 15
    25aa:	14 96       	adiw	r26, 0x04	; 4
    25ac:	8c 93       	st	X, r24
    25ae:	14 97       	sbiw	r26, 0x04	; 4
	currentPos2_ = tempPacketSize;
    25b0:	15 96       	adiw	r26, 0x05	; 5
    25b2:	fc 92       	st	X, r15
    25b4:	15 97       	sbiw	r26, 0x05	; 5
	sendMode_ = true;
    25b6:	81 e0       	ldi	r24, 0x01	; 1
    25b8:	17 96       	adiw	r26, 0x07	; 7
    25ba:	8c 93       	st	X, r24
    25bc:	17 97       	sbiw	r26, 0x07	; 7
	currentPacket_ = 1;
    25be:	16 96       	adiw	r26, 0x06	; 6
    25c0:	8c 93       	st	X, r24
}
    25c2:	0f 90       	pop	r0
    25c4:	0f 90       	pop	r0
    25c6:	0f 90       	pop	r0
    25c8:	0f 90       	pop	r0
    25ca:	df 91       	pop	r29
    25cc:	cf 91       	pop	r28
    25ce:	1f 91       	pop	r17
    25d0:	0f 91       	pop	r16
    25d2:	ff 90       	pop	r15
    25d4:	08 95       	ret

000025d6 <_ZN10X10_sender8sendHighEv>:
//=============================================================
// METHOD : sendHigh
// DESCR. : 
//=============================================================
void X10_sender::sendHigh()
{
    25d6:	cf 93       	push	r28
    25d8:	df 93       	push	r29
	if(getSendMode() == true)
    25da:	fc 01       	movw	r30, r24
    25dc:	27 81       	ldd	r18, Z+7	; 0x07
    25de:	22 23       	and	r18, r18
    25e0:	b9 f1       	breq	.+110    	; 0x2650 <_ZN10X10_sender8sendHighEv+0x7a>
    25e2:	ec 01       	movw	r28, r24
// METHOD : getCurrentPacket
// DESCR. : retrieve what packet part is being send
//=============================================================
unsigned char X10_sender::getCurrentPacket()
{
	return currentPacket_;
    25e4:	86 81       	ldd	r24, Z+6	; 0x06
void X10_sender::sendHigh()
{
	if(getSendMode() == true)
	{
		//PORTB |= 1 << 1;
		if(getCurrentPacket() == 1)
    25e6:	81 30       	cpi	r24, 0x01	; 1
    25e8:	c9 f4       	brne	.+50     	; 0x261c <_ZN10X10_sender8sendHighEv+0x46>
		{
			if(getPacket1() & (1 << getCurrentPos1()))
    25ea:	81 e0       	ldi	r24, 0x01	; 1
    25ec:	90 e0       	ldi	r25, 0x00	; 0
    25ee:	04 80       	ldd	r0, Z+4	; 0x04
    25f0:	02 c0       	rjmp	.+4      	; 0x25f6 <_ZN10X10_sender8sendHighEv+0x20>
    25f2:	88 0f       	add	r24, r24
    25f4:	99 1f       	adc	r25, r25
    25f6:	0a 94       	dec	r0
    25f8:	e2 f7       	brpl	.-8      	; 0x25f2 <_ZN10X10_sender8sendHighEv+0x1c>
    25fa:	20 81       	ld	r18, Z
    25fc:	31 81       	ldd	r19, Z+1	; 0x01
    25fe:	82 23       	and	r24, r18
    2600:	93 23       	and	r25, r19
    2602:	89 2b       	or	r24, r25
    2604:	29 f1       	breq	.+74     	; 0x2650 <_ZN10X10_sender8sendHighEv+0x7a>
			{
				start120();
    2606:	cf 01       	movw	r24, r30
    2608:	ee de       	rcall	.-548    	; 0x23e6 <_ZN10X10_sender8start120Ev>
// METHOD : getCurrentPos1
// DESCR. : retrieve the current pos of the bit to send
//=============================================================
unsigned char X10_sender::getCurrentPos1()
{
	return currentPos1_;
    260a:	8c 81       	ldd	r24, Y+4	; 0x04
		{
			if(getPacket1() & (1 << getCurrentPos1()))
			{
				start120();
				
				if(getCurrentPos1() > 0)
    260c:	88 23       	and	r24, r24
    260e:	19 f0       	breq	.+6      	; 0x2616 <_ZN10X10_sender8sendHighEv+0x40>
// METHOD : decrementCurrentPos1
// DESCR. : decrement the current pos for the current bit to send on packet 1
//=============================================================
void X10_sender::decrementCurrentPos1()
{
	--currentPos1_;
    2610:	81 50       	subi	r24, 0x01	; 1
    2612:	8c 83       	std	Y+4, r24	; 0x04
    2614:	1d c0       	rjmp	.+58     	; 0x2650 <_ZN10X10_sender8sendHighEv+0x7a>
// METHOD : setCurrentPacket
// DESCR. : changes what packet part to send
//=============================================================
void X10_sender::setCurrentPacket(unsigned char packet)
{
	currentPacket_ = packet;
    2616:	82 e0       	ldi	r24, 0x02	; 2
    2618:	8e 83       	std	Y+6, r24	; 0x06
    261a:	1a c0       	rjmp	.+52     	; 0x2650 <_ZN10X10_sender8sendHighEv+0x7a>
				//PORTB |= 1 << 2;
			}
		else{}
	}
	
	else if(getCurrentPacket() == 2)
    261c:	82 30       	cpi	r24, 0x02	; 2
    261e:	c1 f4       	brne	.+48     	; 0x2650 <_ZN10X10_sender8sendHighEv+0x7a>
	{
		if(getPacket2() & (1 << getCurrentPos2()))
    2620:	81 e0       	ldi	r24, 0x01	; 1
    2622:	90 e0       	ldi	r25, 0x00	; 0
    2624:	05 80       	ldd	r0, Z+5	; 0x05
    2626:	02 c0       	rjmp	.+4      	; 0x262c <_ZN10X10_sender8sendHighEv+0x56>
    2628:	88 0f       	add	r24, r24
    262a:	99 1f       	adc	r25, r25
    262c:	0a 94       	dec	r0
    262e:	e2 f7       	brpl	.-8      	; 0x2628 <_ZN10X10_sender8sendHighEv+0x52>
    2630:	22 81       	ldd	r18, Z+2	; 0x02
    2632:	33 81       	ldd	r19, Z+3	; 0x03
    2634:	82 23       	and	r24, r18
    2636:	93 23       	and	r25, r19
    2638:	89 2b       	or	r24, r25
    263a:	51 f0       	breq	.+20     	; 0x2650 <_ZN10X10_sender8sendHighEv+0x7a>
		{
			start120();
    263c:	cf 01       	movw	r24, r30
    263e:	d3 de       	rcall	.-602    	; 0x23e6 <_ZN10X10_sender8start120Ev>
// METHOD : getCurrentPos2
// DESCR. : retrieve the current pos of the bit to send
//=============================================================
unsigned char X10_sender::getCurrentPos2()
{
	return currentPos2_;
    2640:	8d 81       	ldd	r24, Y+5	; 0x05
	{
		if(getPacket2() & (1 << getCurrentPos2()))
		{
			start120();
			
			if(getCurrentPos2() > 0)
    2642:	88 23       	and	r24, r24
    2644:	19 f0       	breq	.+6      	; 0x264c <_ZN10X10_sender8sendHighEv+0x76>
// METHOD : decrementCurrentPos2
// DESCR. : decrement the current pos for the current bit to send on packet 2
//=============================================================
void X10_sender::decrementCurrentPos2()
{
	--currentPos2_;
    2646:	81 50       	subi	r24, 0x01	; 1
    2648:	8d 83       	std	Y+5, r24	; 0x05
    264a:	02 c0       	rjmp	.+4      	; 0x2650 <_ZN10X10_sender8sendHighEv+0x7a>
// METHOD : setSendMode
// DESCR. : sets the send mode to true or false
//=============================================================
void X10_sender::setSendMode(bool newSendMode)
{
	sendMode_ = newSendMode;
    264c:	1f 82       	std	Y+7, r1	; 0x07
// METHOD : setCurrentPacket
// DESCR. : changes what packet part to send
//=============================================================
void X10_sender::setCurrentPacket(unsigned char packet)
{
	currentPacket_ = packet;
    264e:	1e 82       	std	Y+6, r1	; 0x06
		}
	else{}
}
		else{}
	}
}
    2650:	df 91       	pop	r29
    2652:	cf 91       	pop	r28
    2654:	08 95       	ret

00002656 <_ZN10X10_sender7sendLowEv>:
//=============================================================
// METHOD : sendLow
// DESCR. : 
//=============================================================
void X10_sender::sendLow()
{
    2656:	cf 93       	push	r28
    2658:	df 93       	push	r29
	//PORTB &= ~(3 << 1);
	if(getSendMode() == true)
    265a:	fc 01       	movw	r30, r24
    265c:	27 81       	ldd	r18, Z+7	; 0x07
    265e:	22 23       	and	r18, r18
    2660:	09 f4       	brne	.+2      	; 0x2664 <_ZN10X10_sender7sendLowEv+0xe>
    2662:	3d c0       	rjmp	.+122    	; 0x26de <_ZN10X10_sender7sendLowEv+0x88>
    2664:	ec 01       	movw	r28, r24
// METHOD : getCurrentPacket
// DESCR. : retrieve what packet part is being send
//=============================================================
unsigned char X10_sender::getCurrentPacket()
{
	return currentPacket_;
    2666:	86 81       	ldd	r24, Z+6	; 0x06
void X10_sender::sendLow()
{
	//PORTB &= ~(3 << 1);
	if(getSendMode() == true)
	{
		if(getCurrentPacket() == 1)
    2668:	81 30       	cpi	r24, 0x01	; 1
    266a:	e1 f4       	brne	.+56     	; 0x26a4 <_ZN10X10_sender7sendLowEv+0x4e>
		{
			//PORTB |= 1 << 3;
			if(~getPacket1() & (1 << getCurrentPos1()))
    266c:	81 e0       	ldi	r24, 0x01	; 1
    266e:	90 e0       	ldi	r25, 0x00	; 0
    2670:	9c 01       	movw	r18, r24
    2672:	04 80       	ldd	r0, Z+4	; 0x04
    2674:	02 c0       	rjmp	.+4      	; 0x267a <_ZN10X10_sender7sendLowEv+0x24>
    2676:	22 0f       	add	r18, r18
    2678:	33 1f       	adc	r19, r19
    267a:	0a 94       	dec	r0
    267c:	e2 f7       	brpl	.-8      	; 0x2676 <_ZN10X10_sender7sendLowEv+0x20>
    267e:	80 81       	ld	r24, Z
    2680:	91 81       	ldd	r25, Z+1	; 0x01
    2682:	80 95       	com	r24
    2684:	90 95       	com	r25
    2686:	82 23       	and	r24, r18
    2688:	93 23       	and	r25, r19
    268a:	89 2b       	or	r24, r25
    268c:	41 f1       	breq	.+80     	; 0x26de <_ZN10X10_sender7sendLowEv+0x88>
			{
				start120();
    268e:	cf 01       	movw	r24, r30
    2690:	aa de       	rcall	.-684    	; 0x23e6 <_ZN10X10_sender8start120Ev>
// METHOD : getCurrentPos1
// DESCR. : retrieve the current pos of the bit to send
//=============================================================
unsigned char X10_sender::getCurrentPos1()
{
	return currentPos1_;
    2692:	8c 81       	ldd	r24, Y+4	; 0x04
			//PORTB |= 1 << 3;
			if(~getPacket1() & (1 << getCurrentPos1()))
			{
				start120();
				
				if(getCurrentPos1() > 0)
    2694:	88 23       	and	r24, r24
    2696:	19 f0       	breq	.+6      	; 0x269e <_ZN10X10_sender7sendLowEv+0x48>
// METHOD : decrementCurrentPos1
// DESCR. : decrement the current pos for the current bit to send on packet 1
//=============================================================
void X10_sender::decrementCurrentPos1()
{
	--currentPos1_;
    2698:	81 50       	subi	r24, 0x01	; 1
    269a:	8c 83       	std	Y+4, r24	; 0x04
    269c:	20 c0       	rjmp	.+64     	; 0x26de <_ZN10X10_sender7sendLowEv+0x88>
// METHOD : setCurrentPacket
// DESCR. : changes what packet part to send
//=============================================================
void X10_sender::setCurrentPacket(unsigned char packet)
{
	currentPacket_ = packet;
    269e:	82 e0       	ldi	r24, 0x02	; 2
    26a0:	8e 83       	std	Y+6, r24	; 0x06
    26a2:	1d c0       	rjmp	.+58     	; 0x26de <_ZN10X10_sender7sendLowEv+0x88>
				//PORTB |= 1 << 4;
			}
		else{}
	}
	
	else if(getCurrentPacket() == 2)
    26a4:	82 30       	cpi	r24, 0x02	; 2
    26a6:	d9 f4       	brne	.+54     	; 0x26de <_ZN10X10_sender7sendLowEv+0x88>
	{
		if(~getPacket2() & (1 << getCurrentPos2()))
    26a8:	81 e0       	ldi	r24, 0x01	; 1
    26aa:	90 e0       	ldi	r25, 0x00	; 0
    26ac:	9c 01       	movw	r18, r24
    26ae:	05 80       	ldd	r0, Z+5	; 0x05
    26b0:	02 c0       	rjmp	.+4      	; 0x26b6 <_ZN10X10_sender7sendLowEv+0x60>
    26b2:	22 0f       	add	r18, r18
    26b4:	33 1f       	adc	r19, r19
    26b6:	0a 94       	dec	r0
    26b8:	e2 f7       	brpl	.-8      	; 0x26b2 <_ZN10X10_sender7sendLowEv+0x5c>
    26ba:	82 81       	ldd	r24, Z+2	; 0x02
    26bc:	93 81       	ldd	r25, Z+3	; 0x03
    26be:	80 95       	com	r24
    26c0:	90 95       	com	r25
    26c2:	82 23       	and	r24, r18
    26c4:	93 23       	and	r25, r19
    26c6:	89 2b       	or	r24, r25
    26c8:	51 f0       	breq	.+20     	; 0x26de <_ZN10X10_sender7sendLowEv+0x88>
		{
			start120();
    26ca:	cf 01       	movw	r24, r30
    26cc:	8c de       	rcall	.-744    	; 0x23e6 <_ZN10X10_sender8start120Ev>
// METHOD : getCurrentPos2
// DESCR. : retrieve the current pos of the bit to send
//=============================================================
unsigned char X10_sender::getCurrentPos2()
{
	return currentPos2_;
    26ce:	8d 81       	ldd	r24, Y+5	; 0x05
	{
		if(~getPacket2() & (1 << getCurrentPos2()))
		{
			start120();
			
			if(getCurrentPos2() > 0)
    26d0:	88 23       	and	r24, r24
    26d2:	19 f0       	breq	.+6      	; 0x26da <_ZN10X10_sender7sendLowEv+0x84>
// METHOD : decrementCurrentPos2
// DESCR. : decrement the current pos for the current bit to send on packet 2
//=============================================================
void X10_sender::decrementCurrentPos2()
{
	--currentPos2_;
    26d4:	81 50       	subi	r24, 0x01	; 1
    26d6:	8d 83       	std	Y+5, r24	; 0x05
    26d8:	02 c0       	rjmp	.+4      	; 0x26de <_ZN10X10_sender7sendLowEv+0x88>
// METHOD : setSendMode
// DESCR. : sets the send mode to true or false
//=============================================================
void X10_sender::setSendMode(bool newSendMode)
{
	sendMode_ = newSendMode;
    26da:	1f 82       	std	Y+7, r1	; 0x07
// METHOD : setCurrentPacket
// DESCR. : changes what packet part to send
//=============================================================
void X10_sender::setCurrentPacket(unsigned char packet)
{
	currentPacket_ = packet;
    26dc:	1e 82       	std	Y+6, r1	; 0x06
		}
	else{}
}
		else{}	
	}
    26de:	df 91       	pop	r29
    26e0:	cf 91       	pop	r28
    26e2:	08 95       	ret

000026e4 <__udivmodsi4>:
    26e4:	a1 e2       	ldi	r26, 0x21	; 33
    26e6:	1a 2e       	mov	r1, r26
    26e8:	aa 1b       	sub	r26, r26
    26ea:	bb 1b       	sub	r27, r27
    26ec:	fd 01       	movw	r30, r26
    26ee:	0d c0       	rjmp	.+26     	; 0x270a <__udivmodsi4_ep>

000026f0 <__udivmodsi4_loop>:
    26f0:	aa 1f       	adc	r26, r26
    26f2:	bb 1f       	adc	r27, r27
    26f4:	ee 1f       	adc	r30, r30
    26f6:	ff 1f       	adc	r31, r31
    26f8:	a2 17       	cp	r26, r18
    26fa:	b3 07       	cpc	r27, r19
    26fc:	e4 07       	cpc	r30, r20
    26fe:	f5 07       	cpc	r31, r21
    2700:	20 f0       	brcs	.+8      	; 0x270a <__udivmodsi4_ep>
    2702:	a2 1b       	sub	r26, r18
    2704:	b3 0b       	sbc	r27, r19
    2706:	e4 0b       	sbc	r30, r20
    2708:	f5 0b       	sbc	r31, r21

0000270a <__udivmodsi4_ep>:
    270a:	66 1f       	adc	r22, r22
    270c:	77 1f       	adc	r23, r23
    270e:	88 1f       	adc	r24, r24
    2710:	99 1f       	adc	r25, r25
    2712:	1a 94       	dec	r1
    2714:	69 f7       	brne	.-38     	; 0x26f0 <__udivmodsi4_loop>
    2716:	60 95       	com	r22
    2718:	70 95       	com	r23
    271a:	80 95       	com	r24
    271c:	90 95       	com	r25
    271e:	9b 01       	movw	r18, r22
    2720:	ac 01       	movw	r20, r24
    2722:	bd 01       	movw	r22, r26
    2724:	cf 01       	movw	r24, r30
    2726:	08 95       	ret

00002728 <__tablejump2__>:
    2728:	ee 0f       	add	r30, r30
    272a:	ff 1f       	adc	r31, r31
    272c:	88 1f       	adc	r24, r24
    272e:	8b bf       	out	0x3b, r24	; 59
    2730:	07 90       	elpm	r0, Z+
    2732:	f6 91       	elpm	r31, Z
    2734:	e0 2d       	mov	r30, r0
    2736:	19 94       	eijmp

00002738 <_exit>:
    2738:	f8 94       	cli

0000273a <__stop_program>:
    273a:	ff cf       	rjmp	.-2      	; 0x273a <__stop_program>
